ARM GAS  /tmp/ccGQLaMr.s 			page 1


   1              		.cpu cortex-m3
   2              		.arch armv7-m
   3              		.fpu softvfp
   4              		.eabi_attribute 20, 1
   5              		.eabi_attribute 21, 1
   6              		.eabi_attribute 23, 3
   7              		.eabi_attribute 24, 1
   8              		.eabi_attribute 25, 1
   9              		.eabi_attribute 26, 1
  10              		.eabi_attribute 30, 1
  11              		.eabi_attribute 34, 1
  12              		.eabi_attribute 18, 4
  13              		.file	"LED_display.c"
  14              		.text
  15              	.Ltext0:
  16              		.cfi_sections	.debug_frame
  17              		.section	.text.reset_all_number,"ax",%progbits
  18              		.align	1
  19              		.syntax unified
  20              		.thumb
  21              		.thumb_func
  23              	reset_all_number:
  24              	.LFB815:
  25              		.file 1 "IO_drivers/LED_display.c"
   1:IO_drivers/LED_display.c **** //Includes ------------------------------------------------------------------//
   2:IO_drivers/LED_display.c **** #include "LED_display.h"
   3:IO_drivers/LED_display.c **** #include "gpio.h"
   4:IO_drivers/LED_display.c **** #include "tim.h"
   5:IO_drivers/LED_display.c **** #include "typedef.h"
   6:IO_drivers/LED_display.c **** 
   7:IO_drivers/LED_display.c **** //Defines------------------------------------------------------------------------------------//
   8:IO_drivers/LED_display.c **** #define DIGIT_CODE_SIZE 0x0B
   9:IO_drivers/LED_display.c **** 
  10:IO_drivers/LED_display.c **** //Variables------------------------------------------------------------------//
  11:IO_drivers/LED_display.c **** const TPortPin LEDpins[ DIGIT_CODE_SIZE] = 
  12:IO_drivers/LED_display.c **** {
  13:IO_drivers/LED_display.c ****     { SA_GPIO_Port, SA_Pin},
  14:IO_drivers/LED_display.c ****     { SB_GPIO_Port, SB_Pin},
  15:IO_drivers/LED_display.c **** 	{ SC_GPIO_Port, SC_Pin },
  16:IO_drivers/LED_display.c ****     { SD_GPIO_Port, SD_Pin},
  17:IO_drivers/LED_display.c **** 	{ SE_GPIO_Port, SE_Pin},
  18:IO_drivers/LED_display.c **** 	{ SF_GPIO_Port, SF_Pin },
  19:IO_drivers/LED_display.c ****     { SG_GPIO_Port, SG_Pin},
  20:IO_drivers/LED_display.c ****     { SDP_GPIO_Port, SDP_Pin }
  21:IO_drivers/LED_display.c **** };
  22:IO_drivers/LED_display.c **** 
  23:IO_drivers/LED_display.c ****  //–∫–æ–¥—ã —á–∏—Å–µ–ª –æ—Ç 0 –¥–æ 9, –ø–æ—Å–ª–µ–¥–Ω–∏–π —ç–ª–µ–º–µ–Ω—Ç (0x00) - –∫–æ–¥ –≥–∞—à–µ–Ω–
  24:IO_drivers/LED_display.c **** const uint8_t digit_code[] = 
  25:IO_drivers/LED_display.c **** {
  26:IO_drivers/LED_display.c ****     0x3F, 0x06, 0x5B, 0x4F, 0x66, 0x6D, 0x7D, 0x07, 0x7F, 0x6F, 0x00
  27:IO_drivers/LED_display.c **** };
  28:IO_drivers/LED_display.c **** 
  29:IO_drivers/LED_display.c **** //segment_numb - –∫–æ–ª–∏—á–µ—Å—Ç–≤–æ —Å–µ–≥–º–µ–Ω—Ç–æ–≤ –∫–∞–∂–¥–æ–≥–æ —Ä–∞–∑—Ä—è–¥–∞ —Ç–∞–±–ª–æ
  30:IO_drivers/LED_display.c **** uint8_t segment_numb = sizeof (LEDpins)/ sizeof (LEDpins[0]);
  31:IO_drivers/LED_display.c **** 
  32:IO_drivers/LED_display.c **** //Prototypes-----------------------------------------------------------------//
  33:IO_drivers/LED_display.c **** static void reset_number (uint8_t );
ARM GAS  /tmp/ccGQLaMr.s 			page 2


  34:IO_drivers/LED_display.c **** static void reset_all_number (void);
  35:IO_drivers/LED_display.c **** static void select_number (uint8_t );
  36:IO_drivers/LED_display.c **** static void reset_all_digit (void);
  37:IO_drivers/LED_display.c **** static void digit_activating (uint8_t digit);
  38:IO_drivers/LED_display.c **** 
  39:IO_drivers/LED_display.c **** //---------------------------------------------------------------------------//
  40:IO_drivers/LED_display.c **** static void reset_number (uint8_t number)
  41:IO_drivers/LED_display.c **** {
  42:IO_drivers/LED_display.c ****  switch (number)
  43:IO_drivers/LED_display.c ****     {
  44:IO_drivers/LED_display.c ****         case 0:
  45:IO_drivers/LED_display.c ****             NUMBER_0 (OFF);
  46:IO_drivers/LED_display.c ****             break;
  47:IO_drivers/LED_display.c **** 
  48:IO_drivers/LED_display.c ****         case 1:
  49:IO_drivers/LED_display.c ****             NUMBER_1 (OFF);
  50:IO_drivers/LED_display.c ****             break;
  51:IO_drivers/LED_display.c **** 
  52:IO_drivers/LED_display.c ****         case 2:
  53:IO_drivers/LED_display.c ****             NUMBER_2 (OFF);
  54:IO_drivers/LED_display.c ****             break;
  55:IO_drivers/LED_display.c ****       
  56:IO_drivers/LED_display.c ****         case 3:
  57:IO_drivers/LED_display.c ****             NUMBER_3 (OFF);
  58:IO_drivers/LED_display.c ****             break;
  59:IO_drivers/LED_display.c **** 
  60:IO_drivers/LED_display.c ****         case 4:
  61:IO_drivers/LED_display.c ****             NUMBER_4 (OFF);
  62:IO_drivers/LED_display.c ****             break;
  63:IO_drivers/LED_display.c ****       
  64:IO_drivers/LED_display.c ****         case 5:
  65:IO_drivers/LED_display.c ****             NUMBER_5 (OFF);
  66:IO_drivers/LED_display.c ****             break;
  67:IO_drivers/LED_display.c ****       
  68:IO_drivers/LED_display.c ****         default:
  69:IO_drivers/LED_display.c ****             break;     
  70:IO_drivers/LED_display.c ****     }
  71:IO_drivers/LED_display.c **** }
  72:IO_drivers/LED_display.c **** 
  73:IO_drivers/LED_display.c **** //---------------------------------------------------------------------------//
  74:IO_drivers/LED_display.c **** static void reset_all_number (void)
  75:IO_drivers/LED_display.c **** {
  26              		.loc 1 75 1 view -0
  27              		.cfi_startproc
  28              		@ args = 0, pretend = 0, frame = 0
  29              		@ frame_needed = 0, uses_anonymous_args = 0
  30              		@ link register save eliminated.
  76:IO_drivers/LED_display.c ****     NUMBER_0 (OFF);
  31              		.loc 1 76 5 view .LVU1
  32              	.LVL0:
  33              	.LBB31:
  34              	.LBI31:
  35              		.file 2 "Drivers/STM32L1xx_HAL_Driver/Inc/stm32l1xx_ll_gpio.h"
   1:Drivers/STM32L1xx_HAL_Driver/Inc/stm32l1xx_ll_gpio.h **** /**
   2:Drivers/STM32L1xx_HAL_Driver/Inc/stm32l1xx_ll_gpio.h ****   ******************************************************************************
   3:Drivers/STM32L1xx_HAL_Driver/Inc/stm32l1xx_ll_gpio.h ****   * @file    stm32l1xx_ll_gpio.h
   4:Drivers/STM32L1xx_HAL_Driver/Inc/stm32l1xx_ll_gpio.h ****   * @author  MCD Application Team
ARM GAS  /tmp/ccGQLaMr.s 			page 3


   5:Drivers/STM32L1xx_HAL_Driver/Inc/stm32l1xx_ll_gpio.h ****   * @brief   Header file of GPIO LL module.
   6:Drivers/STM32L1xx_HAL_Driver/Inc/stm32l1xx_ll_gpio.h ****   ******************************************************************************
   7:Drivers/STM32L1xx_HAL_Driver/Inc/stm32l1xx_ll_gpio.h ****   * @attention
   8:Drivers/STM32L1xx_HAL_Driver/Inc/stm32l1xx_ll_gpio.h ****   *
   9:Drivers/STM32L1xx_HAL_Driver/Inc/stm32l1xx_ll_gpio.h ****   * Copyright (c) 2017 STMicroelectronics.
  10:Drivers/STM32L1xx_HAL_Driver/Inc/stm32l1xx_ll_gpio.h ****   * All rights reserved.
  11:Drivers/STM32L1xx_HAL_Driver/Inc/stm32l1xx_ll_gpio.h ****   *
  12:Drivers/STM32L1xx_HAL_Driver/Inc/stm32l1xx_ll_gpio.h ****   * This software is licensed under terms that can be found in the LICENSE file
  13:Drivers/STM32L1xx_HAL_Driver/Inc/stm32l1xx_ll_gpio.h ****   * in the root directory of this software component.
  14:Drivers/STM32L1xx_HAL_Driver/Inc/stm32l1xx_ll_gpio.h ****   * If no LICENSE file comes with this software, it is provided AS-IS.
  15:Drivers/STM32L1xx_HAL_Driver/Inc/stm32l1xx_ll_gpio.h ****   *
  16:Drivers/STM32L1xx_HAL_Driver/Inc/stm32l1xx_ll_gpio.h ****   ******************************************************************************
  17:Drivers/STM32L1xx_HAL_Driver/Inc/stm32l1xx_ll_gpio.h ****   */
  18:Drivers/STM32L1xx_HAL_Driver/Inc/stm32l1xx_ll_gpio.h **** 
  19:Drivers/STM32L1xx_HAL_Driver/Inc/stm32l1xx_ll_gpio.h **** /* Define to prevent recursive inclusion -------------------------------------*/
  20:Drivers/STM32L1xx_HAL_Driver/Inc/stm32l1xx_ll_gpio.h **** #ifndef __STM32L1xx_LL_GPIO_H
  21:Drivers/STM32L1xx_HAL_Driver/Inc/stm32l1xx_ll_gpio.h **** #define __STM32L1xx_LL_GPIO_H
  22:Drivers/STM32L1xx_HAL_Driver/Inc/stm32l1xx_ll_gpio.h **** 
  23:Drivers/STM32L1xx_HAL_Driver/Inc/stm32l1xx_ll_gpio.h **** #ifdef __cplusplus
  24:Drivers/STM32L1xx_HAL_Driver/Inc/stm32l1xx_ll_gpio.h **** extern "C" {
  25:Drivers/STM32L1xx_HAL_Driver/Inc/stm32l1xx_ll_gpio.h **** #endif
  26:Drivers/STM32L1xx_HAL_Driver/Inc/stm32l1xx_ll_gpio.h **** 
  27:Drivers/STM32L1xx_HAL_Driver/Inc/stm32l1xx_ll_gpio.h **** /* Includes ------------------------------------------------------------------*/
  28:Drivers/STM32L1xx_HAL_Driver/Inc/stm32l1xx_ll_gpio.h **** #include "stm32l1xx.h"
  29:Drivers/STM32L1xx_HAL_Driver/Inc/stm32l1xx_ll_gpio.h **** 
  30:Drivers/STM32L1xx_HAL_Driver/Inc/stm32l1xx_ll_gpio.h **** /** @addtogroup STM32L1xx_LL_Driver
  31:Drivers/STM32L1xx_HAL_Driver/Inc/stm32l1xx_ll_gpio.h ****   * @{
  32:Drivers/STM32L1xx_HAL_Driver/Inc/stm32l1xx_ll_gpio.h ****   */
  33:Drivers/STM32L1xx_HAL_Driver/Inc/stm32l1xx_ll_gpio.h **** 
  34:Drivers/STM32L1xx_HAL_Driver/Inc/stm32l1xx_ll_gpio.h **** #if defined (GPIOA) || defined (GPIOB) || defined (GPIOC) || defined (GPIOD) || defined (GPIOE) || 
  35:Drivers/STM32L1xx_HAL_Driver/Inc/stm32l1xx_ll_gpio.h **** 
  36:Drivers/STM32L1xx_HAL_Driver/Inc/stm32l1xx_ll_gpio.h **** /** @defgroup GPIO_LL GPIO
  37:Drivers/STM32L1xx_HAL_Driver/Inc/stm32l1xx_ll_gpio.h ****   * @{
  38:Drivers/STM32L1xx_HAL_Driver/Inc/stm32l1xx_ll_gpio.h ****   */
  39:Drivers/STM32L1xx_HAL_Driver/Inc/stm32l1xx_ll_gpio.h **** 
  40:Drivers/STM32L1xx_HAL_Driver/Inc/stm32l1xx_ll_gpio.h **** /* Private types -------------------------------------------------------------*/
  41:Drivers/STM32L1xx_HAL_Driver/Inc/stm32l1xx_ll_gpio.h **** /* Private variables ---------------------------------------------------------*/
  42:Drivers/STM32L1xx_HAL_Driver/Inc/stm32l1xx_ll_gpio.h **** /* Private constants ---------------------------------------------------------*/
  43:Drivers/STM32L1xx_HAL_Driver/Inc/stm32l1xx_ll_gpio.h **** /* Private macros ------------------------------------------------------------*/
  44:Drivers/STM32L1xx_HAL_Driver/Inc/stm32l1xx_ll_gpio.h **** #if defined(USE_FULL_LL_DRIVER)
  45:Drivers/STM32L1xx_HAL_Driver/Inc/stm32l1xx_ll_gpio.h **** /** @defgroup GPIO_LL_Private_Macros GPIO Private Macros
  46:Drivers/STM32L1xx_HAL_Driver/Inc/stm32l1xx_ll_gpio.h ****   * @{
  47:Drivers/STM32L1xx_HAL_Driver/Inc/stm32l1xx_ll_gpio.h ****   */
  48:Drivers/STM32L1xx_HAL_Driver/Inc/stm32l1xx_ll_gpio.h **** 
  49:Drivers/STM32L1xx_HAL_Driver/Inc/stm32l1xx_ll_gpio.h **** /**
  50:Drivers/STM32L1xx_HAL_Driver/Inc/stm32l1xx_ll_gpio.h ****   * @}
  51:Drivers/STM32L1xx_HAL_Driver/Inc/stm32l1xx_ll_gpio.h ****   */
  52:Drivers/STM32L1xx_HAL_Driver/Inc/stm32l1xx_ll_gpio.h **** #endif /*USE_FULL_LL_DRIVER*/
  53:Drivers/STM32L1xx_HAL_Driver/Inc/stm32l1xx_ll_gpio.h **** 
  54:Drivers/STM32L1xx_HAL_Driver/Inc/stm32l1xx_ll_gpio.h **** /* Exported types ------------------------------------------------------------*/
  55:Drivers/STM32L1xx_HAL_Driver/Inc/stm32l1xx_ll_gpio.h **** #if defined(USE_FULL_LL_DRIVER)
  56:Drivers/STM32L1xx_HAL_Driver/Inc/stm32l1xx_ll_gpio.h **** /** @defgroup GPIO_LL_ES_INIT GPIO Exported Init structures
  57:Drivers/STM32L1xx_HAL_Driver/Inc/stm32l1xx_ll_gpio.h ****   * @{
  58:Drivers/STM32L1xx_HAL_Driver/Inc/stm32l1xx_ll_gpio.h ****   */
  59:Drivers/STM32L1xx_HAL_Driver/Inc/stm32l1xx_ll_gpio.h **** 
  60:Drivers/STM32L1xx_HAL_Driver/Inc/stm32l1xx_ll_gpio.h **** /**
  61:Drivers/STM32L1xx_HAL_Driver/Inc/stm32l1xx_ll_gpio.h ****   * @brief LL GPIO Init Structure definition
ARM GAS  /tmp/ccGQLaMr.s 			page 4


  62:Drivers/STM32L1xx_HAL_Driver/Inc/stm32l1xx_ll_gpio.h ****   */
  63:Drivers/STM32L1xx_HAL_Driver/Inc/stm32l1xx_ll_gpio.h **** typedef struct
  64:Drivers/STM32L1xx_HAL_Driver/Inc/stm32l1xx_ll_gpio.h **** {
  65:Drivers/STM32L1xx_HAL_Driver/Inc/stm32l1xx_ll_gpio.h ****   uint32_t Pin;          /*!< Specifies the GPIO pins to be configured.
  66:Drivers/STM32L1xx_HAL_Driver/Inc/stm32l1xx_ll_gpio.h ****                               This parameter can be any value of @ref GPIO_LL_EC_PIN */
  67:Drivers/STM32L1xx_HAL_Driver/Inc/stm32l1xx_ll_gpio.h **** 
  68:Drivers/STM32L1xx_HAL_Driver/Inc/stm32l1xx_ll_gpio.h ****   uint32_t Mode;         /*!< Specifies the operating mode for the selected pins.
  69:Drivers/STM32L1xx_HAL_Driver/Inc/stm32l1xx_ll_gpio.h ****                               This parameter can be a value of @ref GPIO_LL_EC_MODE.
  70:Drivers/STM32L1xx_HAL_Driver/Inc/stm32l1xx_ll_gpio.h **** 
  71:Drivers/STM32L1xx_HAL_Driver/Inc/stm32l1xx_ll_gpio.h ****                               GPIO HW configuration can be modified afterwards using unitary functi
  72:Drivers/STM32L1xx_HAL_Driver/Inc/stm32l1xx_ll_gpio.h **** 
  73:Drivers/STM32L1xx_HAL_Driver/Inc/stm32l1xx_ll_gpio.h ****   uint32_t Speed;        /*!< Specifies the speed for the selected pins.
  74:Drivers/STM32L1xx_HAL_Driver/Inc/stm32l1xx_ll_gpio.h ****                               This parameter can be a value of @ref GPIO_LL_EC_SPEED.
  75:Drivers/STM32L1xx_HAL_Driver/Inc/stm32l1xx_ll_gpio.h **** 
  76:Drivers/STM32L1xx_HAL_Driver/Inc/stm32l1xx_ll_gpio.h ****                               GPIO HW configuration can be modified afterwards using unitary functi
  77:Drivers/STM32L1xx_HAL_Driver/Inc/stm32l1xx_ll_gpio.h **** 
  78:Drivers/STM32L1xx_HAL_Driver/Inc/stm32l1xx_ll_gpio.h ****   uint32_t OutputType;   /*!< Specifies the operating output type for the selected pins.
  79:Drivers/STM32L1xx_HAL_Driver/Inc/stm32l1xx_ll_gpio.h ****                               This parameter can be a value of @ref GPIO_LL_EC_OUTPUT.
  80:Drivers/STM32L1xx_HAL_Driver/Inc/stm32l1xx_ll_gpio.h **** 
  81:Drivers/STM32L1xx_HAL_Driver/Inc/stm32l1xx_ll_gpio.h ****                               GPIO HW configuration can be modified afterwards using unitary functi
  82:Drivers/STM32L1xx_HAL_Driver/Inc/stm32l1xx_ll_gpio.h **** 
  83:Drivers/STM32L1xx_HAL_Driver/Inc/stm32l1xx_ll_gpio.h ****   uint32_t Pull;         /*!< Specifies the operating Pull-up/Pull down for the selected pins.
  84:Drivers/STM32L1xx_HAL_Driver/Inc/stm32l1xx_ll_gpio.h ****                               This parameter can be a value of @ref GPIO_LL_EC_PULL.
  85:Drivers/STM32L1xx_HAL_Driver/Inc/stm32l1xx_ll_gpio.h **** 
  86:Drivers/STM32L1xx_HAL_Driver/Inc/stm32l1xx_ll_gpio.h ****                               GPIO HW configuration can be modified afterwards using unitary functi
  87:Drivers/STM32L1xx_HAL_Driver/Inc/stm32l1xx_ll_gpio.h **** 
  88:Drivers/STM32L1xx_HAL_Driver/Inc/stm32l1xx_ll_gpio.h ****   uint32_t Alternate;    /*!< Specifies the Peripheral to be connected to the selected pins.
  89:Drivers/STM32L1xx_HAL_Driver/Inc/stm32l1xx_ll_gpio.h ****                               This parameter can be a value of @ref GPIO_LL_EC_AF.
  90:Drivers/STM32L1xx_HAL_Driver/Inc/stm32l1xx_ll_gpio.h **** 
  91:Drivers/STM32L1xx_HAL_Driver/Inc/stm32l1xx_ll_gpio.h ****                               GPIO HW configuration can be modified afterwards using unitary functi
  92:Drivers/STM32L1xx_HAL_Driver/Inc/stm32l1xx_ll_gpio.h **** } LL_GPIO_InitTypeDef;
  93:Drivers/STM32L1xx_HAL_Driver/Inc/stm32l1xx_ll_gpio.h **** 
  94:Drivers/STM32L1xx_HAL_Driver/Inc/stm32l1xx_ll_gpio.h **** /**
  95:Drivers/STM32L1xx_HAL_Driver/Inc/stm32l1xx_ll_gpio.h ****   * @}
  96:Drivers/STM32L1xx_HAL_Driver/Inc/stm32l1xx_ll_gpio.h ****   */
  97:Drivers/STM32L1xx_HAL_Driver/Inc/stm32l1xx_ll_gpio.h **** #endif /* USE_FULL_LL_DRIVER */
  98:Drivers/STM32L1xx_HAL_Driver/Inc/stm32l1xx_ll_gpio.h **** 
  99:Drivers/STM32L1xx_HAL_Driver/Inc/stm32l1xx_ll_gpio.h **** /* Exported constants --------------------------------------------------------*/
 100:Drivers/STM32L1xx_HAL_Driver/Inc/stm32l1xx_ll_gpio.h **** /** @defgroup GPIO_LL_Exported_Constants GPIO Exported Constants
 101:Drivers/STM32L1xx_HAL_Driver/Inc/stm32l1xx_ll_gpio.h ****   * @{
 102:Drivers/STM32L1xx_HAL_Driver/Inc/stm32l1xx_ll_gpio.h ****   */
 103:Drivers/STM32L1xx_HAL_Driver/Inc/stm32l1xx_ll_gpio.h **** 
 104:Drivers/STM32L1xx_HAL_Driver/Inc/stm32l1xx_ll_gpio.h **** /** @defgroup GPIO_LL_EC_PIN PIN
 105:Drivers/STM32L1xx_HAL_Driver/Inc/stm32l1xx_ll_gpio.h ****   * @{
 106:Drivers/STM32L1xx_HAL_Driver/Inc/stm32l1xx_ll_gpio.h ****   */
 107:Drivers/STM32L1xx_HAL_Driver/Inc/stm32l1xx_ll_gpio.h **** #define LL_GPIO_PIN_0                      GPIO_BSRR_BS_0 /*!< Select pin 0 */
 108:Drivers/STM32L1xx_HAL_Driver/Inc/stm32l1xx_ll_gpio.h **** #define LL_GPIO_PIN_1                      GPIO_BSRR_BS_1 /*!< Select pin 1 */
 109:Drivers/STM32L1xx_HAL_Driver/Inc/stm32l1xx_ll_gpio.h **** #define LL_GPIO_PIN_2                      GPIO_BSRR_BS_2 /*!< Select pin 2 */
 110:Drivers/STM32L1xx_HAL_Driver/Inc/stm32l1xx_ll_gpio.h **** #define LL_GPIO_PIN_3                      GPIO_BSRR_BS_3 /*!< Select pin 3 */
 111:Drivers/STM32L1xx_HAL_Driver/Inc/stm32l1xx_ll_gpio.h **** #define LL_GPIO_PIN_4                      GPIO_BSRR_BS_4 /*!< Select pin 4 */
 112:Drivers/STM32L1xx_HAL_Driver/Inc/stm32l1xx_ll_gpio.h **** #define LL_GPIO_PIN_5                      GPIO_BSRR_BS_5 /*!< Select pin 5 */
 113:Drivers/STM32L1xx_HAL_Driver/Inc/stm32l1xx_ll_gpio.h **** #define LL_GPIO_PIN_6                      GPIO_BSRR_BS_6 /*!< Select pin 6 */
 114:Drivers/STM32L1xx_HAL_Driver/Inc/stm32l1xx_ll_gpio.h **** #define LL_GPIO_PIN_7                      GPIO_BSRR_BS_7 /*!< Select pin 7 */
 115:Drivers/STM32L1xx_HAL_Driver/Inc/stm32l1xx_ll_gpio.h **** #define LL_GPIO_PIN_8                      GPIO_BSRR_BS_8 /*!< Select pin 8 */
 116:Drivers/STM32L1xx_HAL_Driver/Inc/stm32l1xx_ll_gpio.h **** #define LL_GPIO_PIN_9                      GPIO_BSRR_BS_9 /*!< Select pin 9 */
 117:Drivers/STM32L1xx_HAL_Driver/Inc/stm32l1xx_ll_gpio.h **** #define LL_GPIO_PIN_10                     GPIO_BSRR_BS_10 /*!< Select pin 10 */
 118:Drivers/STM32L1xx_HAL_Driver/Inc/stm32l1xx_ll_gpio.h **** #define LL_GPIO_PIN_11                     GPIO_BSRR_BS_11 /*!< Select pin 11 */
ARM GAS  /tmp/ccGQLaMr.s 			page 5


 119:Drivers/STM32L1xx_HAL_Driver/Inc/stm32l1xx_ll_gpio.h **** #define LL_GPIO_PIN_12                     GPIO_BSRR_BS_12 /*!< Select pin 12 */
 120:Drivers/STM32L1xx_HAL_Driver/Inc/stm32l1xx_ll_gpio.h **** #define LL_GPIO_PIN_13                     GPIO_BSRR_BS_13 /*!< Select pin 13 */
 121:Drivers/STM32L1xx_HAL_Driver/Inc/stm32l1xx_ll_gpio.h **** #define LL_GPIO_PIN_14                     GPIO_BSRR_BS_14 /*!< Select pin 14 */
 122:Drivers/STM32L1xx_HAL_Driver/Inc/stm32l1xx_ll_gpio.h **** #define LL_GPIO_PIN_15                     GPIO_BSRR_BS_15 /*!< Select pin 15 */
 123:Drivers/STM32L1xx_HAL_Driver/Inc/stm32l1xx_ll_gpio.h **** #define LL_GPIO_PIN_ALL                    (GPIO_BSRR_BS_0 | GPIO_BSRR_BS_1  | GPIO_BSRR_BS_2  | \
 124:Drivers/STM32L1xx_HAL_Driver/Inc/stm32l1xx_ll_gpio.h ****                                            GPIO_BSRR_BS_3  | GPIO_BSRR_BS_4  | GPIO_BSRR_BS_5  | \
 125:Drivers/STM32L1xx_HAL_Driver/Inc/stm32l1xx_ll_gpio.h ****                                            GPIO_BSRR_BS_6  | GPIO_BSRR_BS_7  | GPIO_BSRR_BS_8  | \
 126:Drivers/STM32L1xx_HAL_Driver/Inc/stm32l1xx_ll_gpio.h ****                                            GPIO_BSRR_BS_9  | GPIO_BSRR_BS_10 | GPIO_BSRR_BS_11 | \
 127:Drivers/STM32L1xx_HAL_Driver/Inc/stm32l1xx_ll_gpio.h ****                                            GPIO_BSRR_BS_12 | GPIO_BSRR_BS_13 | GPIO_BSRR_BS_14 | \
 128:Drivers/STM32L1xx_HAL_Driver/Inc/stm32l1xx_ll_gpio.h ****                                            GPIO_BSRR_BS_15) /*!< Select all pins */
 129:Drivers/STM32L1xx_HAL_Driver/Inc/stm32l1xx_ll_gpio.h **** /**
 130:Drivers/STM32L1xx_HAL_Driver/Inc/stm32l1xx_ll_gpio.h ****   * @}
 131:Drivers/STM32L1xx_HAL_Driver/Inc/stm32l1xx_ll_gpio.h ****   */
 132:Drivers/STM32L1xx_HAL_Driver/Inc/stm32l1xx_ll_gpio.h **** 
 133:Drivers/STM32L1xx_HAL_Driver/Inc/stm32l1xx_ll_gpio.h **** /** @defgroup GPIO_LL_EC_MODE Mode
 134:Drivers/STM32L1xx_HAL_Driver/Inc/stm32l1xx_ll_gpio.h ****   * @{
 135:Drivers/STM32L1xx_HAL_Driver/Inc/stm32l1xx_ll_gpio.h ****   */
 136:Drivers/STM32L1xx_HAL_Driver/Inc/stm32l1xx_ll_gpio.h **** #define LL_GPIO_MODE_INPUT                 (0x00000000U) /*!< Select input mode */
 137:Drivers/STM32L1xx_HAL_Driver/Inc/stm32l1xx_ll_gpio.h **** #define LL_GPIO_MODE_OUTPUT                GPIO_MODER_MODER0_0  /*!< Select output mode */
 138:Drivers/STM32L1xx_HAL_Driver/Inc/stm32l1xx_ll_gpio.h **** #define LL_GPIO_MODE_ALTERNATE             GPIO_MODER_MODER0_1  /*!< Select alternate function mode
 139:Drivers/STM32L1xx_HAL_Driver/Inc/stm32l1xx_ll_gpio.h **** #define LL_GPIO_MODE_ANALOG                GPIO_MODER_MODER0    /*!< Select analog mode */
 140:Drivers/STM32L1xx_HAL_Driver/Inc/stm32l1xx_ll_gpio.h **** /**
 141:Drivers/STM32L1xx_HAL_Driver/Inc/stm32l1xx_ll_gpio.h ****   * @}
 142:Drivers/STM32L1xx_HAL_Driver/Inc/stm32l1xx_ll_gpio.h ****   */
 143:Drivers/STM32L1xx_HAL_Driver/Inc/stm32l1xx_ll_gpio.h **** 
 144:Drivers/STM32L1xx_HAL_Driver/Inc/stm32l1xx_ll_gpio.h **** /** @defgroup GPIO_LL_EC_OUTPUT Output Type
 145:Drivers/STM32L1xx_HAL_Driver/Inc/stm32l1xx_ll_gpio.h ****   * @{
 146:Drivers/STM32L1xx_HAL_Driver/Inc/stm32l1xx_ll_gpio.h ****   */
 147:Drivers/STM32L1xx_HAL_Driver/Inc/stm32l1xx_ll_gpio.h **** #define LL_GPIO_OUTPUT_PUSHPULL            (0x00000000U) /*!< Select push-pull as output type */
 148:Drivers/STM32L1xx_HAL_Driver/Inc/stm32l1xx_ll_gpio.h **** #define LL_GPIO_OUTPUT_OPENDRAIN           GPIO_OTYPER_OT_0 /*!< Select open-drain as output type *
 149:Drivers/STM32L1xx_HAL_Driver/Inc/stm32l1xx_ll_gpio.h **** /**
 150:Drivers/STM32L1xx_HAL_Driver/Inc/stm32l1xx_ll_gpio.h ****   * @}
 151:Drivers/STM32L1xx_HAL_Driver/Inc/stm32l1xx_ll_gpio.h ****   */
 152:Drivers/STM32L1xx_HAL_Driver/Inc/stm32l1xx_ll_gpio.h **** 
 153:Drivers/STM32L1xx_HAL_Driver/Inc/stm32l1xx_ll_gpio.h **** /** @defgroup GPIO_LL_EC_SPEED Output Speed
 154:Drivers/STM32L1xx_HAL_Driver/Inc/stm32l1xx_ll_gpio.h ****   * @{
 155:Drivers/STM32L1xx_HAL_Driver/Inc/stm32l1xx_ll_gpio.h ****   */
 156:Drivers/STM32L1xx_HAL_Driver/Inc/stm32l1xx_ll_gpio.h **** #define LL_GPIO_SPEED_FREQ_LOW             (0x00000000U) /*!< Select I/O low output speed    */
 157:Drivers/STM32L1xx_HAL_Driver/Inc/stm32l1xx_ll_gpio.h **** #define LL_GPIO_SPEED_FREQ_MEDIUM          GPIO_OSPEEDER_OSPEEDR0_0 /*!< Select I/O medium output s
 158:Drivers/STM32L1xx_HAL_Driver/Inc/stm32l1xx_ll_gpio.h **** #define LL_GPIO_SPEED_FREQ_HIGH            GPIO_OSPEEDER_OSPEEDR0_1 /*!< Select I/O fast output spe
 159:Drivers/STM32L1xx_HAL_Driver/Inc/stm32l1xx_ll_gpio.h **** #define LL_GPIO_SPEED_FREQ_VERY_HIGH       GPIO_OSPEEDER_OSPEEDR0   /*!< Select I/O high output spe
 160:Drivers/STM32L1xx_HAL_Driver/Inc/stm32l1xx_ll_gpio.h **** /**
 161:Drivers/STM32L1xx_HAL_Driver/Inc/stm32l1xx_ll_gpio.h ****   * @}
 162:Drivers/STM32L1xx_HAL_Driver/Inc/stm32l1xx_ll_gpio.h ****   */
 163:Drivers/STM32L1xx_HAL_Driver/Inc/stm32l1xx_ll_gpio.h **** 
 164:Drivers/STM32L1xx_HAL_Driver/Inc/stm32l1xx_ll_gpio.h **** /** @defgroup GPIO_LL_EC_PULL Pull Up Pull Down
 165:Drivers/STM32L1xx_HAL_Driver/Inc/stm32l1xx_ll_gpio.h ****   * @{
 166:Drivers/STM32L1xx_HAL_Driver/Inc/stm32l1xx_ll_gpio.h ****   */
 167:Drivers/STM32L1xx_HAL_Driver/Inc/stm32l1xx_ll_gpio.h **** #define LL_GPIO_PULL_NO                    (0x00000000U) /*!< Select I/O no pull */
 168:Drivers/STM32L1xx_HAL_Driver/Inc/stm32l1xx_ll_gpio.h **** #define LL_GPIO_PULL_UP                    GPIO_PUPDR_PUPDR0_0 /*!< Select I/O pull up */
 169:Drivers/STM32L1xx_HAL_Driver/Inc/stm32l1xx_ll_gpio.h **** #define LL_GPIO_PULL_DOWN                  GPIO_PUPDR_PUPDR0_1 /*!< Select I/O pull down */
 170:Drivers/STM32L1xx_HAL_Driver/Inc/stm32l1xx_ll_gpio.h **** /**
 171:Drivers/STM32L1xx_HAL_Driver/Inc/stm32l1xx_ll_gpio.h ****   * @}
 172:Drivers/STM32L1xx_HAL_Driver/Inc/stm32l1xx_ll_gpio.h ****   */
 173:Drivers/STM32L1xx_HAL_Driver/Inc/stm32l1xx_ll_gpio.h **** 
 174:Drivers/STM32L1xx_HAL_Driver/Inc/stm32l1xx_ll_gpio.h **** /** @defgroup GPIO_LL_EC_AF Alternate Function
 175:Drivers/STM32L1xx_HAL_Driver/Inc/stm32l1xx_ll_gpio.h ****   * @{
ARM GAS  /tmp/ccGQLaMr.s 			page 6


 176:Drivers/STM32L1xx_HAL_Driver/Inc/stm32l1xx_ll_gpio.h ****   */
 177:Drivers/STM32L1xx_HAL_Driver/Inc/stm32l1xx_ll_gpio.h **** #define LL_GPIO_AF_0                       (0x0000000U) /*!< Select alternate function 0 */
 178:Drivers/STM32L1xx_HAL_Driver/Inc/stm32l1xx_ll_gpio.h **** #define LL_GPIO_AF_1                       (0x0000001U) /*!< Select alternate function 1 */
 179:Drivers/STM32L1xx_HAL_Driver/Inc/stm32l1xx_ll_gpio.h **** #define LL_GPIO_AF_2                       (0x0000002U) /*!< Select alternate function 2 */
 180:Drivers/STM32L1xx_HAL_Driver/Inc/stm32l1xx_ll_gpio.h **** #define LL_GPIO_AF_3                       (0x0000003U) /*!< Select alternate function 3 */
 181:Drivers/STM32L1xx_HAL_Driver/Inc/stm32l1xx_ll_gpio.h **** #define LL_GPIO_AF_4                       (0x0000004U) /*!< Select alternate function 4 */
 182:Drivers/STM32L1xx_HAL_Driver/Inc/stm32l1xx_ll_gpio.h **** #define LL_GPIO_AF_5                       (0x0000005U) /*!< Select alternate function 5 */
 183:Drivers/STM32L1xx_HAL_Driver/Inc/stm32l1xx_ll_gpio.h **** #define LL_GPIO_AF_6                       (0x0000006U) /*!< Select alternate function 6 */
 184:Drivers/STM32L1xx_HAL_Driver/Inc/stm32l1xx_ll_gpio.h **** #define LL_GPIO_AF_7                       (0x0000007U) /*!< Select alternate function 7 */
 185:Drivers/STM32L1xx_HAL_Driver/Inc/stm32l1xx_ll_gpio.h **** #define LL_GPIO_AF_8                       (0x0000008U) /*!< Select alternate function 8 */
 186:Drivers/STM32L1xx_HAL_Driver/Inc/stm32l1xx_ll_gpio.h **** #define LL_GPIO_AF_9                       (0x0000009U) /*!< Select alternate function 9 */
 187:Drivers/STM32L1xx_HAL_Driver/Inc/stm32l1xx_ll_gpio.h **** #define LL_GPIO_AF_10                      (0x000000AU) /*!< Select alternate function 10 */
 188:Drivers/STM32L1xx_HAL_Driver/Inc/stm32l1xx_ll_gpio.h **** #define LL_GPIO_AF_11                      (0x000000BU) /*!< Select alternate function 11 */
 189:Drivers/STM32L1xx_HAL_Driver/Inc/stm32l1xx_ll_gpio.h **** #define LL_GPIO_AF_12                      (0x000000CU) /*!< Select alternate function 12 */
 190:Drivers/STM32L1xx_HAL_Driver/Inc/stm32l1xx_ll_gpio.h **** #define LL_GPIO_AF_13                      (0x000000DU) /*!< Select alternate function 13 */
 191:Drivers/STM32L1xx_HAL_Driver/Inc/stm32l1xx_ll_gpio.h **** #define LL_GPIO_AF_14                      (0x000000EU) /*!< Select alternate function 14 */
 192:Drivers/STM32L1xx_HAL_Driver/Inc/stm32l1xx_ll_gpio.h **** #define LL_GPIO_AF_15                      (0x000000FU) /*!< Select alternate function 15 */
 193:Drivers/STM32L1xx_HAL_Driver/Inc/stm32l1xx_ll_gpio.h **** /**
 194:Drivers/STM32L1xx_HAL_Driver/Inc/stm32l1xx_ll_gpio.h ****   * @}
 195:Drivers/STM32L1xx_HAL_Driver/Inc/stm32l1xx_ll_gpio.h ****   */
 196:Drivers/STM32L1xx_HAL_Driver/Inc/stm32l1xx_ll_gpio.h **** 
 197:Drivers/STM32L1xx_HAL_Driver/Inc/stm32l1xx_ll_gpio.h **** /**
 198:Drivers/STM32L1xx_HAL_Driver/Inc/stm32l1xx_ll_gpio.h ****   * @}
 199:Drivers/STM32L1xx_HAL_Driver/Inc/stm32l1xx_ll_gpio.h ****   */
 200:Drivers/STM32L1xx_HAL_Driver/Inc/stm32l1xx_ll_gpio.h **** 
 201:Drivers/STM32L1xx_HAL_Driver/Inc/stm32l1xx_ll_gpio.h **** /* Exported macro ------------------------------------------------------------*/
 202:Drivers/STM32L1xx_HAL_Driver/Inc/stm32l1xx_ll_gpio.h **** /** @defgroup GPIO_LL_Exported_Macros GPIO Exported Macros
 203:Drivers/STM32L1xx_HAL_Driver/Inc/stm32l1xx_ll_gpio.h ****   * @{
 204:Drivers/STM32L1xx_HAL_Driver/Inc/stm32l1xx_ll_gpio.h ****   */
 205:Drivers/STM32L1xx_HAL_Driver/Inc/stm32l1xx_ll_gpio.h **** 
 206:Drivers/STM32L1xx_HAL_Driver/Inc/stm32l1xx_ll_gpio.h **** /** @defgroup GPIO_LL_EM_WRITE_READ Common Write and read registers Macros
 207:Drivers/STM32L1xx_HAL_Driver/Inc/stm32l1xx_ll_gpio.h ****   * @{
 208:Drivers/STM32L1xx_HAL_Driver/Inc/stm32l1xx_ll_gpio.h ****   */
 209:Drivers/STM32L1xx_HAL_Driver/Inc/stm32l1xx_ll_gpio.h **** 
 210:Drivers/STM32L1xx_HAL_Driver/Inc/stm32l1xx_ll_gpio.h **** /**
 211:Drivers/STM32L1xx_HAL_Driver/Inc/stm32l1xx_ll_gpio.h ****   * @brief  Write a value in GPIO register
 212:Drivers/STM32L1xx_HAL_Driver/Inc/stm32l1xx_ll_gpio.h ****   * @param  __INSTANCE__ GPIO Instance
 213:Drivers/STM32L1xx_HAL_Driver/Inc/stm32l1xx_ll_gpio.h ****   * @param  __REG__ Register to be written
 214:Drivers/STM32L1xx_HAL_Driver/Inc/stm32l1xx_ll_gpio.h ****   * @param  __VALUE__ Value to be written in the register
 215:Drivers/STM32L1xx_HAL_Driver/Inc/stm32l1xx_ll_gpio.h ****   * @retval None
 216:Drivers/STM32L1xx_HAL_Driver/Inc/stm32l1xx_ll_gpio.h ****   */
 217:Drivers/STM32L1xx_HAL_Driver/Inc/stm32l1xx_ll_gpio.h **** #define LL_GPIO_WriteReg(__INSTANCE__, __REG__, __VALUE__) WRITE_REG(__INSTANCE__->__REG__, (__VALU
 218:Drivers/STM32L1xx_HAL_Driver/Inc/stm32l1xx_ll_gpio.h **** 
 219:Drivers/STM32L1xx_HAL_Driver/Inc/stm32l1xx_ll_gpio.h **** /**
 220:Drivers/STM32L1xx_HAL_Driver/Inc/stm32l1xx_ll_gpio.h ****   * @brief  Read a value in GPIO register
 221:Drivers/STM32L1xx_HAL_Driver/Inc/stm32l1xx_ll_gpio.h ****   * @param  __INSTANCE__ GPIO Instance
 222:Drivers/STM32L1xx_HAL_Driver/Inc/stm32l1xx_ll_gpio.h ****   * @param  __REG__ Register to be read
 223:Drivers/STM32L1xx_HAL_Driver/Inc/stm32l1xx_ll_gpio.h ****   * @retval Register value
 224:Drivers/STM32L1xx_HAL_Driver/Inc/stm32l1xx_ll_gpio.h ****   */
 225:Drivers/STM32L1xx_HAL_Driver/Inc/stm32l1xx_ll_gpio.h **** #define LL_GPIO_ReadReg(__INSTANCE__, __REG__) READ_REG(__INSTANCE__->__REG__)
 226:Drivers/STM32L1xx_HAL_Driver/Inc/stm32l1xx_ll_gpio.h **** /**
 227:Drivers/STM32L1xx_HAL_Driver/Inc/stm32l1xx_ll_gpio.h ****   * @}
 228:Drivers/STM32L1xx_HAL_Driver/Inc/stm32l1xx_ll_gpio.h ****   */
 229:Drivers/STM32L1xx_HAL_Driver/Inc/stm32l1xx_ll_gpio.h **** 
 230:Drivers/STM32L1xx_HAL_Driver/Inc/stm32l1xx_ll_gpio.h **** /**
 231:Drivers/STM32L1xx_HAL_Driver/Inc/stm32l1xx_ll_gpio.h ****   * @}
 232:Drivers/STM32L1xx_HAL_Driver/Inc/stm32l1xx_ll_gpio.h ****   */
ARM GAS  /tmp/ccGQLaMr.s 			page 7


 233:Drivers/STM32L1xx_HAL_Driver/Inc/stm32l1xx_ll_gpio.h **** 
 234:Drivers/STM32L1xx_HAL_Driver/Inc/stm32l1xx_ll_gpio.h **** /* Exported functions --------------------------------------------------------*/
 235:Drivers/STM32L1xx_HAL_Driver/Inc/stm32l1xx_ll_gpio.h **** /** @defgroup GPIO_LL_Exported_Functions GPIO Exported Functions
 236:Drivers/STM32L1xx_HAL_Driver/Inc/stm32l1xx_ll_gpio.h ****   * @{
 237:Drivers/STM32L1xx_HAL_Driver/Inc/stm32l1xx_ll_gpio.h ****   */
 238:Drivers/STM32L1xx_HAL_Driver/Inc/stm32l1xx_ll_gpio.h **** 
 239:Drivers/STM32L1xx_HAL_Driver/Inc/stm32l1xx_ll_gpio.h **** /** @defgroup GPIO_LL_EF_Port_Configuration Port Configuration
 240:Drivers/STM32L1xx_HAL_Driver/Inc/stm32l1xx_ll_gpio.h ****   * @{
 241:Drivers/STM32L1xx_HAL_Driver/Inc/stm32l1xx_ll_gpio.h ****   */
 242:Drivers/STM32L1xx_HAL_Driver/Inc/stm32l1xx_ll_gpio.h **** 
 243:Drivers/STM32L1xx_HAL_Driver/Inc/stm32l1xx_ll_gpio.h **** /**
 244:Drivers/STM32L1xx_HAL_Driver/Inc/stm32l1xx_ll_gpio.h ****   * @brief  Configure gpio mode for a dedicated pin on dedicated port.
 245:Drivers/STM32L1xx_HAL_Driver/Inc/stm32l1xx_ll_gpio.h ****   * @note   I/O mode can be Input mode, General purpose output, Alternate function mode or Analog.
 246:Drivers/STM32L1xx_HAL_Driver/Inc/stm32l1xx_ll_gpio.h ****   * @note   Warning: only one pin can be passed as parameter.
 247:Drivers/STM32L1xx_HAL_Driver/Inc/stm32l1xx_ll_gpio.h ****   * @rmtoll MODER        MODEy         LL_GPIO_SetPinMode
 248:Drivers/STM32L1xx_HAL_Driver/Inc/stm32l1xx_ll_gpio.h ****   * @param  GPIOx GPIO Port
 249:Drivers/STM32L1xx_HAL_Driver/Inc/stm32l1xx_ll_gpio.h ****   * @param  Pin This parameter can be one of the following values:
 250:Drivers/STM32L1xx_HAL_Driver/Inc/stm32l1xx_ll_gpio.h ****   *         @arg @ref LL_GPIO_PIN_0
 251:Drivers/STM32L1xx_HAL_Driver/Inc/stm32l1xx_ll_gpio.h ****   *         @arg @ref LL_GPIO_PIN_1
 252:Drivers/STM32L1xx_HAL_Driver/Inc/stm32l1xx_ll_gpio.h ****   *         @arg @ref LL_GPIO_PIN_2
 253:Drivers/STM32L1xx_HAL_Driver/Inc/stm32l1xx_ll_gpio.h ****   *         @arg @ref LL_GPIO_PIN_3
 254:Drivers/STM32L1xx_HAL_Driver/Inc/stm32l1xx_ll_gpio.h ****   *         @arg @ref LL_GPIO_PIN_4
 255:Drivers/STM32L1xx_HAL_Driver/Inc/stm32l1xx_ll_gpio.h ****   *         @arg @ref LL_GPIO_PIN_5
 256:Drivers/STM32L1xx_HAL_Driver/Inc/stm32l1xx_ll_gpio.h ****   *         @arg @ref LL_GPIO_PIN_6
 257:Drivers/STM32L1xx_HAL_Driver/Inc/stm32l1xx_ll_gpio.h ****   *         @arg @ref LL_GPIO_PIN_7
 258:Drivers/STM32L1xx_HAL_Driver/Inc/stm32l1xx_ll_gpio.h ****   *         @arg @ref LL_GPIO_PIN_8
 259:Drivers/STM32L1xx_HAL_Driver/Inc/stm32l1xx_ll_gpio.h ****   *         @arg @ref LL_GPIO_PIN_9
 260:Drivers/STM32L1xx_HAL_Driver/Inc/stm32l1xx_ll_gpio.h ****   *         @arg @ref LL_GPIO_PIN_10
 261:Drivers/STM32L1xx_HAL_Driver/Inc/stm32l1xx_ll_gpio.h ****   *         @arg @ref LL_GPIO_PIN_11
 262:Drivers/STM32L1xx_HAL_Driver/Inc/stm32l1xx_ll_gpio.h ****   *         @arg @ref LL_GPIO_PIN_12
 263:Drivers/STM32L1xx_HAL_Driver/Inc/stm32l1xx_ll_gpio.h ****   *         @arg @ref LL_GPIO_PIN_13
 264:Drivers/STM32L1xx_HAL_Driver/Inc/stm32l1xx_ll_gpio.h ****   *         @arg @ref LL_GPIO_PIN_14
 265:Drivers/STM32L1xx_HAL_Driver/Inc/stm32l1xx_ll_gpio.h ****   *         @arg @ref LL_GPIO_PIN_15
 266:Drivers/STM32L1xx_HAL_Driver/Inc/stm32l1xx_ll_gpio.h ****   * @param  Mode This parameter can be one of the following values:
 267:Drivers/STM32L1xx_HAL_Driver/Inc/stm32l1xx_ll_gpio.h ****   *         @arg @ref LL_GPIO_MODE_INPUT
 268:Drivers/STM32L1xx_HAL_Driver/Inc/stm32l1xx_ll_gpio.h ****   *         @arg @ref LL_GPIO_MODE_OUTPUT
 269:Drivers/STM32L1xx_HAL_Driver/Inc/stm32l1xx_ll_gpio.h ****   *         @arg @ref LL_GPIO_MODE_ALTERNATE
 270:Drivers/STM32L1xx_HAL_Driver/Inc/stm32l1xx_ll_gpio.h ****   *         @arg @ref LL_GPIO_MODE_ANALOG
 271:Drivers/STM32L1xx_HAL_Driver/Inc/stm32l1xx_ll_gpio.h ****   * @retval None
 272:Drivers/STM32L1xx_HAL_Driver/Inc/stm32l1xx_ll_gpio.h ****   */
 273:Drivers/STM32L1xx_HAL_Driver/Inc/stm32l1xx_ll_gpio.h **** __STATIC_INLINE void LL_GPIO_SetPinMode(GPIO_TypeDef *GPIOx, uint32_t Pin, uint32_t Mode)
 274:Drivers/STM32L1xx_HAL_Driver/Inc/stm32l1xx_ll_gpio.h **** {
 275:Drivers/STM32L1xx_HAL_Driver/Inc/stm32l1xx_ll_gpio.h ****   MODIFY_REG(GPIOx->MODER, (GPIO_MODER_MODER0 << (POSITION_VAL(Pin) * 2U)), (Mode << (POSITION_VAL(
 276:Drivers/STM32L1xx_HAL_Driver/Inc/stm32l1xx_ll_gpio.h **** }
 277:Drivers/STM32L1xx_HAL_Driver/Inc/stm32l1xx_ll_gpio.h **** 
 278:Drivers/STM32L1xx_HAL_Driver/Inc/stm32l1xx_ll_gpio.h **** /**
 279:Drivers/STM32L1xx_HAL_Driver/Inc/stm32l1xx_ll_gpio.h ****   * @brief  Return gpio mode for a dedicated pin on dedicated port.
 280:Drivers/STM32L1xx_HAL_Driver/Inc/stm32l1xx_ll_gpio.h ****   * @note   I/O mode can be Input mode, General purpose output, Alternate function mode or Analog.
 281:Drivers/STM32L1xx_HAL_Driver/Inc/stm32l1xx_ll_gpio.h ****   * @note   Warning: only one pin can be passed as parameter.
 282:Drivers/STM32L1xx_HAL_Driver/Inc/stm32l1xx_ll_gpio.h ****   * @rmtoll MODER        MODEy         LL_GPIO_GetPinMode
 283:Drivers/STM32L1xx_HAL_Driver/Inc/stm32l1xx_ll_gpio.h ****   * @param  GPIOx GPIO Port
 284:Drivers/STM32L1xx_HAL_Driver/Inc/stm32l1xx_ll_gpio.h ****   * @param  Pin This parameter can be one of the following values:
 285:Drivers/STM32L1xx_HAL_Driver/Inc/stm32l1xx_ll_gpio.h ****   *         @arg @ref LL_GPIO_PIN_0
 286:Drivers/STM32L1xx_HAL_Driver/Inc/stm32l1xx_ll_gpio.h ****   *         @arg @ref LL_GPIO_PIN_1
 287:Drivers/STM32L1xx_HAL_Driver/Inc/stm32l1xx_ll_gpio.h ****   *         @arg @ref LL_GPIO_PIN_2
 288:Drivers/STM32L1xx_HAL_Driver/Inc/stm32l1xx_ll_gpio.h ****   *         @arg @ref LL_GPIO_PIN_3
 289:Drivers/STM32L1xx_HAL_Driver/Inc/stm32l1xx_ll_gpio.h ****   *         @arg @ref LL_GPIO_PIN_4
ARM GAS  /tmp/ccGQLaMr.s 			page 8


 290:Drivers/STM32L1xx_HAL_Driver/Inc/stm32l1xx_ll_gpio.h ****   *         @arg @ref LL_GPIO_PIN_5
 291:Drivers/STM32L1xx_HAL_Driver/Inc/stm32l1xx_ll_gpio.h ****   *         @arg @ref LL_GPIO_PIN_6
 292:Drivers/STM32L1xx_HAL_Driver/Inc/stm32l1xx_ll_gpio.h ****   *         @arg @ref LL_GPIO_PIN_7
 293:Drivers/STM32L1xx_HAL_Driver/Inc/stm32l1xx_ll_gpio.h ****   *         @arg @ref LL_GPIO_PIN_8
 294:Drivers/STM32L1xx_HAL_Driver/Inc/stm32l1xx_ll_gpio.h ****   *         @arg @ref LL_GPIO_PIN_9
 295:Drivers/STM32L1xx_HAL_Driver/Inc/stm32l1xx_ll_gpio.h ****   *         @arg @ref LL_GPIO_PIN_10
 296:Drivers/STM32L1xx_HAL_Driver/Inc/stm32l1xx_ll_gpio.h ****   *         @arg @ref LL_GPIO_PIN_11
 297:Drivers/STM32L1xx_HAL_Driver/Inc/stm32l1xx_ll_gpio.h ****   *         @arg @ref LL_GPIO_PIN_12
 298:Drivers/STM32L1xx_HAL_Driver/Inc/stm32l1xx_ll_gpio.h ****   *         @arg @ref LL_GPIO_PIN_13
 299:Drivers/STM32L1xx_HAL_Driver/Inc/stm32l1xx_ll_gpio.h ****   *         @arg @ref LL_GPIO_PIN_14
 300:Drivers/STM32L1xx_HAL_Driver/Inc/stm32l1xx_ll_gpio.h ****   *         @arg @ref LL_GPIO_PIN_15
 301:Drivers/STM32L1xx_HAL_Driver/Inc/stm32l1xx_ll_gpio.h ****   * @retval Returned value can be one of the following values:
 302:Drivers/STM32L1xx_HAL_Driver/Inc/stm32l1xx_ll_gpio.h ****   *         @arg @ref LL_GPIO_MODE_INPUT
 303:Drivers/STM32L1xx_HAL_Driver/Inc/stm32l1xx_ll_gpio.h ****   *         @arg @ref LL_GPIO_MODE_OUTPUT
 304:Drivers/STM32L1xx_HAL_Driver/Inc/stm32l1xx_ll_gpio.h ****   *         @arg @ref LL_GPIO_MODE_ALTERNATE
 305:Drivers/STM32L1xx_HAL_Driver/Inc/stm32l1xx_ll_gpio.h ****   *         @arg @ref LL_GPIO_MODE_ANALOG
 306:Drivers/STM32L1xx_HAL_Driver/Inc/stm32l1xx_ll_gpio.h ****   */
 307:Drivers/STM32L1xx_HAL_Driver/Inc/stm32l1xx_ll_gpio.h **** __STATIC_INLINE uint32_t LL_GPIO_GetPinMode(GPIO_TypeDef *GPIOx, uint32_t Pin)
 308:Drivers/STM32L1xx_HAL_Driver/Inc/stm32l1xx_ll_gpio.h **** {
 309:Drivers/STM32L1xx_HAL_Driver/Inc/stm32l1xx_ll_gpio.h ****   return (uint32_t)(READ_BIT(GPIOx->MODER,
 310:Drivers/STM32L1xx_HAL_Driver/Inc/stm32l1xx_ll_gpio.h ****                              (GPIO_MODER_MODER0 << (POSITION_VAL(Pin) * 2U))) >> (POSITION_VAL(Pin)
 311:Drivers/STM32L1xx_HAL_Driver/Inc/stm32l1xx_ll_gpio.h **** }
 312:Drivers/STM32L1xx_HAL_Driver/Inc/stm32l1xx_ll_gpio.h **** 
 313:Drivers/STM32L1xx_HAL_Driver/Inc/stm32l1xx_ll_gpio.h **** /**
 314:Drivers/STM32L1xx_HAL_Driver/Inc/stm32l1xx_ll_gpio.h ****   * @brief  Configure gpio output type for several pins on dedicated port.
 315:Drivers/STM32L1xx_HAL_Driver/Inc/stm32l1xx_ll_gpio.h ****   * @note   Output type as to be set when gpio pin is in output or
 316:Drivers/STM32L1xx_HAL_Driver/Inc/stm32l1xx_ll_gpio.h ****   *         alternate modes. Possible type are Push-pull or Open-drain.
 317:Drivers/STM32L1xx_HAL_Driver/Inc/stm32l1xx_ll_gpio.h ****   * @rmtoll OTYPER       OTy           LL_GPIO_SetPinOutputType
 318:Drivers/STM32L1xx_HAL_Driver/Inc/stm32l1xx_ll_gpio.h ****   * @param  GPIOx GPIO Port
 319:Drivers/STM32L1xx_HAL_Driver/Inc/stm32l1xx_ll_gpio.h ****   * @param  PinMask This parameter can be a combination of the following values:
 320:Drivers/STM32L1xx_HAL_Driver/Inc/stm32l1xx_ll_gpio.h ****   *         @arg @ref LL_GPIO_PIN_0
 321:Drivers/STM32L1xx_HAL_Driver/Inc/stm32l1xx_ll_gpio.h ****   *         @arg @ref LL_GPIO_PIN_1
 322:Drivers/STM32L1xx_HAL_Driver/Inc/stm32l1xx_ll_gpio.h ****   *         @arg @ref LL_GPIO_PIN_2
 323:Drivers/STM32L1xx_HAL_Driver/Inc/stm32l1xx_ll_gpio.h ****   *         @arg @ref LL_GPIO_PIN_3
 324:Drivers/STM32L1xx_HAL_Driver/Inc/stm32l1xx_ll_gpio.h ****   *         @arg @ref LL_GPIO_PIN_4
 325:Drivers/STM32L1xx_HAL_Driver/Inc/stm32l1xx_ll_gpio.h ****   *         @arg @ref LL_GPIO_PIN_5
 326:Drivers/STM32L1xx_HAL_Driver/Inc/stm32l1xx_ll_gpio.h ****   *         @arg @ref LL_GPIO_PIN_6
 327:Drivers/STM32L1xx_HAL_Driver/Inc/stm32l1xx_ll_gpio.h ****   *         @arg @ref LL_GPIO_PIN_7
 328:Drivers/STM32L1xx_HAL_Driver/Inc/stm32l1xx_ll_gpio.h ****   *         @arg @ref LL_GPIO_PIN_8
 329:Drivers/STM32L1xx_HAL_Driver/Inc/stm32l1xx_ll_gpio.h ****   *         @arg @ref LL_GPIO_PIN_9
 330:Drivers/STM32L1xx_HAL_Driver/Inc/stm32l1xx_ll_gpio.h ****   *         @arg @ref LL_GPIO_PIN_10
 331:Drivers/STM32L1xx_HAL_Driver/Inc/stm32l1xx_ll_gpio.h ****   *         @arg @ref LL_GPIO_PIN_11
 332:Drivers/STM32L1xx_HAL_Driver/Inc/stm32l1xx_ll_gpio.h ****   *         @arg @ref LL_GPIO_PIN_12
 333:Drivers/STM32L1xx_HAL_Driver/Inc/stm32l1xx_ll_gpio.h ****   *         @arg @ref LL_GPIO_PIN_13
 334:Drivers/STM32L1xx_HAL_Driver/Inc/stm32l1xx_ll_gpio.h ****   *         @arg @ref LL_GPIO_PIN_14
 335:Drivers/STM32L1xx_HAL_Driver/Inc/stm32l1xx_ll_gpio.h ****   *         @arg @ref LL_GPIO_PIN_15
 336:Drivers/STM32L1xx_HAL_Driver/Inc/stm32l1xx_ll_gpio.h ****   *         @arg @ref LL_GPIO_PIN_ALL
 337:Drivers/STM32L1xx_HAL_Driver/Inc/stm32l1xx_ll_gpio.h ****   * @param  OutputType This parameter can be one of the following values:
 338:Drivers/STM32L1xx_HAL_Driver/Inc/stm32l1xx_ll_gpio.h ****   *         @arg @ref LL_GPIO_OUTPUT_PUSHPULL
 339:Drivers/STM32L1xx_HAL_Driver/Inc/stm32l1xx_ll_gpio.h ****   *         @arg @ref LL_GPIO_OUTPUT_OPENDRAIN
 340:Drivers/STM32L1xx_HAL_Driver/Inc/stm32l1xx_ll_gpio.h ****   * @retval None
 341:Drivers/STM32L1xx_HAL_Driver/Inc/stm32l1xx_ll_gpio.h ****   */
 342:Drivers/STM32L1xx_HAL_Driver/Inc/stm32l1xx_ll_gpio.h **** __STATIC_INLINE void LL_GPIO_SetPinOutputType(GPIO_TypeDef *GPIOx, uint32_t PinMask, uint32_t Outpu
 343:Drivers/STM32L1xx_HAL_Driver/Inc/stm32l1xx_ll_gpio.h **** {
 344:Drivers/STM32L1xx_HAL_Driver/Inc/stm32l1xx_ll_gpio.h ****   MODIFY_REG(GPIOx->OTYPER, PinMask, (PinMask * OutputType));
 345:Drivers/STM32L1xx_HAL_Driver/Inc/stm32l1xx_ll_gpio.h **** }
 346:Drivers/STM32L1xx_HAL_Driver/Inc/stm32l1xx_ll_gpio.h **** 
ARM GAS  /tmp/ccGQLaMr.s 			page 9


 347:Drivers/STM32L1xx_HAL_Driver/Inc/stm32l1xx_ll_gpio.h **** /**
 348:Drivers/STM32L1xx_HAL_Driver/Inc/stm32l1xx_ll_gpio.h ****   * @brief  Return gpio output type for several pins on dedicated port.
 349:Drivers/STM32L1xx_HAL_Driver/Inc/stm32l1xx_ll_gpio.h ****   * @note   Output type as to be set when gpio pin is in output or
 350:Drivers/STM32L1xx_HAL_Driver/Inc/stm32l1xx_ll_gpio.h ****   *         alternate modes. Possible type are Push-pull or Open-drain.
 351:Drivers/STM32L1xx_HAL_Driver/Inc/stm32l1xx_ll_gpio.h ****   * @note   Warning: only one pin can be passed as parameter.
 352:Drivers/STM32L1xx_HAL_Driver/Inc/stm32l1xx_ll_gpio.h ****   * @rmtoll OTYPER       OTy           LL_GPIO_GetPinOutputType
 353:Drivers/STM32L1xx_HAL_Driver/Inc/stm32l1xx_ll_gpio.h ****   * @param  GPIOx GPIO Port
 354:Drivers/STM32L1xx_HAL_Driver/Inc/stm32l1xx_ll_gpio.h ****   * @param  Pin This parameter can be one of the following values:
 355:Drivers/STM32L1xx_HAL_Driver/Inc/stm32l1xx_ll_gpio.h ****   *         @arg @ref LL_GPIO_PIN_0
 356:Drivers/STM32L1xx_HAL_Driver/Inc/stm32l1xx_ll_gpio.h ****   *         @arg @ref LL_GPIO_PIN_1
 357:Drivers/STM32L1xx_HAL_Driver/Inc/stm32l1xx_ll_gpio.h ****   *         @arg @ref LL_GPIO_PIN_2
 358:Drivers/STM32L1xx_HAL_Driver/Inc/stm32l1xx_ll_gpio.h ****   *         @arg @ref LL_GPIO_PIN_3
 359:Drivers/STM32L1xx_HAL_Driver/Inc/stm32l1xx_ll_gpio.h ****   *         @arg @ref LL_GPIO_PIN_4
 360:Drivers/STM32L1xx_HAL_Driver/Inc/stm32l1xx_ll_gpio.h ****   *         @arg @ref LL_GPIO_PIN_5
 361:Drivers/STM32L1xx_HAL_Driver/Inc/stm32l1xx_ll_gpio.h ****   *         @arg @ref LL_GPIO_PIN_6
 362:Drivers/STM32L1xx_HAL_Driver/Inc/stm32l1xx_ll_gpio.h ****   *         @arg @ref LL_GPIO_PIN_7
 363:Drivers/STM32L1xx_HAL_Driver/Inc/stm32l1xx_ll_gpio.h ****   *         @arg @ref LL_GPIO_PIN_8
 364:Drivers/STM32L1xx_HAL_Driver/Inc/stm32l1xx_ll_gpio.h ****   *         @arg @ref LL_GPIO_PIN_9
 365:Drivers/STM32L1xx_HAL_Driver/Inc/stm32l1xx_ll_gpio.h ****   *         @arg @ref LL_GPIO_PIN_10
 366:Drivers/STM32L1xx_HAL_Driver/Inc/stm32l1xx_ll_gpio.h ****   *         @arg @ref LL_GPIO_PIN_11
 367:Drivers/STM32L1xx_HAL_Driver/Inc/stm32l1xx_ll_gpio.h ****   *         @arg @ref LL_GPIO_PIN_12
 368:Drivers/STM32L1xx_HAL_Driver/Inc/stm32l1xx_ll_gpio.h ****   *         @arg @ref LL_GPIO_PIN_13
 369:Drivers/STM32L1xx_HAL_Driver/Inc/stm32l1xx_ll_gpio.h ****   *         @arg @ref LL_GPIO_PIN_14
 370:Drivers/STM32L1xx_HAL_Driver/Inc/stm32l1xx_ll_gpio.h ****   *         @arg @ref LL_GPIO_PIN_15
 371:Drivers/STM32L1xx_HAL_Driver/Inc/stm32l1xx_ll_gpio.h ****   *         @arg @ref LL_GPIO_PIN_ALL
 372:Drivers/STM32L1xx_HAL_Driver/Inc/stm32l1xx_ll_gpio.h ****   * @retval Returned value can be one of the following values:
 373:Drivers/STM32L1xx_HAL_Driver/Inc/stm32l1xx_ll_gpio.h ****   *         @arg @ref LL_GPIO_OUTPUT_PUSHPULL
 374:Drivers/STM32L1xx_HAL_Driver/Inc/stm32l1xx_ll_gpio.h ****   *         @arg @ref LL_GPIO_OUTPUT_OPENDRAIN
 375:Drivers/STM32L1xx_HAL_Driver/Inc/stm32l1xx_ll_gpio.h ****   */
 376:Drivers/STM32L1xx_HAL_Driver/Inc/stm32l1xx_ll_gpio.h **** __STATIC_INLINE uint32_t LL_GPIO_GetPinOutputType(GPIO_TypeDef *GPIOx, uint32_t Pin)
 377:Drivers/STM32L1xx_HAL_Driver/Inc/stm32l1xx_ll_gpio.h **** {
 378:Drivers/STM32L1xx_HAL_Driver/Inc/stm32l1xx_ll_gpio.h ****   return (uint32_t)(READ_BIT(GPIOx->OTYPER, Pin) >> POSITION_VAL(Pin));
 379:Drivers/STM32L1xx_HAL_Driver/Inc/stm32l1xx_ll_gpio.h **** }
 380:Drivers/STM32L1xx_HAL_Driver/Inc/stm32l1xx_ll_gpio.h **** 
 381:Drivers/STM32L1xx_HAL_Driver/Inc/stm32l1xx_ll_gpio.h **** /**
 382:Drivers/STM32L1xx_HAL_Driver/Inc/stm32l1xx_ll_gpio.h ****   * @brief  Configure gpio speed for a dedicated pin on dedicated port.
 383:Drivers/STM32L1xx_HAL_Driver/Inc/stm32l1xx_ll_gpio.h ****   * @note   I/O speed can be Low, Medium, Fast or High speed.
 384:Drivers/STM32L1xx_HAL_Driver/Inc/stm32l1xx_ll_gpio.h ****   * @note   Warning: only one pin can be passed as parameter.
 385:Drivers/STM32L1xx_HAL_Driver/Inc/stm32l1xx_ll_gpio.h ****   * @note   Refer to datasheet for frequency specifications and the power
 386:Drivers/STM32L1xx_HAL_Driver/Inc/stm32l1xx_ll_gpio.h ****   *         supply and load conditions for each speed.
 387:Drivers/STM32L1xx_HAL_Driver/Inc/stm32l1xx_ll_gpio.h ****   * @rmtoll OSPEEDR      OSPEEDy       LL_GPIO_SetPinSpeed
 388:Drivers/STM32L1xx_HAL_Driver/Inc/stm32l1xx_ll_gpio.h ****   * @param  GPIOx GPIO Port
 389:Drivers/STM32L1xx_HAL_Driver/Inc/stm32l1xx_ll_gpio.h ****   * @param  Pin This parameter can be one of the following values:
 390:Drivers/STM32L1xx_HAL_Driver/Inc/stm32l1xx_ll_gpio.h ****   *         @arg @ref LL_GPIO_PIN_0
 391:Drivers/STM32L1xx_HAL_Driver/Inc/stm32l1xx_ll_gpio.h ****   *         @arg @ref LL_GPIO_PIN_1
 392:Drivers/STM32L1xx_HAL_Driver/Inc/stm32l1xx_ll_gpio.h ****   *         @arg @ref LL_GPIO_PIN_2
 393:Drivers/STM32L1xx_HAL_Driver/Inc/stm32l1xx_ll_gpio.h ****   *         @arg @ref LL_GPIO_PIN_3
 394:Drivers/STM32L1xx_HAL_Driver/Inc/stm32l1xx_ll_gpio.h ****   *         @arg @ref LL_GPIO_PIN_4
 395:Drivers/STM32L1xx_HAL_Driver/Inc/stm32l1xx_ll_gpio.h ****   *         @arg @ref LL_GPIO_PIN_5
 396:Drivers/STM32L1xx_HAL_Driver/Inc/stm32l1xx_ll_gpio.h ****   *         @arg @ref LL_GPIO_PIN_6
 397:Drivers/STM32L1xx_HAL_Driver/Inc/stm32l1xx_ll_gpio.h ****   *         @arg @ref LL_GPIO_PIN_7
 398:Drivers/STM32L1xx_HAL_Driver/Inc/stm32l1xx_ll_gpio.h ****   *         @arg @ref LL_GPIO_PIN_8
 399:Drivers/STM32L1xx_HAL_Driver/Inc/stm32l1xx_ll_gpio.h ****   *         @arg @ref LL_GPIO_PIN_9
 400:Drivers/STM32L1xx_HAL_Driver/Inc/stm32l1xx_ll_gpio.h ****   *         @arg @ref LL_GPIO_PIN_10
 401:Drivers/STM32L1xx_HAL_Driver/Inc/stm32l1xx_ll_gpio.h ****   *         @arg @ref LL_GPIO_PIN_11
 402:Drivers/STM32L1xx_HAL_Driver/Inc/stm32l1xx_ll_gpio.h ****   *         @arg @ref LL_GPIO_PIN_12
 403:Drivers/STM32L1xx_HAL_Driver/Inc/stm32l1xx_ll_gpio.h ****   *         @arg @ref LL_GPIO_PIN_13
ARM GAS  /tmp/ccGQLaMr.s 			page 10


 404:Drivers/STM32L1xx_HAL_Driver/Inc/stm32l1xx_ll_gpio.h ****   *         @arg @ref LL_GPIO_PIN_14
 405:Drivers/STM32L1xx_HAL_Driver/Inc/stm32l1xx_ll_gpio.h ****   *         @arg @ref LL_GPIO_PIN_15
 406:Drivers/STM32L1xx_HAL_Driver/Inc/stm32l1xx_ll_gpio.h ****   * @param  Speed This parameter can be one of the following values:
 407:Drivers/STM32L1xx_HAL_Driver/Inc/stm32l1xx_ll_gpio.h ****   *         @arg @ref LL_GPIO_SPEED_FREQ_LOW
 408:Drivers/STM32L1xx_HAL_Driver/Inc/stm32l1xx_ll_gpio.h ****   *         @arg @ref LL_GPIO_SPEED_FREQ_MEDIUM
 409:Drivers/STM32L1xx_HAL_Driver/Inc/stm32l1xx_ll_gpio.h ****   *         @arg @ref LL_GPIO_SPEED_FREQ_HIGH
 410:Drivers/STM32L1xx_HAL_Driver/Inc/stm32l1xx_ll_gpio.h ****   *         @arg @ref LL_GPIO_SPEED_FREQ_VERY_HIGH
 411:Drivers/STM32L1xx_HAL_Driver/Inc/stm32l1xx_ll_gpio.h ****   * @retval None
 412:Drivers/STM32L1xx_HAL_Driver/Inc/stm32l1xx_ll_gpio.h ****   */
 413:Drivers/STM32L1xx_HAL_Driver/Inc/stm32l1xx_ll_gpio.h **** __STATIC_INLINE void LL_GPIO_SetPinSpeed(GPIO_TypeDef *GPIOx, uint32_t Pin, uint32_t  Speed)
 414:Drivers/STM32L1xx_HAL_Driver/Inc/stm32l1xx_ll_gpio.h **** {
 415:Drivers/STM32L1xx_HAL_Driver/Inc/stm32l1xx_ll_gpio.h ****   MODIFY_REG(GPIOx->OSPEEDR, (GPIO_OSPEEDER_OSPEEDR0 << (POSITION_VAL(Pin) * 2U)),
 416:Drivers/STM32L1xx_HAL_Driver/Inc/stm32l1xx_ll_gpio.h ****              (Speed << (POSITION_VAL(Pin) * 2U)));
 417:Drivers/STM32L1xx_HAL_Driver/Inc/stm32l1xx_ll_gpio.h **** }
 418:Drivers/STM32L1xx_HAL_Driver/Inc/stm32l1xx_ll_gpio.h **** 
 419:Drivers/STM32L1xx_HAL_Driver/Inc/stm32l1xx_ll_gpio.h **** /**
 420:Drivers/STM32L1xx_HAL_Driver/Inc/stm32l1xx_ll_gpio.h ****   * @brief  Return gpio speed for a dedicated pin on dedicated port.
 421:Drivers/STM32L1xx_HAL_Driver/Inc/stm32l1xx_ll_gpio.h ****   * @note   I/O speed can be Low, Medium, Fast or High speed.
 422:Drivers/STM32L1xx_HAL_Driver/Inc/stm32l1xx_ll_gpio.h ****   * @note   Warning: only one pin can be passed as parameter.
 423:Drivers/STM32L1xx_HAL_Driver/Inc/stm32l1xx_ll_gpio.h ****   * @note   Refer to datasheet for frequency specifications and the power
 424:Drivers/STM32L1xx_HAL_Driver/Inc/stm32l1xx_ll_gpio.h ****   *         supply and load conditions for each speed.
 425:Drivers/STM32L1xx_HAL_Driver/Inc/stm32l1xx_ll_gpio.h ****   * @rmtoll OSPEEDR      OSPEEDy       LL_GPIO_GetPinSpeed
 426:Drivers/STM32L1xx_HAL_Driver/Inc/stm32l1xx_ll_gpio.h ****   * @param  GPIOx GPIO Port
 427:Drivers/STM32L1xx_HAL_Driver/Inc/stm32l1xx_ll_gpio.h ****   * @param  Pin This parameter can be one of the following values:
 428:Drivers/STM32L1xx_HAL_Driver/Inc/stm32l1xx_ll_gpio.h ****   *         @arg @ref LL_GPIO_PIN_0
 429:Drivers/STM32L1xx_HAL_Driver/Inc/stm32l1xx_ll_gpio.h ****   *         @arg @ref LL_GPIO_PIN_1
 430:Drivers/STM32L1xx_HAL_Driver/Inc/stm32l1xx_ll_gpio.h ****   *         @arg @ref LL_GPIO_PIN_2
 431:Drivers/STM32L1xx_HAL_Driver/Inc/stm32l1xx_ll_gpio.h ****   *         @arg @ref LL_GPIO_PIN_3
 432:Drivers/STM32L1xx_HAL_Driver/Inc/stm32l1xx_ll_gpio.h ****   *         @arg @ref LL_GPIO_PIN_4
 433:Drivers/STM32L1xx_HAL_Driver/Inc/stm32l1xx_ll_gpio.h ****   *         @arg @ref LL_GPIO_PIN_5
 434:Drivers/STM32L1xx_HAL_Driver/Inc/stm32l1xx_ll_gpio.h ****   *         @arg @ref LL_GPIO_PIN_6
 435:Drivers/STM32L1xx_HAL_Driver/Inc/stm32l1xx_ll_gpio.h ****   *         @arg @ref LL_GPIO_PIN_7
 436:Drivers/STM32L1xx_HAL_Driver/Inc/stm32l1xx_ll_gpio.h ****   *         @arg @ref LL_GPIO_PIN_8
 437:Drivers/STM32L1xx_HAL_Driver/Inc/stm32l1xx_ll_gpio.h ****   *         @arg @ref LL_GPIO_PIN_9
 438:Drivers/STM32L1xx_HAL_Driver/Inc/stm32l1xx_ll_gpio.h ****   *         @arg @ref LL_GPIO_PIN_10
 439:Drivers/STM32L1xx_HAL_Driver/Inc/stm32l1xx_ll_gpio.h ****   *         @arg @ref LL_GPIO_PIN_11
 440:Drivers/STM32L1xx_HAL_Driver/Inc/stm32l1xx_ll_gpio.h ****   *         @arg @ref LL_GPIO_PIN_12
 441:Drivers/STM32L1xx_HAL_Driver/Inc/stm32l1xx_ll_gpio.h ****   *         @arg @ref LL_GPIO_PIN_13
 442:Drivers/STM32L1xx_HAL_Driver/Inc/stm32l1xx_ll_gpio.h ****   *         @arg @ref LL_GPIO_PIN_14
 443:Drivers/STM32L1xx_HAL_Driver/Inc/stm32l1xx_ll_gpio.h ****   *         @arg @ref LL_GPIO_PIN_15
 444:Drivers/STM32L1xx_HAL_Driver/Inc/stm32l1xx_ll_gpio.h ****   * @retval Returned value can be one of the following values:
 445:Drivers/STM32L1xx_HAL_Driver/Inc/stm32l1xx_ll_gpio.h ****   *         @arg @ref LL_GPIO_SPEED_FREQ_LOW
 446:Drivers/STM32L1xx_HAL_Driver/Inc/stm32l1xx_ll_gpio.h ****   *         @arg @ref LL_GPIO_SPEED_FREQ_MEDIUM
 447:Drivers/STM32L1xx_HAL_Driver/Inc/stm32l1xx_ll_gpio.h ****   *         @arg @ref LL_GPIO_SPEED_FREQ_HIGH
 448:Drivers/STM32L1xx_HAL_Driver/Inc/stm32l1xx_ll_gpio.h ****   *         @arg @ref LL_GPIO_SPEED_FREQ_VERY_HIGH
 449:Drivers/STM32L1xx_HAL_Driver/Inc/stm32l1xx_ll_gpio.h ****   */
 450:Drivers/STM32L1xx_HAL_Driver/Inc/stm32l1xx_ll_gpio.h **** __STATIC_INLINE uint32_t LL_GPIO_GetPinSpeed(GPIO_TypeDef *GPIOx, uint32_t Pin)
 451:Drivers/STM32L1xx_HAL_Driver/Inc/stm32l1xx_ll_gpio.h **** {
 452:Drivers/STM32L1xx_HAL_Driver/Inc/stm32l1xx_ll_gpio.h ****   return (uint32_t)(READ_BIT(GPIOx->OSPEEDR,
 453:Drivers/STM32L1xx_HAL_Driver/Inc/stm32l1xx_ll_gpio.h ****                              (GPIO_OSPEEDER_OSPEEDR0 << (POSITION_VAL(Pin) * 2U))) >> (POSITION_VAL
 454:Drivers/STM32L1xx_HAL_Driver/Inc/stm32l1xx_ll_gpio.h **** }
 455:Drivers/STM32L1xx_HAL_Driver/Inc/stm32l1xx_ll_gpio.h **** 
 456:Drivers/STM32L1xx_HAL_Driver/Inc/stm32l1xx_ll_gpio.h **** /**
 457:Drivers/STM32L1xx_HAL_Driver/Inc/stm32l1xx_ll_gpio.h ****   * @brief  Configure gpio pull-up or pull-down for a dedicated pin on a dedicated port.
 458:Drivers/STM32L1xx_HAL_Driver/Inc/stm32l1xx_ll_gpio.h ****   * @note   Warning: only one pin can be passed as parameter.
 459:Drivers/STM32L1xx_HAL_Driver/Inc/stm32l1xx_ll_gpio.h ****   * @rmtoll PUPDR        PUPDy         LL_GPIO_SetPinPull
 460:Drivers/STM32L1xx_HAL_Driver/Inc/stm32l1xx_ll_gpio.h ****   * @param  GPIOx GPIO Port
ARM GAS  /tmp/ccGQLaMr.s 			page 11


 461:Drivers/STM32L1xx_HAL_Driver/Inc/stm32l1xx_ll_gpio.h ****   * @param  Pin This parameter can be one of the following values:
 462:Drivers/STM32L1xx_HAL_Driver/Inc/stm32l1xx_ll_gpio.h ****   *         @arg @ref LL_GPIO_PIN_0
 463:Drivers/STM32L1xx_HAL_Driver/Inc/stm32l1xx_ll_gpio.h ****   *         @arg @ref LL_GPIO_PIN_1
 464:Drivers/STM32L1xx_HAL_Driver/Inc/stm32l1xx_ll_gpio.h ****   *         @arg @ref LL_GPIO_PIN_2
 465:Drivers/STM32L1xx_HAL_Driver/Inc/stm32l1xx_ll_gpio.h ****   *         @arg @ref LL_GPIO_PIN_3
 466:Drivers/STM32L1xx_HAL_Driver/Inc/stm32l1xx_ll_gpio.h ****   *         @arg @ref LL_GPIO_PIN_4
 467:Drivers/STM32L1xx_HAL_Driver/Inc/stm32l1xx_ll_gpio.h ****   *         @arg @ref LL_GPIO_PIN_5
 468:Drivers/STM32L1xx_HAL_Driver/Inc/stm32l1xx_ll_gpio.h ****   *         @arg @ref LL_GPIO_PIN_6
 469:Drivers/STM32L1xx_HAL_Driver/Inc/stm32l1xx_ll_gpio.h ****   *         @arg @ref LL_GPIO_PIN_7
 470:Drivers/STM32L1xx_HAL_Driver/Inc/stm32l1xx_ll_gpio.h ****   *         @arg @ref LL_GPIO_PIN_8
 471:Drivers/STM32L1xx_HAL_Driver/Inc/stm32l1xx_ll_gpio.h ****   *         @arg @ref LL_GPIO_PIN_9
 472:Drivers/STM32L1xx_HAL_Driver/Inc/stm32l1xx_ll_gpio.h ****   *         @arg @ref LL_GPIO_PIN_10
 473:Drivers/STM32L1xx_HAL_Driver/Inc/stm32l1xx_ll_gpio.h ****   *         @arg @ref LL_GPIO_PIN_11
 474:Drivers/STM32L1xx_HAL_Driver/Inc/stm32l1xx_ll_gpio.h ****   *         @arg @ref LL_GPIO_PIN_12
 475:Drivers/STM32L1xx_HAL_Driver/Inc/stm32l1xx_ll_gpio.h ****   *         @arg @ref LL_GPIO_PIN_13
 476:Drivers/STM32L1xx_HAL_Driver/Inc/stm32l1xx_ll_gpio.h ****   *         @arg @ref LL_GPIO_PIN_14
 477:Drivers/STM32L1xx_HAL_Driver/Inc/stm32l1xx_ll_gpio.h ****   *         @arg @ref LL_GPIO_PIN_15
 478:Drivers/STM32L1xx_HAL_Driver/Inc/stm32l1xx_ll_gpio.h ****   * @param  Pull This parameter can be one of the following values:
 479:Drivers/STM32L1xx_HAL_Driver/Inc/stm32l1xx_ll_gpio.h ****   *         @arg @ref LL_GPIO_PULL_NO
 480:Drivers/STM32L1xx_HAL_Driver/Inc/stm32l1xx_ll_gpio.h ****   *         @arg @ref LL_GPIO_PULL_UP
 481:Drivers/STM32L1xx_HAL_Driver/Inc/stm32l1xx_ll_gpio.h ****   *         @arg @ref LL_GPIO_PULL_DOWN
 482:Drivers/STM32L1xx_HAL_Driver/Inc/stm32l1xx_ll_gpio.h ****   * @retval None
 483:Drivers/STM32L1xx_HAL_Driver/Inc/stm32l1xx_ll_gpio.h ****   */
 484:Drivers/STM32L1xx_HAL_Driver/Inc/stm32l1xx_ll_gpio.h **** __STATIC_INLINE void LL_GPIO_SetPinPull(GPIO_TypeDef *GPIOx, uint32_t Pin, uint32_t Pull)
 485:Drivers/STM32L1xx_HAL_Driver/Inc/stm32l1xx_ll_gpio.h **** {
 486:Drivers/STM32L1xx_HAL_Driver/Inc/stm32l1xx_ll_gpio.h ****   MODIFY_REG(GPIOx->PUPDR, (GPIO_PUPDR_PUPDR0 << (POSITION_VAL(Pin) * 2U)), (Pull << (POSITION_VAL(
 487:Drivers/STM32L1xx_HAL_Driver/Inc/stm32l1xx_ll_gpio.h **** }
 488:Drivers/STM32L1xx_HAL_Driver/Inc/stm32l1xx_ll_gpio.h **** 
 489:Drivers/STM32L1xx_HAL_Driver/Inc/stm32l1xx_ll_gpio.h **** /**
 490:Drivers/STM32L1xx_HAL_Driver/Inc/stm32l1xx_ll_gpio.h ****   * @brief  Return gpio pull-up or pull-down for a dedicated pin on a dedicated port
 491:Drivers/STM32L1xx_HAL_Driver/Inc/stm32l1xx_ll_gpio.h ****   * @note   Warning: only one pin can be passed as parameter.
 492:Drivers/STM32L1xx_HAL_Driver/Inc/stm32l1xx_ll_gpio.h ****   * @rmtoll PUPDR        PUPDy         LL_GPIO_GetPinPull
 493:Drivers/STM32L1xx_HAL_Driver/Inc/stm32l1xx_ll_gpio.h ****   * @param  GPIOx GPIO Port
 494:Drivers/STM32L1xx_HAL_Driver/Inc/stm32l1xx_ll_gpio.h ****   * @param  Pin This parameter can be one of the following values:
 495:Drivers/STM32L1xx_HAL_Driver/Inc/stm32l1xx_ll_gpio.h ****   *         @arg @ref LL_GPIO_PIN_0
 496:Drivers/STM32L1xx_HAL_Driver/Inc/stm32l1xx_ll_gpio.h ****   *         @arg @ref LL_GPIO_PIN_1
 497:Drivers/STM32L1xx_HAL_Driver/Inc/stm32l1xx_ll_gpio.h ****   *         @arg @ref LL_GPIO_PIN_2
 498:Drivers/STM32L1xx_HAL_Driver/Inc/stm32l1xx_ll_gpio.h ****   *         @arg @ref LL_GPIO_PIN_3
 499:Drivers/STM32L1xx_HAL_Driver/Inc/stm32l1xx_ll_gpio.h ****   *         @arg @ref LL_GPIO_PIN_4
 500:Drivers/STM32L1xx_HAL_Driver/Inc/stm32l1xx_ll_gpio.h ****   *         @arg @ref LL_GPIO_PIN_5
 501:Drivers/STM32L1xx_HAL_Driver/Inc/stm32l1xx_ll_gpio.h ****   *         @arg @ref LL_GPIO_PIN_6
 502:Drivers/STM32L1xx_HAL_Driver/Inc/stm32l1xx_ll_gpio.h ****   *         @arg @ref LL_GPIO_PIN_7
 503:Drivers/STM32L1xx_HAL_Driver/Inc/stm32l1xx_ll_gpio.h ****   *         @arg @ref LL_GPIO_PIN_8
 504:Drivers/STM32L1xx_HAL_Driver/Inc/stm32l1xx_ll_gpio.h ****   *         @arg @ref LL_GPIO_PIN_9
 505:Drivers/STM32L1xx_HAL_Driver/Inc/stm32l1xx_ll_gpio.h ****   *         @arg @ref LL_GPIO_PIN_10
 506:Drivers/STM32L1xx_HAL_Driver/Inc/stm32l1xx_ll_gpio.h ****   *         @arg @ref LL_GPIO_PIN_11
 507:Drivers/STM32L1xx_HAL_Driver/Inc/stm32l1xx_ll_gpio.h ****   *         @arg @ref LL_GPIO_PIN_12
 508:Drivers/STM32L1xx_HAL_Driver/Inc/stm32l1xx_ll_gpio.h ****   *         @arg @ref LL_GPIO_PIN_13
 509:Drivers/STM32L1xx_HAL_Driver/Inc/stm32l1xx_ll_gpio.h ****   *         @arg @ref LL_GPIO_PIN_14
 510:Drivers/STM32L1xx_HAL_Driver/Inc/stm32l1xx_ll_gpio.h ****   *         @arg @ref LL_GPIO_PIN_15
 511:Drivers/STM32L1xx_HAL_Driver/Inc/stm32l1xx_ll_gpio.h ****   * @retval Returned value can be one of the following values:
 512:Drivers/STM32L1xx_HAL_Driver/Inc/stm32l1xx_ll_gpio.h ****   *         @arg @ref LL_GPIO_PULL_NO
 513:Drivers/STM32L1xx_HAL_Driver/Inc/stm32l1xx_ll_gpio.h ****   *         @arg @ref LL_GPIO_PULL_UP
 514:Drivers/STM32L1xx_HAL_Driver/Inc/stm32l1xx_ll_gpio.h ****   *         @arg @ref LL_GPIO_PULL_DOWN
 515:Drivers/STM32L1xx_HAL_Driver/Inc/stm32l1xx_ll_gpio.h ****   */
 516:Drivers/STM32L1xx_HAL_Driver/Inc/stm32l1xx_ll_gpio.h **** __STATIC_INLINE uint32_t LL_GPIO_GetPinPull(GPIO_TypeDef *GPIOx, uint32_t Pin)
 517:Drivers/STM32L1xx_HAL_Driver/Inc/stm32l1xx_ll_gpio.h **** {
ARM GAS  /tmp/ccGQLaMr.s 			page 12


 518:Drivers/STM32L1xx_HAL_Driver/Inc/stm32l1xx_ll_gpio.h ****   return (uint32_t)(READ_BIT(GPIOx->PUPDR,
 519:Drivers/STM32L1xx_HAL_Driver/Inc/stm32l1xx_ll_gpio.h ****                              (GPIO_PUPDR_PUPDR0 << (POSITION_VAL(Pin) * 2U))) >> (POSITION_VAL(Pin)
 520:Drivers/STM32L1xx_HAL_Driver/Inc/stm32l1xx_ll_gpio.h **** }
 521:Drivers/STM32L1xx_HAL_Driver/Inc/stm32l1xx_ll_gpio.h **** 
 522:Drivers/STM32L1xx_HAL_Driver/Inc/stm32l1xx_ll_gpio.h **** /**
 523:Drivers/STM32L1xx_HAL_Driver/Inc/stm32l1xx_ll_gpio.h ****   * @brief  Configure gpio alternate function of a dedicated pin from 0 to 7 for a dedicated port.
 524:Drivers/STM32L1xx_HAL_Driver/Inc/stm32l1xx_ll_gpio.h ****   * @note   Possible values are from AF0 to AF15 depending on target.
 525:Drivers/STM32L1xx_HAL_Driver/Inc/stm32l1xx_ll_gpio.h ****   * @note   Warning: only one pin can be passed as parameter.
 526:Drivers/STM32L1xx_HAL_Driver/Inc/stm32l1xx_ll_gpio.h ****   * @rmtoll AFRL         AFSELy        LL_GPIO_SetAFPin_0_7
 527:Drivers/STM32L1xx_HAL_Driver/Inc/stm32l1xx_ll_gpio.h ****   * @param  GPIOx GPIO Port
 528:Drivers/STM32L1xx_HAL_Driver/Inc/stm32l1xx_ll_gpio.h ****   * @param  Pin This parameter can be one of the following values:
 529:Drivers/STM32L1xx_HAL_Driver/Inc/stm32l1xx_ll_gpio.h ****   *         @arg @ref LL_GPIO_PIN_0
 530:Drivers/STM32L1xx_HAL_Driver/Inc/stm32l1xx_ll_gpio.h ****   *         @arg @ref LL_GPIO_PIN_1
 531:Drivers/STM32L1xx_HAL_Driver/Inc/stm32l1xx_ll_gpio.h ****   *         @arg @ref LL_GPIO_PIN_2
 532:Drivers/STM32L1xx_HAL_Driver/Inc/stm32l1xx_ll_gpio.h ****   *         @arg @ref LL_GPIO_PIN_3
 533:Drivers/STM32L1xx_HAL_Driver/Inc/stm32l1xx_ll_gpio.h ****   *         @arg @ref LL_GPIO_PIN_4
 534:Drivers/STM32L1xx_HAL_Driver/Inc/stm32l1xx_ll_gpio.h ****   *         @arg @ref LL_GPIO_PIN_5
 535:Drivers/STM32L1xx_HAL_Driver/Inc/stm32l1xx_ll_gpio.h ****   *         @arg @ref LL_GPIO_PIN_6
 536:Drivers/STM32L1xx_HAL_Driver/Inc/stm32l1xx_ll_gpio.h ****   *         @arg @ref LL_GPIO_PIN_7
 537:Drivers/STM32L1xx_HAL_Driver/Inc/stm32l1xx_ll_gpio.h ****   * @param  Alternate This parameter can be one of the following values:
 538:Drivers/STM32L1xx_HAL_Driver/Inc/stm32l1xx_ll_gpio.h ****   *         @arg @ref LL_GPIO_AF_0
 539:Drivers/STM32L1xx_HAL_Driver/Inc/stm32l1xx_ll_gpio.h ****   *         @arg @ref LL_GPIO_AF_1
 540:Drivers/STM32L1xx_HAL_Driver/Inc/stm32l1xx_ll_gpio.h ****   *         @arg @ref LL_GPIO_AF_2
 541:Drivers/STM32L1xx_HAL_Driver/Inc/stm32l1xx_ll_gpio.h ****   *         @arg @ref LL_GPIO_AF_3
 542:Drivers/STM32L1xx_HAL_Driver/Inc/stm32l1xx_ll_gpio.h ****   *         @arg @ref LL_GPIO_AF_4
 543:Drivers/STM32L1xx_HAL_Driver/Inc/stm32l1xx_ll_gpio.h ****   *         @arg @ref LL_GPIO_AF_5
 544:Drivers/STM32L1xx_HAL_Driver/Inc/stm32l1xx_ll_gpio.h ****   *         @arg @ref LL_GPIO_AF_6
 545:Drivers/STM32L1xx_HAL_Driver/Inc/stm32l1xx_ll_gpio.h ****   *         @arg @ref LL_GPIO_AF_7
 546:Drivers/STM32L1xx_HAL_Driver/Inc/stm32l1xx_ll_gpio.h ****   *         @arg @ref LL_GPIO_AF_8
 547:Drivers/STM32L1xx_HAL_Driver/Inc/stm32l1xx_ll_gpio.h ****   *         @arg @ref LL_GPIO_AF_9
 548:Drivers/STM32L1xx_HAL_Driver/Inc/stm32l1xx_ll_gpio.h ****   *         @arg @ref LL_GPIO_AF_10
 549:Drivers/STM32L1xx_HAL_Driver/Inc/stm32l1xx_ll_gpio.h ****   *         @arg @ref LL_GPIO_AF_11
 550:Drivers/STM32L1xx_HAL_Driver/Inc/stm32l1xx_ll_gpio.h ****   *         @arg @ref LL_GPIO_AF_12
 551:Drivers/STM32L1xx_HAL_Driver/Inc/stm32l1xx_ll_gpio.h ****   *         @arg @ref LL_GPIO_AF_13
 552:Drivers/STM32L1xx_HAL_Driver/Inc/stm32l1xx_ll_gpio.h ****   *         @arg @ref LL_GPIO_AF_14
 553:Drivers/STM32L1xx_HAL_Driver/Inc/stm32l1xx_ll_gpio.h ****   *         @arg @ref LL_GPIO_AF_15
 554:Drivers/STM32L1xx_HAL_Driver/Inc/stm32l1xx_ll_gpio.h ****   * @retval None
 555:Drivers/STM32L1xx_HAL_Driver/Inc/stm32l1xx_ll_gpio.h ****   */
 556:Drivers/STM32L1xx_HAL_Driver/Inc/stm32l1xx_ll_gpio.h **** __STATIC_INLINE void LL_GPIO_SetAFPin_0_7(GPIO_TypeDef *GPIOx, uint32_t Pin, uint32_t Alternate)
 557:Drivers/STM32L1xx_HAL_Driver/Inc/stm32l1xx_ll_gpio.h **** {
 558:Drivers/STM32L1xx_HAL_Driver/Inc/stm32l1xx_ll_gpio.h ****   MODIFY_REG(GPIOx->AFR[0], (GPIO_AFRL_AFSEL0 << (POSITION_VAL(Pin) * 4U)),
 559:Drivers/STM32L1xx_HAL_Driver/Inc/stm32l1xx_ll_gpio.h ****              (Alternate << (POSITION_VAL(Pin) * 4U)));
 560:Drivers/STM32L1xx_HAL_Driver/Inc/stm32l1xx_ll_gpio.h **** }
 561:Drivers/STM32L1xx_HAL_Driver/Inc/stm32l1xx_ll_gpio.h **** 
 562:Drivers/STM32L1xx_HAL_Driver/Inc/stm32l1xx_ll_gpio.h **** /**
 563:Drivers/STM32L1xx_HAL_Driver/Inc/stm32l1xx_ll_gpio.h ****   * @brief  Return gpio alternate function of a dedicated pin from 0 to 7 for a dedicated port.
 564:Drivers/STM32L1xx_HAL_Driver/Inc/stm32l1xx_ll_gpio.h ****   * @rmtoll AFRL         AFSELy        LL_GPIO_GetAFPin_0_7
 565:Drivers/STM32L1xx_HAL_Driver/Inc/stm32l1xx_ll_gpio.h ****   * @param  GPIOx GPIO Port
 566:Drivers/STM32L1xx_HAL_Driver/Inc/stm32l1xx_ll_gpio.h ****   * @param  Pin This parameter can be one of the following values:
 567:Drivers/STM32L1xx_HAL_Driver/Inc/stm32l1xx_ll_gpio.h ****   *         @arg @ref LL_GPIO_PIN_0
 568:Drivers/STM32L1xx_HAL_Driver/Inc/stm32l1xx_ll_gpio.h ****   *         @arg @ref LL_GPIO_PIN_1
 569:Drivers/STM32L1xx_HAL_Driver/Inc/stm32l1xx_ll_gpio.h ****   *         @arg @ref LL_GPIO_PIN_2
 570:Drivers/STM32L1xx_HAL_Driver/Inc/stm32l1xx_ll_gpio.h ****   *         @arg @ref LL_GPIO_PIN_3
 571:Drivers/STM32L1xx_HAL_Driver/Inc/stm32l1xx_ll_gpio.h ****   *         @arg @ref LL_GPIO_PIN_4
 572:Drivers/STM32L1xx_HAL_Driver/Inc/stm32l1xx_ll_gpio.h ****   *         @arg @ref LL_GPIO_PIN_5
 573:Drivers/STM32L1xx_HAL_Driver/Inc/stm32l1xx_ll_gpio.h ****   *         @arg @ref LL_GPIO_PIN_6
 574:Drivers/STM32L1xx_HAL_Driver/Inc/stm32l1xx_ll_gpio.h ****   *         @arg @ref LL_GPIO_PIN_7
ARM GAS  /tmp/ccGQLaMr.s 			page 13


 575:Drivers/STM32L1xx_HAL_Driver/Inc/stm32l1xx_ll_gpio.h ****   * @retval Returned value can be one of the following values:
 576:Drivers/STM32L1xx_HAL_Driver/Inc/stm32l1xx_ll_gpio.h ****   *         @arg @ref LL_GPIO_AF_0
 577:Drivers/STM32L1xx_HAL_Driver/Inc/stm32l1xx_ll_gpio.h ****   *         @arg @ref LL_GPIO_AF_1
 578:Drivers/STM32L1xx_HAL_Driver/Inc/stm32l1xx_ll_gpio.h ****   *         @arg @ref LL_GPIO_AF_2
 579:Drivers/STM32L1xx_HAL_Driver/Inc/stm32l1xx_ll_gpio.h ****   *         @arg @ref LL_GPIO_AF_3
 580:Drivers/STM32L1xx_HAL_Driver/Inc/stm32l1xx_ll_gpio.h ****   *         @arg @ref LL_GPIO_AF_4
 581:Drivers/STM32L1xx_HAL_Driver/Inc/stm32l1xx_ll_gpio.h ****   *         @arg @ref LL_GPIO_AF_5
 582:Drivers/STM32L1xx_HAL_Driver/Inc/stm32l1xx_ll_gpio.h ****   *         @arg @ref LL_GPIO_AF_6
 583:Drivers/STM32L1xx_HAL_Driver/Inc/stm32l1xx_ll_gpio.h ****   *         @arg @ref LL_GPIO_AF_7
 584:Drivers/STM32L1xx_HAL_Driver/Inc/stm32l1xx_ll_gpio.h ****   *         @arg @ref LL_GPIO_AF_8
 585:Drivers/STM32L1xx_HAL_Driver/Inc/stm32l1xx_ll_gpio.h ****   *         @arg @ref LL_GPIO_AF_9
 586:Drivers/STM32L1xx_HAL_Driver/Inc/stm32l1xx_ll_gpio.h ****   *         @arg @ref LL_GPIO_AF_10
 587:Drivers/STM32L1xx_HAL_Driver/Inc/stm32l1xx_ll_gpio.h ****   *         @arg @ref LL_GPIO_AF_11
 588:Drivers/STM32L1xx_HAL_Driver/Inc/stm32l1xx_ll_gpio.h ****   *         @arg @ref LL_GPIO_AF_12
 589:Drivers/STM32L1xx_HAL_Driver/Inc/stm32l1xx_ll_gpio.h ****   *         @arg @ref LL_GPIO_AF_13
 590:Drivers/STM32L1xx_HAL_Driver/Inc/stm32l1xx_ll_gpio.h ****   *         @arg @ref LL_GPIO_AF_14
 591:Drivers/STM32L1xx_HAL_Driver/Inc/stm32l1xx_ll_gpio.h ****   *         @arg @ref LL_GPIO_AF_15
 592:Drivers/STM32L1xx_HAL_Driver/Inc/stm32l1xx_ll_gpio.h ****   */
 593:Drivers/STM32L1xx_HAL_Driver/Inc/stm32l1xx_ll_gpio.h **** __STATIC_INLINE uint32_t LL_GPIO_GetAFPin_0_7(GPIO_TypeDef *GPIOx, uint32_t Pin)
 594:Drivers/STM32L1xx_HAL_Driver/Inc/stm32l1xx_ll_gpio.h **** {
 595:Drivers/STM32L1xx_HAL_Driver/Inc/stm32l1xx_ll_gpio.h ****   return (uint32_t)(READ_BIT(GPIOx->AFR[0],
 596:Drivers/STM32L1xx_HAL_Driver/Inc/stm32l1xx_ll_gpio.h ****                              (GPIO_AFRL_AFSEL0 << (POSITION_VAL(Pin) * 4U))) >> (POSITION_VAL(Pin) 
 597:Drivers/STM32L1xx_HAL_Driver/Inc/stm32l1xx_ll_gpio.h **** }
 598:Drivers/STM32L1xx_HAL_Driver/Inc/stm32l1xx_ll_gpio.h **** 
 599:Drivers/STM32L1xx_HAL_Driver/Inc/stm32l1xx_ll_gpio.h **** /**
 600:Drivers/STM32L1xx_HAL_Driver/Inc/stm32l1xx_ll_gpio.h ****   * @brief  Configure gpio alternate function of a dedicated pin from 8 to 15 for a dedicated port.
 601:Drivers/STM32L1xx_HAL_Driver/Inc/stm32l1xx_ll_gpio.h ****   * @note   Possible values are from AF0 to AF15 depending on target.
 602:Drivers/STM32L1xx_HAL_Driver/Inc/stm32l1xx_ll_gpio.h ****   * @note   Warning: only one pin can be passed as parameter.
 603:Drivers/STM32L1xx_HAL_Driver/Inc/stm32l1xx_ll_gpio.h ****   * @rmtoll AFRH         AFSELy        LL_GPIO_SetAFPin_8_15
 604:Drivers/STM32L1xx_HAL_Driver/Inc/stm32l1xx_ll_gpio.h ****   * @param  GPIOx GPIO Port
 605:Drivers/STM32L1xx_HAL_Driver/Inc/stm32l1xx_ll_gpio.h ****   * @param  Pin This parameter can be one of the following values:
 606:Drivers/STM32L1xx_HAL_Driver/Inc/stm32l1xx_ll_gpio.h ****   *         @arg @ref LL_GPIO_PIN_8
 607:Drivers/STM32L1xx_HAL_Driver/Inc/stm32l1xx_ll_gpio.h ****   *         @arg @ref LL_GPIO_PIN_9
 608:Drivers/STM32L1xx_HAL_Driver/Inc/stm32l1xx_ll_gpio.h ****   *         @arg @ref LL_GPIO_PIN_10
 609:Drivers/STM32L1xx_HAL_Driver/Inc/stm32l1xx_ll_gpio.h ****   *         @arg @ref LL_GPIO_PIN_11
 610:Drivers/STM32L1xx_HAL_Driver/Inc/stm32l1xx_ll_gpio.h ****   *         @arg @ref LL_GPIO_PIN_12
 611:Drivers/STM32L1xx_HAL_Driver/Inc/stm32l1xx_ll_gpio.h ****   *         @arg @ref LL_GPIO_PIN_13
 612:Drivers/STM32L1xx_HAL_Driver/Inc/stm32l1xx_ll_gpio.h ****   *         @arg @ref LL_GPIO_PIN_14
 613:Drivers/STM32L1xx_HAL_Driver/Inc/stm32l1xx_ll_gpio.h ****   *         @arg @ref LL_GPIO_PIN_15
 614:Drivers/STM32L1xx_HAL_Driver/Inc/stm32l1xx_ll_gpio.h ****   * @param  Alternate This parameter can be one of the following values:
 615:Drivers/STM32L1xx_HAL_Driver/Inc/stm32l1xx_ll_gpio.h ****   *         @arg @ref LL_GPIO_AF_0
 616:Drivers/STM32L1xx_HAL_Driver/Inc/stm32l1xx_ll_gpio.h ****   *         @arg @ref LL_GPIO_AF_1
 617:Drivers/STM32L1xx_HAL_Driver/Inc/stm32l1xx_ll_gpio.h ****   *         @arg @ref LL_GPIO_AF_2
 618:Drivers/STM32L1xx_HAL_Driver/Inc/stm32l1xx_ll_gpio.h ****   *         @arg @ref LL_GPIO_AF_3
 619:Drivers/STM32L1xx_HAL_Driver/Inc/stm32l1xx_ll_gpio.h ****   *         @arg @ref LL_GPIO_AF_4
 620:Drivers/STM32L1xx_HAL_Driver/Inc/stm32l1xx_ll_gpio.h ****   *         @arg @ref LL_GPIO_AF_5
 621:Drivers/STM32L1xx_HAL_Driver/Inc/stm32l1xx_ll_gpio.h ****   *         @arg @ref LL_GPIO_AF_6
 622:Drivers/STM32L1xx_HAL_Driver/Inc/stm32l1xx_ll_gpio.h ****   *         @arg @ref LL_GPIO_AF_7
 623:Drivers/STM32L1xx_HAL_Driver/Inc/stm32l1xx_ll_gpio.h ****   *         @arg @ref LL_GPIO_AF_8
 624:Drivers/STM32L1xx_HAL_Driver/Inc/stm32l1xx_ll_gpio.h ****   *         @arg @ref LL_GPIO_AF_9
 625:Drivers/STM32L1xx_HAL_Driver/Inc/stm32l1xx_ll_gpio.h ****   *         @arg @ref LL_GPIO_AF_10
 626:Drivers/STM32L1xx_HAL_Driver/Inc/stm32l1xx_ll_gpio.h ****   *         @arg @ref LL_GPIO_AF_11
 627:Drivers/STM32L1xx_HAL_Driver/Inc/stm32l1xx_ll_gpio.h ****   *         @arg @ref LL_GPIO_AF_12
 628:Drivers/STM32L1xx_HAL_Driver/Inc/stm32l1xx_ll_gpio.h ****   *         @arg @ref LL_GPIO_AF_13
 629:Drivers/STM32L1xx_HAL_Driver/Inc/stm32l1xx_ll_gpio.h ****   *         @arg @ref LL_GPIO_AF_14
 630:Drivers/STM32L1xx_HAL_Driver/Inc/stm32l1xx_ll_gpio.h ****   *         @arg @ref LL_GPIO_AF_15
 631:Drivers/STM32L1xx_HAL_Driver/Inc/stm32l1xx_ll_gpio.h ****   * @retval None
ARM GAS  /tmp/ccGQLaMr.s 			page 14


 632:Drivers/STM32L1xx_HAL_Driver/Inc/stm32l1xx_ll_gpio.h ****   */
 633:Drivers/STM32L1xx_HAL_Driver/Inc/stm32l1xx_ll_gpio.h **** __STATIC_INLINE void LL_GPIO_SetAFPin_8_15(GPIO_TypeDef *GPIOx, uint32_t Pin, uint32_t Alternate)
 634:Drivers/STM32L1xx_HAL_Driver/Inc/stm32l1xx_ll_gpio.h **** {
 635:Drivers/STM32L1xx_HAL_Driver/Inc/stm32l1xx_ll_gpio.h ****   MODIFY_REG(GPIOx->AFR[1], (GPIO_AFRH_AFSEL8 << (POSITION_VAL(Pin >> 8U) * 4U)),
 636:Drivers/STM32L1xx_HAL_Driver/Inc/stm32l1xx_ll_gpio.h ****              (Alternate << (POSITION_VAL(Pin >> 8U) * 4U)));
 637:Drivers/STM32L1xx_HAL_Driver/Inc/stm32l1xx_ll_gpio.h **** }
 638:Drivers/STM32L1xx_HAL_Driver/Inc/stm32l1xx_ll_gpio.h **** 
 639:Drivers/STM32L1xx_HAL_Driver/Inc/stm32l1xx_ll_gpio.h **** /**
 640:Drivers/STM32L1xx_HAL_Driver/Inc/stm32l1xx_ll_gpio.h ****   * @brief  Return gpio alternate function of a dedicated pin from 8 to 15 for a dedicated port.
 641:Drivers/STM32L1xx_HAL_Driver/Inc/stm32l1xx_ll_gpio.h ****   * @note   Possible values are from AF0 to AF15 depending on target.
 642:Drivers/STM32L1xx_HAL_Driver/Inc/stm32l1xx_ll_gpio.h ****   * @rmtoll AFRH         AFSELy        LL_GPIO_GetAFPin_8_15
 643:Drivers/STM32L1xx_HAL_Driver/Inc/stm32l1xx_ll_gpio.h ****   * @param  GPIOx GPIO Port
 644:Drivers/STM32L1xx_HAL_Driver/Inc/stm32l1xx_ll_gpio.h ****   * @param  Pin This parameter can be one of the following values:
 645:Drivers/STM32L1xx_HAL_Driver/Inc/stm32l1xx_ll_gpio.h ****   *         @arg @ref LL_GPIO_PIN_8
 646:Drivers/STM32L1xx_HAL_Driver/Inc/stm32l1xx_ll_gpio.h ****   *         @arg @ref LL_GPIO_PIN_9
 647:Drivers/STM32L1xx_HAL_Driver/Inc/stm32l1xx_ll_gpio.h ****   *         @arg @ref LL_GPIO_PIN_10
 648:Drivers/STM32L1xx_HAL_Driver/Inc/stm32l1xx_ll_gpio.h ****   *         @arg @ref LL_GPIO_PIN_11
 649:Drivers/STM32L1xx_HAL_Driver/Inc/stm32l1xx_ll_gpio.h ****   *         @arg @ref LL_GPIO_PIN_12
 650:Drivers/STM32L1xx_HAL_Driver/Inc/stm32l1xx_ll_gpio.h ****   *         @arg @ref LL_GPIO_PIN_13
 651:Drivers/STM32L1xx_HAL_Driver/Inc/stm32l1xx_ll_gpio.h ****   *         @arg @ref LL_GPIO_PIN_14
 652:Drivers/STM32L1xx_HAL_Driver/Inc/stm32l1xx_ll_gpio.h ****   *         @arg @ref LL_GPIO_PIN_15
 653:Drivers/STM32L1xx_HAL_Driver/Inc/stm32l1xx_ll_gpio.h ****   * @retval Returned value can be one of the following values:
 654:Drivers/STM32L1xx_HAL_Driver/Inc/stm32l1xx_ll_gpio.h ****   *         @arg @ref LL_GPIO_AF_0
 655:Drivers/STM32L1xx_HAL_Driver/Inc/stm32l1xx_ll_gpio.h ****   *         @arg @ref LL_GPIO_AF_1
 656:Drivers/STM32L1xx_HAL_Driver/Inc/stm32l1xx_ll_gpio.h ****   *         @arg @ref LL_GPIO_AF_2
 657:Drivers/STM32L1xx_HAL_Driver/Inc/stm32l1xx_ll_gpio.h ****   *         @arg @ref LL_GPIO_AF_3
 658:Drivers/STM32L1xx_HAL_Driver/Inc/stm32l1xx_ll_gpio.h ****   *         @arg @ref LL_GPIO_AF_4
 659:Drivers/STM32L1xx_HAL_Driver/Inc/stm32l1xx_ll_gpio.h ****   *         @arg @ref LL_GPIO_AF_5
 660:Drivers/STM32L1xx_HAL_Driver/Inc/stm32l1xx_ll_gpio.h ****   *         @arg @ref LL_GPIO_AF_6
 661:Drivers/STM32L1xx_HAL_Driver/Inc/stm32l1xx_ll_gpio.h ****   *         @arg @ref LL_GPIO_AF_7
 662:Drivers/STM32L1xx_HAL_Driver/Inc/stm32l1xx_ll_gpio.h ****   *         @arg @ref LL_GPIO_AF_8
 663:Drivers/STM32L1xx_HAL_Driver/Inc/stm32l1xx_ll_gpio.h ****   *         @arg @ref LL_GPIO_AF_9
 664:Drivers/STM32L1xx_HAL_Driver/Inc/stm32l1xx_ll_gpio.h ****   *         @arg @ref LL_GPIO_AF_10
 665:Drivers/STM32L1xx_HAL_Driver/Inc/stm32l1xx_ll_gpio.h ****   *         @arg @ref LL_GPIO_AF_11
 666:Drivers/STM32L1xx_HAL_Driver/Inc/stm32l1xx_ll_gpio.h ****   *         @arg @ref LL_GPIO_AF_12
 667:Drivers/STM32L1xx_HAL_Driver/Inc/stm32l1xx_ll_gpio.h ****   *         @arg @ref LL_GPIO_AF_13
 668:Drivers/STM32L1xx_HAL_Driver/Inc/stm32l1xx_ll_gpio.h ****   *         @arg @ref LL_GPIO_AF_14
 669:Drivers/STM32L1xx_HAL_Driver/Inc/stm32l1xx_ll_gpio.h ****   *         @arg @ref LL_GPIO_AF_15
 670:Drivers/STM32L1xx_HAL_Driver/Inc/stm32l1xx_ll_gpio.h ****   */
 671:Drivers/STM32L1xx_HAL_Driver/Inc/stm32l1xx_ll_gpio.h **** __STATIC_INLINE uint32_t LL_GPIO_GetAFPin_8_15(GPIO_TypeDef *GPIOx, uint32_t Pin)
 672:Drivers/STM32L1xx_HAL_Driver/Inc/stm32l1xx_ll_gpio.h **** {
 673:Drivers/STM32L1xx_HAL_Driver/Inc/stm32l1xx_ll_gpio.h ****   return (uint32_t)(READ_BIT(GPIOx->AFR[1],
 674:Drivers/STM32L1xx_HAL_Driver/Inc/stm32l1xx_ll_gpio.h ****                              (GPIO_AFRH_AFSEL8 << (POSITION_VAL(Pin >> 8U) * 4U))) >> (POSITION_VAL
 675:Drivers/STM32L1xx_HAL_Driver/Inc/stm32l1xx_ll_gpio.h **** }
 676:Drivers/STM32L1xx_HAL_Driver/Inc/stm32l1xx_ll_gpio.h **** 
 677:Drivers/STM32L1xx_HAL_Driver/Inc/stm32l1xx_ll_gpio.h **** 
 678:Drivers/STM32L1xx_HAL_Driver/Inc/stm32l1xx_ll_gpio.h **** /**
 679:Drivers/STM32L1xx_HAL_Driver/Inc/stm32l1xx_ll_gpio.h ****   * @brief  Lock configuration of several pins for a dedicated port.
 680:Drivers/STM32L1xx_HAL_Driver/Inc/stm32l1xx_ll_gpio.h ****   * @note   When the lock sequence has been applied on a port bit, the
 681:Drivers/STM32L1xx_HAL_Driver/Inc/stm32l1xx_ll_gpio.h ****   *         value of this port bit can no longer be modified until the
 682:Drivers/STM32L1xx_HAL_Driver/Inc/stm32l1xx_ll_gpio.h ****   *         next reset.
 683:Drivers/STM32L1xx_HAL_Driver/Inc/stm32l1xx_ll_gpio.h ****   * @note   Each lock bit freezes a specific configuration register
 684:Drivers/STM32L1xx_HAL_Driver/Inc/stm32l1xx_ll_gpio.h ****   *         (control and alternate function registers).
 685:Drivers/STM32L1xx_HAL_Driver/Inc/stm32l1xx_ll_gpio.h ****   * @rmtoll LCKR         LCKK          LL_GPIO_LockPin
 686:Drivers/STM32L1xx_HAL_Driver/Inc/stm32l1xx_ll_gpio.h ****   * @param  GPIOx GPIO Port
 687:Drivers/STM32L1xx_HAL_Driver/Inc/stm32l1xx_ll_gpio.h ****   * @param  PinMask This parameter can be a combination of the following values:
 688:Drivers/STM32L1xx_HAL_Driver/Inc/stm32l1xx_ll_gpio.h ****   *         @arg @ref LL_GPIO_PIN_0
ARM GAS  /tmp/ccGQLaMr.s 			page 15


 689:Drivers/STM32L1xx_HAL_Driver/Inc/stm32l1xx_ll_gpio.h ****   *         @arg @ref LL_GPIO_PIN_1
 690:Drivers/STM32L1xx_HAL_Driver/Inc/stm32l1xx_ll_gpio.h ****   *         @arg @ref LL_GPIO_PIN_2
 691:Drivers/STM32L1xx_HAL_Driver/Inc/stm32l1xx_ll_gpio.h ****   *         @arg @ref LL_GPIO_PIN_3
 692:Drivers/STM32L1xx_HAL_Driver/Inc/stm32l1xx_ll_gpio.h ****   *         @arg @ref LL_GPIO_PIN_4
 693:Drivers/STM32L1xx_HAL_Driver/Inc/stm32l1xx_ll_gpio.h ****   *         @arg @ref LL_GPIO_PIN_5
 694:Drivers/STM32L1xx_HAL_Driver/Inc/stm32l1xx_ll_gpio.h ****   *         @arg @ref LL_GPIO_PIN_6
 695:Drivers/STM32L1xx_HAL_Driver/Inc/stm32l1xx_ll_gpio.h ****   *         @arg @ref LL_GPIO_PIN_7
 696:Drivers/STM32L1xx_HAL_Driver/Inc/stm32l1xx_ll_gpio.h ****   *         @arg @ref LL_GPIO_PIN_8
 697:Drivers/STM32L1xx_HAL_Driver/Inc/stm32l1xx_ll_gpio.h ****   *         @arg @ref LL_GPIO_PIN_9
 698:Drivers/STM32L1xx_HAL_Driver/Inc/stm32l1xx_ll_gpio.h ****   *         @arg @ref LL_GPIO_PIN_10
 699:Drivers/STM32L1xx_HAL_Driver/Inc/stm32l1xx_ll_gpio.h ****   *         @arg @ref LL_GPIO_PIN_11
 700:Drivers/STM32L1xx_HAL_Driver/Inc/stm32l1xx_ll_gpio.h ****   *         @arg @ref LL_GPIO_PIN_12
 701:Drivers/STM32L1xx_HAL_Driver/Inc/stm32l1xx_ll_gpio.h ****   *         @arg @ref LL_GPIO_PIN_13
 702:Drivers/STM32L1xx_HAL_Driver/Inc/stm32l1xx_ll_gpio.h ****   *         @arg @ref LL_GPIO_PIN_14
 703:Drivers/STM32L1xx_HAL_Driver/Inc/stm32l1xx_ll_gpio.h ****   *         @arg @ref LL_GPIO_PIN_15
 704:Drivers/STM32L1xx_HAL_Driver/Inc/stm32l1xx_ll_gpio.h ****   *         @arg @ref LL_GPIO_PIN_ALL
 705:Drivers/STM32L1xx_HAL_Driver/Inc/stm32l1xx_ll_gpio.h ****   * @retval None
 706:Drivers/STM32L1xx_HAL_Driver/Inc/stm32l1xx_ll_gpio.h ****   */
 707:Drivers/STM32L1xx_HAL_Driver/Inc/stm32l1xx_ll_gpio.h **** __STATIC_INLINE void LL_GPIO_LockPin(GPIO_TypeDef *GPIOx, uint32_t PinMask)
 708:Drivers/STM32L1xx_HAL_Driver/Inc/stm32l1xx_ll_gpio.h **** {
 709:Drivers/STM32L1xx_HAL_Driver/Inc/stm32l1xx_ll_gpio.h ****   __IO uint32_t temp;
 710:Drivers/STM32L1xx_HAL_Driver/Inc/stm32l1xx_ll_gpio.h ****   WRITE_REG(GPIOx->LCKR, GPIO_LCKR_LCKK | PinMask);
 711:Drivers/STM32L1xx_HAL_Driver/Inc/stm32l1xx_ll_gpio.h ****   WRITE_REG(GPIOx->LCKR, PinMask);
 712:Drivers/STM32L1xx_HAL_Driver/Inc/stm32l1xx_ll_gpio.h ****   WRITE_REG(GPIOx->LCKR, GPIO_LCKR_LCKK | PinMask);
 713:Drivers/STM32L1xx_HAL_Driver/Inc/stm32l1xx_ll_gpio.h ****   /* Read LCKK register. This read is mandatory to complete key lock sequence */
 714:Drivers/STM32L1xx_HAL_Driver/Inc/stm32l1xx_ll_gpio.h ****   temp = READ_REG(GPIOx->LCKR);
 715:Drivers/STM32L1xx_HAL_Driver/Inc/stm32l1xx_ll_gpio.h ****   (void) temp;
 716:Drivers/STM32L1xx_HAL_Driver/Inc/stm32l1xx_ll_gpio.h **** }
 717:Drivers/STM32L1xx_HAL_Driver/Inc/stm32l1xx_ll_gpio.h **** 
 718:Drivers/STM32L1xx_HAL_Driver/Inc/stm32l1xx_ll_gpio.h **** /**
 719:Drivers/STM32L1xx_HAL_Driver/Inc/stm32l1xx_ll_gpio.h ****   * @brief  Return 1 if all pins passed as parameter, of a dedicated port, are locked. else Return 
 720:Drivers/STM32L1xx_HAL_Driver/Inc/stm32l1xx_ll_gpio.h ****   * @rmtoll LCKR         LCKy          LL_GPIO_IsPinLocked
 721:Drivers/STM32L1xx_HAL_Driver/Inc/stm32l1xx_ll_gpio.h ****   * @param  GPIOx GPIO Port
 722:Drivers/STM32L1xx_HAL_Driver/Inc/stm32l1xx_ll_gpio.h ****   * @param  PinMask This parameter can be a combination of the following values:
 723:Drivers/STM32L1xx_HAL_Driver/Inc/stm32l1xx_ll_gpio.h ****   *         @arg @ref LL_GPIO_PIN_0
 724:Drivers/STM32L1xx_HAL_Driver/Inc/stm32l1xx_ll_gpio.h ****   *         @arg @ref LL_GPIO_PIN_1
 725:Drivers/STM32L1xx_HAL_Driver/Inc/stm32l1xx_ll_gpio.h ****   *         @arg @ref LL_GPIO_PIN_2
 726:Drivers/STM32L1xx_HAL_Driver/Inc/stm32l1xx_ll_gpio.h ****   *         @arg @ref LL_GPIO_PIN_3
 727:Drivers/STM32L1xx_HAL_Driver/Inc/stm32l1xx_ll_gpio.h ****   *         @arg @ref LL_GPIO_PIN_4
 728:Drivers/STM32L1xx_HAL_Driver/Inc/stm32l1xx_ll_gpio.h ****   *         @arg @ref LL_GPIO_PIN_5
 729:Drivers/STM32L1xx_HAL_Driver/Inc/stm32l1xx_ll_gpio.h ****   *         @arg @ref LL_GPIO_PIN_6
 730:Drivers/STM32L1xx_HAL_Driver/Inc/stm32l1xx_ll_gpio.h ****   *         @arg @ref LL_GPIO_PIN_7
 731:Drivers/STM32L1xx_HAL_Driver/Inc/stm32l1xx_ll_gpio.h ****   *         @arg @ref LL_GPIO_PIN_8
 732:Drivers/STM32L1xx_HAL_Driver/Inc/stm32l1xx_ll_gpio.h ****   *         @arg @ref LL_GPIO_PIN_9
 733:Drivers/STM32L1xx_HAL_Driver/Inc/stm32l1xx_ll_gpio.h ****   *         @arg @ref LL_GPIO_PIN_10
 734:Drivers/STM32L1xx_HAL_Driver/Inc/stm32l1xx_ll_gpio.h ****   *         @arg @ref LL_GPIO_PIN_11
 735:Drivers/STM32L1xx_HAL_Driver/Inc/stm32l1xx_ll_gpio.h ****   *         @arg @ref LL_GPIO_PIN_12
 736:Drivers/STM32L1xx_HAL_Driver/Inc/stm32l1xx_ll_gpio.h ****   *         @arg @ref LL_GPIO_PIN_13
 737:Drivers/STM32L1xx_HAL_Driver/Inc/stm32l1xx_ll_gpio.h ****   *         @arg @ref LL_GPIO_PIN_14
 738:Drivers/STM32L1xx_HAL_Driver/Inc/stm32l1xx_ll_gpio.h ****   *         @arg @ref LL_GPIO_PIN_15
 739:Drivers/STM32L1xx_HAL_Driver/Inc/stm32l1xx_ll_gpio.h ****   *         @arg @ref LL_GPIO_PIN_ALL
 740:Drivers/STM32L1xx_HAL_Driver/Inc/stm32l1xx_ll_gpio.h ****   * @retval State of bit (1 or 0).
 741:Drivers/STM32L1xx_HAL_Driver/Inc/stm32l1xx_ll_gpio.h ****   */
 742:Drivers/STM32L1xx_HAL_Driver/Inc/stm32l1xx_ll_gpio.h **** __STATIC_INLINE uint32_t LL_GPIO_IsPinLocked(GPIO_TypeDef *GPIOx, uint32_t PinMask)
 743:Drivers/STM32L1xx_HAL_Driver/Inc/stm32l1xx_ll_gpio.h **** {
 744:Drivers/STM32L1xx_HAL_Driver/Inc/stm32l1xx_ll_gpio.h ****   return (READ_BIT(GPIOx->LCKR, PinMask) == (PinMask));
 745:Drivers/STM32L1xx_HAL_Driver/Inc/stm32l1xx_ll_gpio.h **** }
ARM GAS  /tmp/ccGQLaMr.s 			page 16


 746:Drivers/STM32L1xx_HAL_Driver/Inc/stm32l1xx_ll_gpio.h **** 
 747:Drivers/STM32L1xx_HAL_Driver/Inc/stm32l1xx_ll_gpio.h **** /**
 748:Drivers/STM32L1xx_HAL_Driver/Inc/stm32l1xx_ll_gpio.h ****   * @brief  Return 1 if one of the pin of a dedicated port is locked. else return 0.
 749:Drivers/STM32L1xx_HAL_Driver/Inc/stm32l1xx_ll_gpio.h ****   * @rmtoll LCKR         LCKK          LL_GPIO_IsAnyPinLocked
 750:Drivers/STM32L1xx_HAL_Driver/Inc/stm32l1xx_ll_gpio.h ****   * @param  GPIOx GPIO Port
 751:Drivers/STM32L1xx_HAL_Driver/Inc/stm32l1xx_ll_gpio.h ****   * @retval State of bit (1 or 0).
 752:Drivers/STM32L1xx_HAL_Driver/Inc/stm32l1xx_ll_gpio.h ****   */
 753:Drivers/STM32L1xx_HAL_Driver/Inc/stm32l1xx_ll_gpio.h **** __STATIC_INLINE uint32_t LL_GPIO_IsAnyPinLocked(GPIO_TypeDef *GPIOx)
 754:Drivers/STM32L1xx_HAL_Driver/Inc/stm32l1xx_ll_gpio.h **** {
 755:Drivers/STM32L1xx_HAL_Driver/Inc/stm32l1xx_ll_gpio.h ****   return (READ_BIT(GPIOx->LCKR, GPIO_LCKR_LCKK) == (GPIO_LCKR_LCKK));
 756:Drivers/STM32L1xx_HAL_Driver/Inc/stm32l1xx_ll_gpio.h **** }
 757:Drivers/STM32L1xx_HAL_Driver/Inc/stm32l1xx_ll_gpio.h **** 
 758:Drivers/STM32L1xx_HAL_Driver/Inc/stm32l1xx_ll_gpio.h **** /**
 759:Drivers/STM32L1xx_HAL_Driver/Inc/stm32l1xx_ll_gpio.h ****   * @}
 760:Drivers/STM32L1xx_HAL_Driver/Inc/stm32l1xx_ll_gpio.h ****   */
 761:Drivers/STM32L1xx_HAL_Driver/Inc/stm32l1xx_ll_gpio.h **** 
 762:Drivers/STM32L1xx_HAL_Driver/Inc/stm32l1xx_ll_gpio.h **** /** @defgroup GPIO_LL_EF_Data_Access Data Access
 763:Drivers/STM32L1xx_HAL_Driver/Inc/stm32l1xx_ll_gpio.h ****   * @{
 764:Drivers/STM32L1xx_HAL_Driver/Inc/stm32l1xx_ll_gpio.h ****   */
 765:Drivers/STM32L1xx_HAL_Driver/Inc/stm32l1xx_ll_gpio.h **** 
 766:Drivers/STM32L1xx_HAL_Driver/Inc/stm32l1xx_ll_gpio.h **** /**
 767:Drivers/STM32L1xx_HAL_Driver/Inc/stm32l1xx_ll_gpio.h ****   * @brief  Return full input data register value for a dedicated port.
 768:Drivers/STM32L1xx_HAL_Driver/Inc/stm32l1xx_ll_gpio.h ****   * @rmtoll IDR          IDy           LL_GPIO_ReadInputPort
 769:Drivers/STM32L1xx_HAL_Driver/Inc/stm32l1xx_ll_gpio.h ****   * @param  GPIOx GPIO Port
 770:Drivers/STM32L1xx_HAL_Driver/Inc/stm32l1xx_ll_gpio.h ****   * @retval Input data register value of port
 771:Drivers/STM32L1xx_HAL_Driver/Inc/stm32l1xx_ll_gpio.h ****   */
 772:Drivers/STM32L1xx_HAL_Driver/Inc/stm32l1xx_ll_gpio.h **** __STATIC_INLINE uint32_t LL_GPIO_ReadInputPort(GPIO_TypeDef *GPIOx)
 773:Drivers/STM32L1xx_HAL_Driver/Inc/stm32l1xx_ll_gpio.h **** {
 774:Drivers/STM32L1xx_HAL_Driver/Inc/stm32l1xx_ll_gpio.h ****   return (uint32_t)(READ_REG(GPIOx->IDR));
 775:Drivers/STM32L1xx_HAL_Driver/Inc/stm32l1xx_ll_gpio.h **** }
 776:Drivers/STM32L1xx_HAL_Driver/Inc/stm32l1xx_ll_gpio.h **** 
 777:Drivers/STM32L1xx_HAL_Driver/Inc/stm32l1xx_ll_gpio.h **** /**
 778:Drivers/STM32L1xx_HAL_Driver/Inc/stm32l1xx_ll_gpio.h ****   * @brief  Return if input data level for several pins of dedicated port is high or low.
 779:Drivers/STM32L1xx_HAL_Driver/Inc/stm32l1xx_ll_gpio.h ****   * @rmtoll IDR          IDy           LL_GPIO_IsInputPinSet
 780:Drivers/STM32L1xx_HAL_Driver/Inc/stm32l1xx_ll_gpio.h ****   * @param  GPIOx GPIO Port
 781:Drivers/STM32L1xx_HAL_Driver/Inc/stm32l1xx_ll_gpio.h ****   * @param  PinMask This parameter can be a combination of the following values:
 782:Drivers/STM32L1xx_HAL_Driver/Inc/stm32l1xx_ll_gpio.h ****   *         @arg @ref LL_GPIO_PIN_0
 783:Drivers/STM32L1xx_HAL_Driver/Inc/stm32l1xx_ll_gpio.h ****   *         @arg @ref LL_GPIO_PIN_1
 784:Drivers/STM32L1xx_HAL_Driver/Inc/stm32l1xx_ll_gpio.h ****   *         @arg @ref LL_GPIO_PIN_2
 785:Drivers/STM32L1xx_HAL_Driver/Inc/stm32l1xx_ll_gpio.h ****   *         @arg @ref LL_GPIO_PIN_3
 786:Drivers/STM32L1xx_HAL_Driver/Inc/stm32l1xx_ll_gpio.h ****   *         @arg @ref LL_GPIO_PIN_4
 787:Drivers/STM32L1xx_HAL_Driver/Inc/stm32l1xx_ll_gpio.h ****   *         @arg @ref LL_GPIO_PIN_5
 788:Drivers/STM32L1xx_HAL_Driver/Inc/stm32l1xx_ll_gpio.h ****   *         @arg @ref LL_GPIO_PIN_6
 789:Drivers/STM32L1xx_HAL_Driver/Inc/stm32l1xx_ll_gpio.h ****   *         @arg @ref LL_GPIO_PIN_7
 790:Drivers/STM32L1xx_HAL_Driver/Inc/stm32l1xx_ll_gpio.h ****   *         @arg @ref LL_GPIO_PIN_8
 791:Drivers/STM32L1xx_HAL_Driver/Inc/stm32l1xx_ll_gpio.h ****   *         @arg @ref LL_GPIO_PIN_9
 792:Drivers/STM32L1xx_HAL_Driver/Inc/stm32l1xx_ll_gpio.h ****   *         @arg @ref LL_GPIO_PIN_10
 793:Drivers/STM32L1xx_HAL_Driver/Inc/stm32l1xx_ll_gpio.h ****   *         @arg @ref LL_GPIO_PIN_11
 794:Drivers/STM32L1xx_HAL_Driver/Inc/stm32l1xx_ll_gpio.h ****   *         @arg @ref LL_GPIO_PIN_12
 795:Drivers/STM32L1xx_HAL_Driver/Inc/stm32l1xx_ll_gpio.h ****   *         @arg @ref LL_GPIO_PIN_13
 796:Drivers/STM32L1xx_HAL_Driver/Inc/stm32l1xx_ll_gpio.h ****   *         @arg @ref LL_GPIO_PIN_14
 797:Drivers/STM32L1xx_HAL_Driver/Inc/stm32l1xx_ll_gpio.h ****   *         @arg @ref LL_GPIO_PIN_15
 798:Drivers/STM32L1xx_HAL_Driver/Inc/stm32l1xx_ll_gpio.h ****   *         @arg @ref LL_GPIO_PIN_ALL
 799:Drivers/STM32L1xx_HAL_Driver/Inc/stm32l1xx_ll_gpio.h ****   * @retval State of bit (1 or 0).
 800:Drivers/STM32L1xx_HAL_Driver/Inc/stm32l1xx_ll_gpio.h ****   */
 801:Drivers/STM32L1xx_HAL_Driver/Inc/stm32l1xx_ll_gpio.h **** __STATIC_INLINE uint32_t LL_GPIO_IsInputPinSet(GPIO_TypeDef *GPIOx, uint32_t PinMask)
 802:Drivers/STM32L1xx_HAL_Driver/Inc/stm32l1xx_ll_gpio.h **** {
ARM GAS  /tmp/ccGQLaMr.s 			page 17


 803:Drivers/STM32L1xx_HAL_Driver/Inc/stm32l1xx_ll_gpio.h ****   return (READ_BIT(GPIOx->IDR, PinMask) == (PinMask));
 804:Drivers/STM32L1xx_HAL_Driver/Inc/stm32l1xx_ll_gpio.h **** }
 805:Drivers/STM32L1xx_HAL_Driver/Inc/stm32l1xx_ll_gpio.h **** 
 806:Drivers/STM32L1xx_HAL_Driver/Inc/stm32l1xx_ll_gpio.h **** /**
 807:Drivers/STM32L1xx_HAL_Driver/Inc/stm32l1xx_ll_gpio.h ****   * @brief  Write output data register for the port.
 808:Drivers/STM32L1xx_HAL_Driver/Inc/stm32l1xx_ll_gpio.h ****   * @rmtoll ODR          ODy           LL_GPIO_WriteOutputPort
 809:Drivers/STM32L1xx_HAL_Driver/Inc/stm32l1xx_ll_gpio.h ****   * @param  GPIOx GPIO Port
 810:Drivers/STM32L1xx_HAL_Driver/Inc/stm32l1xx_ll_gpio.h ****   * @param  PortValue Level value for each pin of the port
 811:Drivers/STM32L1xx_HAL_Driver/Inc/stm32l1xx_ll_gpio.h ****   * @retval None
 812:Drivers/STM32L1xx_HAL_Driver/Inc/stm32l1xx_ll_gpio.h ****   */
 813:Drivers/STM32L1xx_HAL_Driver/Inc/stm32l1xx_ll_gpio.h **** __STATIC_INLINE void LL_GPIO_WriteOutputPort(GPIO_TypeDef *GPIOx, uint32_t PortValue)
 814:Drivers/STM32L1xx_HAL_Driver/Inc/stm32l1xx_ll_gpio.h **** {
 815:Drivers/STM32L1xx_HAL_Driver/Inc/stm32l1xx_ll_gpio.h ****   WRITE_REG(GPIOx->ODR, PortValue);
 816:Drivers/STM32L1xx_HAL_Driver/Inc/stm32l1xx_ll_gpio.h **** }
 817:Drivers/STM32L1xx_HAL_Driver/Inc/stm32l1xx_ll_gpio.h **** 
 818:Drivers/STM32L1xx_HAL_Driver/Inc/stm32l1xx_ll_gpio.h **** /**
 819:Drivers/STM32L1xx_HAL_Driver/Inc/stm32l1xx_ll_gpio.h ****   * @brief  Return full output data register value for a dedicated port.
 820:Drivers/STM32L1xx_HAL_Driver/Inc/stm32l1xx_ll_gpio.h ****   * @rmtoll ODR          ODy           LL_GPIO_ReadOutputPort
 821:Drivers/STM32L1xx_HAL_Driver/Inc/stm32l1xx_ll_gpio.h ****   * @param  GPIOx GPIO Port
 822:Drivers/STM32L1xx_HAL_Driver/Inc/stm32l1xx_ll_gpio.h ****   * @retval Output data register value of port
 823:Drivers/STM32L1xx_HAL_Driver/Inc/stm32l1xx_ll_gpio.h ****   */
 824:Drivers/STM32L1xx_HAL_Driver/Inc/stm32l1xx_ll_gpio.h **** __STATIC_INLINE uint32_t LL_GPIO_ReadOutputPort(GPIO_TypeDef *GPIOx)
 825:Drivers/STM32L1xx_HAL_Driver/Inc/stm32l1xx_ll_gpio.h **** {
 826:Drivers/STM32L1xx_HAL_Driver/Inc/stm32l1xx_ll_gpio.h ****   return (uint32_t)(READ_REG(GPIOx->ODR));
 827:Drivers/STM32L1xx_HAL_Driver/Inc/stm32l1xx_ll_gpio.h **** }
 828:Drivers/STM32L1xx_HAL_Driver/Inc/stm32l1xx_ll_gpio.h **** 
 829:Drivers/STM32L1xx_HAL_Driver/Inc/stm32l1xx_ll_gpio.h **** /**
 830:Drivers/STM32L1xx_HAL_Driver/Inc/stm32l1xx_ll_gpio.h ****   * @brief  Return if input data level for several pins of dedicated port is high or low.
 831:Drivers/STM32L1xx_HAL_Driver/Inc/stm32l1xx_ll_gpio.h ****   * @rmtoll ODR          ODy           LL_GPIO_IsOutputPinSet
 832:Drivers/STM32L1xx_HAL_Driver/Inc/stm32l1xx_ll_gpio.h ****   * @param  GPIOx GPIO Port
 833:Drivers/STM32L1xx_HAL_Driver/Inc/stm32l1xx_ll_gpio.h ****   * @param  PinMask This parameter can be a combination of the following values:
 834:Drivers/STM32L1xx_HAL_Driver/Inc/stm32l1xx_ll_gpio.h ****   *         @arg @ref LL_GPIO_PIN_0
 835:Drivers/STM32L1xx_HAL_Driver/Inc/stm32l1xx_ll_gpio.h ****   *         @arg @ref LL_GPIO_PIN_1
 836:Drivers/STM32L1xx_HAL_Driver/Inc/stm32l1xx_ll_gpio.h ****   *         @arg @ref LL_GPIO_PIN_2
 837:Drivers/STM32L1xx_HAL_Driver/Inc/stm32l1xx_ll_gpio.h ****   *         @arg @ref LL_GPIO_PIN_3
 838:Drivers/STM32L1xx_HAL_Driver/Inc/stm32l1xx_ll_gpio.h ****   *         @arg @ref LL_GPIO_PIN_4
 839:Drivers/STM32L1xx_HAL_Driver/Inc/stm32l1xx_ll_gpio.h ****   *         @arg @ref LL_GPIO_PIN_5
 840:Drivers/STM32L1xx_HAL_Driver/Inc/stm32l1xx_ll_gpio.h ****   *         @arg @ref LL_GPIO_PIN_6
 841:Drivers/STM32L1xx_HAL_Driver/Inc/stm32l1xx_ll_gpio.h ****   *         @arg @ref LL_GPIO_PIN_7
 842:Drivers/STM32L1xx_HAL_Driver/Inc/stm32l1xx_ll_gpio.h ****   *         @arg @ref LL_GPIO_PIN_8
 843:Drivers/STM32L1xx_HAL_Driver/Inc/stm32l1xx_ll_gpio.h ****   *         @arg @ref LL_GPIO_PIN_9
 844:Drivers/STM32L1xx_HAL_Driver/Inc/stm32l1xx_ll_gpio.h ****   *         @arg @ref LL_GPIO_PIN_10
 845:Drivers/STM32L1xx_HAL_Driver/Inc/stm32l1xx_ll_gpio.h ****   *         @arg @ref LL_GPIO_PIN_11
 846:Drivers/STM32L1xx_HAL_Driver/Inc/stm32l1xx_ll_gpio.h ****   *         @arg @ref LL_GPIO_PIN_12
 847:Drivers/STM32L1xx_HAL_Driver/Inc/stm32l1xx_ll_gpio.h ****   *         @arg @ref LL_GPIO_PIN_13
 848:Drivers/STM32L1xx_HAL_Driver/Inc/stm32l1xx_ll_gpio.h ****   *         @arg @ref LL_GPIO_PIN_14
 849:Drivers/STM32L1xx_HAL_Driver/Inc/stm32l1xx_ll_gpio.h ****   *         @arg @ref LL_GPIO_PIN_15
 850:Drivers/STM32L1xx_HAL_Driver/Inc/stm32l1xx_ll_gpio.h ****   *         @arg @ref LL_GPIO_PIN_ALL
 851:Drivers/STM32L1xx_HAL_Driver/Inc/stm32l1xx_ll_gpio.h ****   * @retval State of bit (1 or 0).
 852:Drivers/STM32L1xx_HAL_Driver/Inc/stm32l1xx_ll_gpio.h ****   */
 853:Drivers/STM32L1xx_HAL_Driver/Inc/stm32l1xx_ll_gpio.h **** __STATIC_INLINE uint32_t LL_GPIO_IsOutputPinSet(GPIO_TypeDef *GPIOx, uint32_t PinMask)
 854:Drivers/STM32L1xx_HAL_Driver/Inc/stm32l1xx_ll_gpio.h **** {
 855:Drivers/STM32L1xx_HAL_Driver/Inc/stm32l1xx_ll_gpio.h ****   return (READ_BIT(GPIOx->ODR, PinMask) == (PinMask));
 856:Drivers/STM32L1xx_HAL_Driver/Inc/stm32l1xx_ll_gpio.h **** }
 857:Drivers/STM32L1xx_HAL_Driver/Inc/stm32l1xx_ll_gpio.h **** 
 858:Drivers/STM32L1xx_HAL_Driver/Inc/stm32l1xx_ll_gpio.h **** /**
 859:Drivers/STM32L1xx_HAL_Driver/Inc/stm32l1xx_ll_gpio.h ****   * @brief  Set several pins to high level on dedicated gpio port.
ARM GAS  /tmp/ccGQLaMr.s 			page 18


 860:Drivers/STM32L1xx_HAL_Driver/Inc/stm32l1xx_ll_gpio.h ****   * @rmtoll BSRR         BSy           LL_GPIO_SetOutputPin
 861:Drivers/STM32L1xx_HAL_Driver/Inc/stm32l1xx_ll_gpio.h ****   * @param  GPIOx GPIO Port
 862:Drivers/STM32L1xx_HAL_Driver/Inc/stm32l1xx_ll_gpio.h ****   * @param  PinMask This parameter can be a combination of the following values:
 863:Drivers/STM32L1xx_HAL_Driver/Inc/stm32l1xx_ll_gpio.h ****   *         @arg @ref LL_GPIO_PIN_0
 864:Drivers/STM32L1xx_HAL_Driver/Inc/stm32l1xx_ll_gpio.h ****   *         @arg @ref LL_GPIO_PIN_1
 865:Drivers/STM32L1xx_HAL_Driver/Inc/stm32l1xx_ll_gpio.h ****   *         @arg @ref LL_GPIO_PIN_2
 866:Drivers/STM32L1xx_HAL_Driver/Inc/stm32l1xx_ll_gpio.h ****   *         @arg @ref LL_GPIO_PIN_3
 867:Drivers/STM32L1xx_HAL_Driver/Inc/stm32l1xx_ll_gpio.h ****   *         @arg @ref LL_GPIO_PIN_4
 868:Drivers/STM32L1xx_HAL_Driver/Inc/stm32l1xx_ll_gpio.h ****   *         @arg @ref LL_GPIO_PIN_5
 869:Drivers/STM32L1xx_HAL_Driver/Inc/stm32l1xx_ll_gpio.h ****   *         @arg @ref LL_GPIO_PIN_6
 870:Drivers/STM32L1xx_HAL_Driver/Inc/stm32l1xx_ll_gpio.h ****   *         @arg @ref LL_GPIO_PIN_7
 871:Drivers/STM32L1xx_HAL_Driver/Inc/stm32l1xx_ll_gpio.h ****   *         @arg @ref LL_GPIO_PIN_8
 872:Drivers/STM32L1xx_HAL_Driver/Inc/stm32l1xx_ll_gpio.h ****   *         @arg @ref LL_GPIO_PIN_9
 873:Drivers/STM32L1xx_HAL_Driver/Inc/stm32l1xx_ll_gpio.h ****   *         @arg @ref LL_GPIO_PIN_10
 874:Drivers/STM32L1xx_HAL_Driver/Inc/stm32l1xx_ll_gpio.h ****   *         @arg @ref LL_GPIO_PIN_11
 875:Drivers/STM32L1xx_HAL_Driver/Inc/stm32l1xx_ll_gpio.h ****   *         @arg @ref LL_GPIO_PIN_12
 876:Drivers/STM32L1xx_HAL_Driver/Inc/stm32l1xx_ll_gpio.h ****   *         @arg @ref LL_GPIO_PIN_13
 877:Drivers/STM32L1xx_HAL_Driver/Inc/stm32l1xx_ll_gpio.h ****   *         @arg @ref LL_GPIO_PIN_14
 878:Drivers/STM32L1xx_HAL_Driver/Inc/stm32l1xx_ll_gpio.h ****   *         @arg @ref LL_GPIO_PIN_15
 879:Drivers/STM32L1xx_HAL_Driver/Inc/stm32l1xx_ll_gpio.h ****   *         @arg @ref LL_GPIO_PIN_ALL
 880:Drivers/STM32L1xx_HAL_Driver/Inc/stm32l1xx_ll_gpio.h ****   * @retval None
 881:Drivers/STM32L1xx_HAL_Driver/Inc/stm32l1xx_ll_gpio.h ****   */
 882:Drivers/STM32L1xx_HAL_Driver/Inc/stm32l1xx_ll_gpio.h **** __STATIC_INLINE void LL_GPIO_SetOutputPin(GPIO_TypeDef *GPIOx, uint32_t PinMask)
 883:Drivers/STM32L1xx_HAL_Driver/Inc/stm32l1xx_ll_gpio.h **** {
 884:Drivers/STM32L1xx_HAL_Driver/Inc/stm32l1xx_ll_gpio.h ****   WRITE_REG(GPIOx->BSRR, PinMask);
 885:Drivers/STM32L1xx_HAL_Driver/Inc/stm32l1xx_ll_gpio.h **** }
 886:Drivers/STM32L1xx_HAL_Driver/Inc/stm32l1xx_ll_gpio.h **** 
 887:Drivers/STM32L1xx_HAL_Driver/Inc/stm32l1xx_ll_gpio.h **** /**
 888:Drivers/STM32L1xx_HAL_Driver/Inc/stm32l1xx_ll_gpio.h ****   * @brief  Set several pins to low level on dedicated gpio port.
 889:Drivers/STM32L1xx_HAL_Driver/Inc/stm32l1xx_ll_gpio.h ****   * @rmtoll BRR          BRy           LL_GPIO_ResetOutputPin\n
 890:Drivers/STM32L1xx_HAL_Driver/Inc/stm32l1xx_ll_gpio.h ****   * @rmtoll BSRR         BRy           LL_GPIO_ResetOutputPin
 891:Drivers/STM32L1xx_HAL_Driver/Inc/stm32l1xx_ll_gpio.h ****   * @param  GPIOx GPIO Port
 892:Drivers/STM32L1xx_HAL_Driver/Inc/stm32l1xx_ll_gpio.h ****   * @param  PinMask This parameter can be a combination of the following values:
 893:Drivers/STM32L1xx_HAL_Driver/Inc/stm32l1xx_ll_gpio.h ****   *         @arg @ref LL_GPIO_PIN_0
 894:Drivers/STM32L1xx_HAL_Driver/Inc/stm32l1xx_ll_gpio.h ****   *         @arg @ref LL_GPIO_PIN_1
 895:Drivers/STM32L1xx_HAL_Driver/Inc/stm32l1xx_ll_gpio.h ****   *         @arg @ref LL_GPIO_PIN_2
 896:Drivers/STM32L1xx_HAL_Driver/Inc/stm32l1xx_ll_gpio.h ****   *         @arg @ref LL_GPIO_PIN_3
 897:Drivers/STM32L1xx_HAL_Driver/Inc/stm32l1xx_ll_gpio.h ****   *         @arg @ref LL_GPIO_PIN_4
 898:Drivers/STM32L1xx_HAL_Driver/Inc/stm32l1xx_ll_gpio.h ****   *         @arg @ref LL_GPIO_PIN_5
 899:Drivers/STM32L1xx_HAL_Driver/Inc/stm32l1xx_ll_gpio.h ****   *         @arg @ref LL_GPIO_PIN_6
 900:Drivers/STM32L1xx_HAL_Driver/Inc/stm32l1xx_ll_gpio.h ****   *         @arg @ref LL_GPIO_PIN_7
 901:Drivers/STM32L1xx_HAL_Driver/Inc/stm32l1xx_ll_gpio.h ****   *         @arg @ref LL_GPIO_PIN_8
 902:Drivers/STM32L1xx_HAL_Driver/Inc/stm32l1xx_ll_gpio.h ****   *         @arg @ref LL_GPIO_PIN_9
 903:Drivers/STM32L1xx_HAL_Driver/Inc/stm32l1xx_ll_gpio.h ****   *         @arg @ref LL_GPIO_PIN_10
 904:Drivers/STM32L1xx_HAL_Driver/Inc/stm32l1xx_ll_gpio.h ****   *         @arg @ref LL_GPIO_PIN_11
 905:Drivers/STM32L1xx_HAL_Driver/Inc/stm32l1xx_ll_gpio.h ****   *         @arg @ref LL_GPIO_PIN_12
 906:Drivers/STM32L1xx_HAL_Driver/Inc/stm32l1xx_ll_gpio.h ****   *         @arg @ref LL_GPIO_PIN_13
 907:Drivers/STM32L1xx_HAL_Driver/Inc/stm32l1xx_ll_gpio.h ****   *         @arg @ref LL_GPIO_PIN_14
 908:Drivers/STM32L1xx_HAL_Driver/Inc/stm32l1xx_ll_gpio.h ****   *         @arg @ref LL_GPIO_PIN_15
 909:Drivers/STM32L1xx_HAL_Driver/Inc/stm32l1xx_ll_gpio.h ****   *         @arg @ref LL_GPIO_PIN_ALL
 910:Drivers/STM32L1xx_HAL_Driver/Inc/stm32l1xx_ll_gpio.h ****   * @retval None
 911:Drivers/STM32L1xx_HAL_Driver/Inc/stm32l1xx_ll_gpio.h ****   */
 912:Drivers/STM32L1xx_HAL_Driver/Inc/stm32l1xx_ll_gpio.h **** __STATIC_INLINE void LL_GPIO_ResetOutputPin(GPIO_TypeDef *GPIOx, uint32_t PinMask)
  36              		.loc 2 912 22 view .LVU2
  37              	.LBB32:
 913:Drivers/STM32L1xx_HAL_Driver/Inc/stm32l1xx_ll_gpio.h **** {
 914:Drivers/STM32L1xx_HAL_Driver/Inc/stm32l1xx_ll_gpio.h **** #if defined(GPIO_BRR_BR_0)
ARM GAS  /tmp/ccGQLaMr.s 			page 19


 915:Drivers/STM32L1xx_HAL_Driver/Inc/stm32l1xx_ll_gpio.h ****   WRITE_REG(GPIOx->BRR, PinMask);
 916:Drivers/STM32L1xx_HAL_Driver/Inc/stm32l1xx_ll_gpio.h **** #else
 917:Drivers/STM32L1xx_HAL_Driver/Inc/stm32l1xx_ll_gpio.h ****   WRITE_REG(GPIOx->BSRR, (PinMask << 16));
  38              		.loc 2 917 3 view .LVU3
  39 0000 094B     		ldr	r3, .L2
  40 0002 4FF48032 		mov	r2, #65536
  41 0006 9A61     		str	r2, [r3, #24]
  42              	.LVL1:
  43              		.loc 2 917 3 is_stmt 0 view .LVU4
  44              	.LBE32:
  45              	.LBE31:
  77:IO_drivers/LED_display.c ****     NUMBER_1 (OFF);
  46              		.loc 1 77 5 is_stmt 1 view .LVU5
  47              	.LBB33:
  48              	.LBI33:
 912:Drivers/STM32L1xx_HAL_Driver/Inc/stm32l1xx_ll_gpio.h **** {
  49              		.loc 2 912 22 view .LVU6
  50              	.LBB34:
  51              		.loc 2 917 3 view .LVU7
  52 0008 4FF40032 		mov	r2, #131072
  53 000c 9A61     		str	r2, [r3, #24]
  54              	.LVL2:
  55              		.loc 2 917 3 is_stmt 0 view .LVU8
  56              	.LBE34:
  57              	.LBE33:
  78:IO_drivers/LED_display.c ****     NUMBER_2 (OFF);
  58              		.loc 1 78 5 is_stmt 1 view .LVU9
  59              	.LBB35:
  60              	.LBI35:
 912:Drivers/STM32L1xx_HAL_Driver/Inc/stm32l1xx_ll_gpio.h **** {
  61              		.loc 2 912 22 view .LVU10
  62              	.LBB36:
  63              		.loc 2 917 3 view .LVU11
  64 000e 4FF48022 		mov	r2, #262144
  65 0012 9A61     		str	r2, [r3, #24]
  66              	.LVL3:
  67              		.loc 2 917 3 is_stmt 0 view .LVU12
  68              	.LBE36:
  69              	.LBE35:
  79:IO_drivers/LED_display.c ****     NUMBER_3 (OFF);
  70              		.loc 1 79 5 is_stmt 1 view .LVU13
  71              	.LBB37:
  72              	.LBI37:
 912:Drivers/STM32L1xx_HAL_Driver/Inc/stm32l1xx_ll_gpio.h **** {
  73              		.loc 2 912 22 view .LVU14
  74              	.LBB38:
  75              		.loc 2 917 3 view .LVU15
  76 0014 4FF40022 		mov	r2, #524288
  77 0018 9A61     		str	r2, [r3, #24]
  78              	.LVL4:
  79              		.loc 2 917 3 is_stmt 0 view .LVU16
  80              	.LBE38:
  81              	.LBE37:
  80:IO_drivers/LED_display.c ****     NUMBER_4 (OFF);
  82              		.loc 1 80 5 is_stmt 1 view .LVU17
  83              	.LBB39:
  84              	.LBI39:
ARM GAS  /tmp/ccGQLaMr.s 			page 20


 912:Drivers/STM32L1xx_HAL_Driver/Inc/stm32l1xx_ll_gpio.h **** {
  85              		.loc 2 912 22 view .LVU18
  86              	.LBB40:
  87              		.loc 2 917 3 view .LVU19
  88 001a 4FF48012 		mov	r2, #1048576
  89 001e 9A61     		str	r2, [r3, #24]
  90              	.LVL5:
  91              		.loc 2 917 3 is_stmt 0 view .LVU20
  92              	.LBE40:
  93              	.LBE39:
  81:IO_drivers/LED_display.c ****     NUMBER_5 (OFF);
  94              		.loc 1 81 5 is_stmt 1 view .LVU21
  95              	.LBB41:
  96              	.LBI41:
 912:Drivers/STM32L1xx_HAL_Driver/Inc/stm32l1xx_ll_gpio.h **** {
  97              		.loc 2 912 22 view .LVU22
  98              	.LBB42:
  99              		.loc 2 917 3 view .LVU23
 100 0020 4FF40012 		mov	r2, #2097152
 101 0024 9A61     		str	r2, [r3, #24]
 102              	.LVL6:
 103              		.loc 2 917 3 is_stmt 0 view .LVU24
 104              	.LBE42:
 105              	.LBE41:
  82:IO_drivers/LED_display.c **** }
 106              		.loc 1 82 1 view .LVU25
 107 0026 7047     		bx	lr
 108              	.L3:
 109              		.align	2
 110              	.L2:
 111 0028 00000240 		.word	1073872896
 112              		.cfi_endproc
 113              	.LFE815:
 115              		.section	.text.select_number,"ax",%progbits
 116              		.align	1
 117              		.syntax unified
 118              		.thumb
 119              		.thumb_func
 121              	select_number:
 122              	.LVL7:
 123              	.LFB816:
  83:IO_drivers/LED_display.c **** 
  84:IO_drivers/LED_display.c **** //---------------------------------------------------------------------------//
  85:IO_drivers/LED_display.c **** static void select_number (uint8_t numb)
  86:IO_drivers/LED_display.c **** {
 124              		.loc 1 86 1 is_stmt 1 view -0
 125              		.cfi_startproc
 126              		@ args = 0, pretend = 0, frame = 0
 127              		@ frame_needed = 0, uses_anonymous_args = 0
 128              		.loc 1 86 1 is_stmt 0 view .LVU27
 129 0000 10B5     		push	{r4, lr}
 130              	.LCFI0:
 131              		.cfi_def_cfa_offset 8
 132              		.cfi_offset 4, -8
 133              		.cfi_offset 14, -4
 134 0002 0446     		mov	r4, r0
  87:IO_drivers/LED_display.c ****     reset_all_number();
ARM GAS  /tmp/ccGQLaMr.s 			page 21


 135              		.loc 1 87 5 is_stmt 1 view .LVU28
 136 0004 FFF7FEFF 		bl	reset_all_number
 137              	.LVL8:
  88:IO_drivers/LED_display.c ****     switch (numb)
 138              		.loc 1 88 5 view .LVU29
 139 0008 052C     		cmp	r4, #5
 140 000a 07D8     		bhi	.L4
 141 000c DFE804F0 		tbb	[pc, r4]
 142              	.L7:
 143 0010 03       		.byte	(.L12-.L7)/2
 144 0011 07       		.byte	(.L11-.L7)/2
 145 0012 0B       		.byte	(.L10-.L7)/2
 146 0013 0F       		.byte	(.L9-.L7)/2
 147 0014 13       		.byte	(.L8-.L7)/2
 148 0015 17       		.byte	(.L6-.L7)/2
 149              		.p2align 1
 150              	.L12:
  89:IO_drivers/LED_display.c ****     {
  90:IO_drivers/LED_display.c ****         case 0:
  91:IO_drivers/LED_display.c ****             NUMBER_0 (ON);
 151              		.loc 1 91 13 view .LVU30
 152              	.LVL9:
 153              	.LBB43:
 154              	.LBI43:
 882:Drivers/STM32L1xx_HAL_Driver/Inc/stm32l1xx_ll_gpio.h **** {
 155              		.loc 2 882 22 view .LVU31
 156              	.LBB44:
 884:Drivers/STM32L1xx_HAL_Driver/Inc/stm32l1xx_ll_gpio.h **** }
 157              		.loc 2 884 3 view .LVU32
 158 0016 0C4B     		ldr	r3, .L14
 159 0018 0122     		movs	r2, #1
 160 001a 9A61     		str	r2, [r3, #24]
 161              	.LVL10:
 162              	.L4:
 884:Drivers/STM32L1xx_HAL_Driver/Inc/stm32l1xx_ll_gpio.h **** }
 163              		.loc 2 884 3 is_stmt 0 view .LVU33
 164              	.LBE44:
 165              	.LBE43:
  92:IO_drivers/LED_display.c ****             break;
  93:IO_drivers/LED_display.c **** 
  94:IO_drivers/LED_display.c ****         case 1:
  95:IO_drivers/LED_display.c ****             NUMBER_1 (ON);
  96:IO_drivers/LED_display.c ****             break;
  97:IO_drivers/LED_display.c **** 
  98:IO_drivers/LED_display.c ****         case 2:
  99:IO_drivers/LED_display.c ****             NUMBER_2 (ON);
 100:IO_drivers/LED_display.c ****             break;
 101:IO_drivers/LED_display.c ****       
 102:IO_drivers/LED_display.c ****         case 3:
 103:IO_drivers/LED_display.c ****             NUMBER_3 (ON);
 104:IO_drivers/LED_display.c ****             break;
 105:IO_drivers/LED_display.c **** 
 106:IO_drivers/LED_display.c ****         case 4:
 107:IO_drivers/LED_display.c ****             NUMBER_4 (ON);
 108:IO_drivers/LED_display.c ****             break;
 109:IO_drivers/LED_display.c ****       
 110:IO_drivers/LED_display.c ****         case 5:
ARM GAS  /tmp/ccGQLaMr.s 			page 22


 111:IO_drivers/LED_display.c ****             NUMBER_5 (ON);
 112:IO_drivers/LED_display.c ****             break;
 113:IO_drivers/LED_display.c ****       
 114:IO_drivers/LED_display.c ****         default:
 115:IO_drivers/LED_display.c ****             break;     
 116:IO_drivers/LED_display.c ****     }
 117:IO_drivers/LED_display.c **** }
 166              		.loc 1 117 1 view .LVU34
 167 001c 10BD     		pop	{r4, pc}
 168              	.L11:
  95:IO_drivers/LED_display.c ****             break;
 169              		.loc 1 95 13 is_stmt 1 view .LVU35
 170              	.LVL11:
 171              	.LBB45:
 172              	.LBI45:
 882:Drivers/STM32L1xx_HAL_Driver/Inc/stm32l1xx_ll_gpio.h **** {
 173              		.loc 2 882 22 view .LVU36
 174              	.LBB46:
 884:Drivers/STM32L1xx_HAL_Driver/Inc/stm32l1xx_ll_gpio.h **** }
 175              		.loc 2 884 3 view .LVU37
 176 001e 0A4B     		ldr	r3, .L14
 177 0020 0222     		movs	r2, #2
 178 0022 9A61     		str	r2, [r3, #24]
 885:Drivers/STM32L1xx_HAL_Driver/Inc/stm32l1xx_ll_gpio.h **** 
 179              		.loc 2 885 1 is_stmt 0 view .LVU38
 180 0024 FAE7     		b	.L4
 181              	.LVL12:
 182              	.L10:
 885:Drivers/STM32L1xx_HAL_Driver/Inc/stm32l1xx_ll_gpio.h **** 
 183              		.loc 2 885 1 view .LVU39
 184              	.LBE46:
 185              	.LBE45:
  99:IO_drivers/LED_display.c ****             break;
 186              		.loc 1 99 13 is_stmt 1 view .LVU40
 187              	.LBB47:
 188              	.LBI47:
 882:Drivers/STM32L1xx_HAL_Driver/Inc/stm32l1xx_ll_gpio.h **** {
 189              		.loc 2 882 22 view .LVU41
 190              	.LBB48:
 884:Drivers/STM32L1xx_HAL_Driver/Inc/stm32l1xx_ll_gpio.h **** }
 191              		.loc 2 884 3 view .LVU42
 192 0026 084B     		ldr	r3, .L14
 193 0028 0422     		movs	r2, #4
 194 002a 9A61     		str	r2, [r3, #24]
 885:Drivers/STM32L1xx_HAL_Driver/Inc/stm32l1xx_ll_gpio.h **** 
 195              		.loc 2 885 1 is_stmt 0 view .LVU43
 196 002c F6E7     		b	.L4
 197              	.LVL13:
 198              	.L9:
 885:Drivers/STM32L1xx_HAL_Driver/Inc/stm32l1xx_ll_gpio.h **** 
 199              		.loc 2 885 1 view .LVU44
 200              	.LBE48:
 201              	.LBE47:
 103:IO_drivers/LED_display.c ****             break;
 202              		.loc 1 103 13 is_stmt 1 view .LVU45
 203              	.LBB49:
 204              	.LBI49:
ARM GAS  /tmp/ccGQLaMr.s 			page 23


 882:Drivers/STM32L1xx_HAL_Driver/Inc/stm32l1xx_ll_gpio.h **** {
 205              		.loc 2 882 22 view .LVU46
 206              	.LBB50:
 884:Drivers/STM32L1xx_HAL_Driver/Inc/stm32l1xx_ll_gpio.h **** }
 207              		.loc 2 884 3 view .LVU47
 208 002e 064B     		ldr	r3, .L14
 209 0030 0822     		movs	r2, #8
 210 0032 9A61     		str	r2, [r3, #24]
 885:Drivers/STM32L1xx_HAL_Driver/Inc/stm32l1xx_ll_gpio.h **** 
 211              		.loc 2 885 1 is_stmt 0 view .LVU48
 212 0034 F2E7     		b	.L4
 213              	.LVL14:
 214              	.L8:
 885:Drivers/STM32L1xx_HAL_Driver/Inc/stm32l1xx_ll_gpio.h **** 
 215              		.loc 2 885 1 view .LVU49
 216              	.LBE50:
 217              	.LBE49:
 107:IO_drivers/LED_display.c ****             break;
 218              		.loc 1 107 13 is_stmt 1 view .LVU50
 219              	.LBB51:
 220              	.LBI51:
 882:Drivers/STM32L1xx_HAL_Driver/Inc/stm32l1xx_ll_gpio.h **** {
 221              		.loc 2 882 22 view .LVU51
 222              	.LBB52:
 884:Drivers/STM32L1xx_HAL_Driver/Inc/stm32l1xx_ll_gpio.h **** }
 223              		.loc 2 884 3 view .LVU52
 224 0036 044B     		ldr	r3, .L14
 225 0038 1022     		movs	r2, #16
 226 003a 9A61     		str	r2, [r3, #24]
 885:Drivers/STM32L1xx_HAL_Driver/Inc/stm32l1xx_ll_gpio.h **** 
 227              		.loc 2 885 1 is_stmt 0 view .LVU53
 228 003c EEE7     		b	.L4
 229              	.LVL15:
 230              	.L6:
 885:Drivers/STM32L1xx_HAL_Driver/Inc/stm32l1xx_ll_gpio.h **** 
 231              		.loc 2 885 1 view .LVU54
 232              	.LBE52:
 233              	.LBE51:
 111:IO_drivers/LED_display.c ****             break;
 234              		.loc 1 111 13 is_stmt 1 view .LVU55
 235              	.LBB53:
 236              	.LBI53:
 882:Drivers/STM32L1xx_HAL_Driver/Inc/stm32l1xx_ll_gpio.h **** {
 237              		.loc 2 882 22 view .LVU56
 238              	.LBB54:
 884:Drivers/STM32L1xx_HAL_Driver/Inc/stm32l1xx_ll_gpio.h **** }
 239              		.loc 2 884 3 view .LVU57
 240 003e 024B     		ldr	r3, .L14
 241 0040 2022     		movs	r2, #32
 242 0042 9A61     		str	r2, [r3, #24]
 243              	.LVL16:
 884:Drivers/STM32L1xx_HAL_Driver/Inc/stm32l1xx_ll_gpio.h **** }
 244              		.loc 2 884 3 is_stmt 0 view .LVU58
 245              	.LBE54:
 246              	.LBE53:
 247              		.loc 1 117 1 view .LVU59
 248 0044 EAE7     		b	.L4
ARM GAS  /tmp/ccGQLaMr.s 			page 24


 249              	.L15:
 250 0046 00BF     		.align	2
 251              	.L14:
 252 0048 00000240 		.word	1073872896
 253              		.cfi_endproc
 254              	.LFE816:
 256              		.section	.text.digit_activating,"ax",%progbits
 257              		.align	1
 258              		.syntax unified
 259              		.thumb
 260              		.thumb_func
 262              	digit_activating:
 263              	.LVL17:
 264              	.LFB818:
 118:IO_drivers/LED_display.c **** 
 119:IO_drivers/LED_display.c **** //---------------------------------------------------------------------------//
 120:IO_drivers/LED_display.c **** static void reset_all_digit (void)
 121:IO_drivers/LED_display.c **** {
 122:IO_drivers/LED_display.c ****     digit_activating (DIGIT_CODE_SIZE-1);
 123:IO_drivers/LED_display.c **** }
 124:IO_drivers/LED_display.c **** 
 125:IO_drivers/LED_display.c **** //---------------------------------------------------------------------------//
 126:IO_drivers/LED_display.c **** static void digit_activating (uint8_t digit)
 127:IO_drivers/LED_display.c **** {
 265              		.loc 1 127 1 is_stmt 1 view -0
 266              		.cfi_startproc
 267              		@ args = 0, pretend = 0, frame = 0
 268              		@ frame_needed = 0, uses_anonymous_args = 0
 269              		@ link register save eliminated.
 128:IO_drivers/LED_display.c ****     uint8_t num = 0;
 270              		.loc 1 128 5 view .LVU61
 129:IO_drivers/LED_display.c ****     
 130:IO_drivers/LED_display.c ****     if ((digit >= 0 ) && (digit <= 10))
 271              		.loc 1 130 5 view .LVU62
 272              		.loc 1 130 8 is_stmt 0 view .LVU63
 273 0000 0A28     		cmp	r0, #10
 274 0002 1DD8     		bhi	.L16
 131:IO_drivers/LED_display.c ****     {
 132:IO_drivers/LED_display.c ****         num = digit_code[digit];
 275              		.loc 1 132 9 is_stmt 1 view .LVU64
 276              		.loc 1 132 13 is_stmt 0 view .LVU65
 277 0004 0F4B     		ldr	r3, .L22
 278 0006 1A5C     		ldrb	r2, [r3, r0]	@ zero_extendqisi2
 279              	.LVL18:
 133:IO_drivers/LED_display.c ****         for (uint8_t count = 0; count < segment_numb; count++)
 280              		.loc 1 133 9 is_stmt 1 view .LVU66
 281              	.LBB55:
 282              		.loc 1 133 14 view .LVU67
 283              		.loc 1 133 22 is_stmt 0 view .LVU68
 284 0008 0023     		movs	r3, #0
 285              		.loc 1 133 9 view .LVU69
 286 000a 0AE0     		b	.L18
 287              	.LVL19:
 288              	.L19:
 134:IO_drivers/LED_display.c ****         {
 135:IO_drivers/LED_display.c **** 
 136:IO_drivers/LED_display.c ****             if ((num&0x01) == ON) {
ARM GAS  /tmp/ccGQLaMr.s 			page 25


 137:IO_drivers/LED_display.c ****                 LL_GPIO_SetOutputPin (LEDpins[count].PORTx, LEDpins[count].PORT_Pin);
 138:IO_drivers/LED_display.c ****             }
 139:IO_drivers/LED_display.c ****             else {
 140:IO_drivers/LED_display.c ****                 LL_GPIO_ResetOutputPin (LEDpins[count].PORTx, LEDpins[count].PORT_Pin);
 289              		.loc 1 140 17 is_stmt 1 view .LVU70
 290 000c 0E49     		ldr	r1, .L22+4
 291 000e 51F83300 		ldr	r0, [r1, r3, lsl #3]
 292 0012 01EBC301 		add	r1, r1, r3, lsl #3
 293 0016 4968     		ldr	r1, [r1, #4]
 294              	.LVL20:
 295              	.LBB56:
 296              	.LBI56:
 912:Drivers/STM32L1xx_HAL_Driver/Inc/stm32l1xx_ll_gpio.h **** {
 297              		.loc 2 912 22 view .LVU71
 298              	.LBB57:
 299              		.loc 2 917 3 view .LVU72
 300 0018 0904     		lsls	r1, r1, #16
 301              	.LVL21:
 302              		.loc 2 917 3 is_stmt 0 view .LVU73
 303 001a 8161     		str	r1, [r0, #24]
 304              	.LVL22:
 305              	.L20:
 306              		.loc 2 917 3 view .LVU74
 307              	.LBE57:
 308              	.LBE56:
 141:IO_drivers/LED_display.c ****             }
 142:IO_drivers/LED_display.c ****             num = num >> 1;
 309              		.loc 1 142 13 is_stmt 1 discriminator 2 view .LVU75
 310              		.loc 1 142 17 is_stmt 0 discriminator 2 view .LVU76
 311 001c 5208     		lsrs	r2, r2, #1
 312              	.LVL23:
 133:IO_drivers/LED_display.c ****         {
 313              		.loc 1 133 55 is_stmt 1 discriminator 2 view .LVU77
 133:IO_drivers/LED_display.c ****         {
 314              		.loc 1 133 60 is_stmt 0 discriminator 2 view .LVU78
 315 001e 0133     		adds	r3, r3, #1
 316              	.LVL24:
 133:IO_drivers/LED_display.c ****         {
 317              		.loc 1 133 60 discriminator 2 view .LVU79
 318 0020 DBB2     		uxtb	r3, r3
 319              	.LVL25:
 320              	.L18:
 133:IO_drivers/LED_display.c ****         {
 321              		.loc 1 133 33 is_stmt 1 discriminator 1 view .LVU80
 133:IO_drivers/LED_display.c ****         {
 322              		.loc 1 133 39 is_stmt 0 discriminator 1 view .LVU81
 323 0022 0A49     		ldr	r1, .L22+8
 324 0024 0978     		ldrb	r1, [r1]	@ zero_extendqisi2
 133:IO_drivers/LED_display.c ****         {
 325              		.loc 1 133 9 discriminator 1 view .LVU82
 326 0026 9942     		cmp	r1, r3
 327 0028 0AD9     		bls	.L16
 136:IO_drivers/LED_display.c ****                 LL_GPIO_SetOutputPin (LEDpins[count].PORTx, LEDpins[count].PORT_Pin);
 328              		.loc 1 136 13 is_stmt 1 view .LVU83
 136:IO_drivers/LED_display.c ****                 LL_GPIO_SetOutputPin (LEDpins[count].PORTx, LEDpins[count].PORT_Pin);
 329              		.loc 1 136 16 is_stmt 0 view .LVU84
 330 002a 12F0010F 		tst	r2, #1
ARM GAS  /tmp/ccGQLaMr.s 			page 26


 331 002e EDD0     		beq	.L19
 137:IO_drivers/LED_display.c ****             }
 332              		.loc 1 137 17 is_stmt 1 view .LVU85
 333 0030 0549     		ldr	r1, .L22+4
 334 0032 51F83300 		ldr	r0, [r1, r3, lsl #3]
 335 0036 01EBC301 		add	r1, r1, r3, lsl #3
 336 003a 4968     		ldr	r1, [r1, #4]
 337              	.LVL26:
 338              	.LBB58:
 339              	.LBI58:
 882:Drivers/STM32L1xx_HAL_Driver/Inc/stm32l1xx_ll_gpio.h **** {
 340              		.loc 2 882 22 view .LVU86
 341              	.LBB59:
 884:Drivers/STM32L1xx_HAL_Driver/Inc/stm32l1xx_ll_gpio.h **** }
 342              		.loc 2 884 3 view .LVU87
 343 003c 8161     		str	r1, [r0, #24]
 885:Drivers/STM32L1xx_HAL_Driver/Inc/stm32l1xx_ll_gpio.h **** 
 344              		.loc 2 885 1 is_stmt 0 view .LVU88
 345 003e EDE7     		b	.L20
 346              	.LVL27:
 347              	.L16:
 885:Drivers/STM32L1xx_HAL_Driver/Inc/stm32l1xx_ll_gpio.h **** 
 348              		.loc 2 885 1 view .LVU89
 349              	.LBE59:
 350              	.LBE58:
 351              	.LBE55:
 143:IO_drivers/LED_display.c ****         }
 144:IO_drivers/LED_display.c ****     }
 145:IO_drivers/LED_display.c **** }
 352              		.loc 1 145 1 view .LVU90
 353 0040 7047     		bx	lr
 354              	.L23:
 355 0042 00BF     		.align	2
 356              	.L22:
 357 0044 00000000 		.word	.LANCHOR0
 358 0048 00000000 		.word	.LANCHOR1
 359 004c 00000000 		.word	.LANCHOR2
 360              		.cfi_endproc
 361              	.LFE818:
 363              		.section	.text.reset_all_digit,"ax",%progbits
 364              		.align	1
 365              		.syntax unified
 366              		.thumb
 367              		.thumb_func
 369              	reset_all_digit:
 370              	.LFB817:
 121:IO_drivers/LED_display.c ****     digit_activating (DIGIT_CODE_SIZE-1);
 371              		.loc 1 121 1 is_stmt 1 view -0
 372              		.cfi_startproc
 373              		@ args = 0, pretend = 0, frame = 0
 374              		@ frame_needed = 0, uses_anonymous_args = 0
 375 0000 08B5     		push	{r3, lr}
 376              	.LCFI1:
 377              		.cfi_def_cfa_offset 8
 378              		.cfi_offset 3, -8
 379              		.cfi_offset 14, -4
 122:IO_drivers/LED_display.c **** }
ARM GAS  /tmp/ccGQLaMr.s 			page 27


 380              		.loc 1 122 5 view .LVU92
 381 0002 0A20     		movs	r0, #10
 382 0004 FFF7FEFF 		bl	digit_activating
 383              	.LVL28:
 123:IO_drivers/LED_display.c **** 
 384              		.loc 1 123 1 is_stmt 0 view .LVU93
 385 0008 08BD     		pop	{r3, pc}
 386              		.cfi_endproc
 387              	.LFE817:
 389              		.section	.text.LED_data_output,"ax",%progbits
 390              		.align	1
 391              		.global	LED_data_output
 392              		.syntax unified
 393              		.thumb
 394              		.thumb_func
 396              	LED_data_output:
 397              	.LVL29:
 398              	.LFB819:
 146:IO_drivers/LED_display.c **** 
 147:IO_drivers/LED_display.c **** //---------------------------------------------------------------------------//
 148:IO_drivers/LED_display.c **** void LED_data_output (char * time, uint8_t LEDnumb)
 149:IO_drivers/LED_display.c **** {
 399              		.loc 1 149 1 is_stmt 1 view -0
 400              		.cfi_startproc
 401              		@ args = 0, pretend = 0, frame = 0
 402              		@ frame_needed = 0, uses_anonymous_args = 0
 403              		.loc 1 149 1 is_stmt 0 view .LVU95
 404 0000 70B5     		push	{r4, r5, r6, lr}
 405              	.LCFI2:
 406              		.cfi_def_cfa_offset 16
 407              		.cfi_offset 4, -16
 408              		.cfi_offset 5, -12
 409              		.cfi_offset 6, -8
 410              		.cfi_offset 14, -4
 411 0002 0646     		mov	r6, r0
 412 0004 0D46     		mov	r5, r1
 150:IO_drivers/LED_display.c ****     uint8_t digital;
 413              		.loc 1 150 5 is_stmt 1 view .LVU96
 151:IO_drivers/LED_display.c ****     for (uint8_t j = 0; j < LEDnumb; j++)
 414              		.loc 1 151 5 view .LVU97
 415              	.LBB60:
 416              		.loc 1 151 10 view .LVU98
 417              	.LVL30:
 418              		.loc 1 151 18 is_stmt 0 view .LVU99
 419 0006 0024     		movs	r4, #0
 420              		.loc 1 151 5 view .LVU100
 421 0008 09E0     		b	.L27
 422              	.LVL31:
 423              	.L30:
 152:IO_drivers/LED_display.c ****     {
 153:IO_drivers/LED_display.c ****         select_number (j);
 154:IO_drivers/LED_display.c ****         if (*(time+j) >= 0x30)
 155:IO_drivers/LED_display.c ****         {  digital = (*(time+j) - 0x30); }
 156:IO_drivers/LED_display.c ****         else
 157:IO_drivers/LED_display.c ****         {  digital = 0;  }
 424              		.loc 1 157 20 view .LVU101
 425 000a 0020     		movs	r0, #0
ARM GAS  /tmp/ccGQLaMr.s 			page 28


 426              	.L28:
 427              	.LVL32:
 158:IO_drivers/LED_display.c ****         digit_activating (digital);
 428              		.loc 1 158 9 is_stmt 1 discriminator 2 view .LVU102
 429 000c FFF7FEFF 		bl	digit_activating
 430              	.LVL33:
 159:IO_drivers/LED_display.c ****         delay_LED_digital (j);
 431              		.loc 1 159 9 discriminator 2 view .LVU103
 432 0010 2046     		mov	r0, r4
 433 0012 FFF7FEFF 		bl	delay_LED_digital
 434              	.LVL34:
 160:IO_drivers/LED_display.c ****         reset_all_digit ();
 435              		.loc 1 160 9 discriminator 2 view .LVU104
 436 0016 FFF7FEFF 		bl	reset_all_digit
 437              	.LVL35:
 151:IO_drivers/LED_display.c ****     {
 438              		.loc 1 151 38 discriminator 2 view .LVU105
 151:IO_drivers/LED_display.c ****     {
 439              		.loc 1 151 39 is_stmt 0 discriminator 2 view .LVU106
 440 001a 0134     		adds	r4, r4, #1
 441              	.LVL36:
 151:IO_drivers/LED_display.c ****     {
 442              		.loc 1 151 39 discriminator 2 view .LVU107
 443 001c E4B2     		uxtb	r4, r4
 444              	.LVL37:
 445              	.L27:
 151:IO_drivers/LED_display.c ****     {
 446              		.loc 1 151 25 is_stmt 1 discriminator 1 view .LVU108
 151:IO_drivers/LED_display.c ****     {
 447              		.loc 1 151 5 is_stmt 0 discriminator 1 view .LVU109
 448 001e AC42     		cmp	r4, r5
 449 0020 08D2     		bcs	.L32
 153:IO_drivers/LED_display.c ****         if (*(time+j) >= 0x30)
 450              		.loc 1 153 9 is_stmt 1 view .LVU110
 451 0022 2046     		mov	r0, r4
 452 0024 FFF7FEFF 		bl	select_number
 453              	.LVL38:
 154:IO_drivers/LED_display.c ****         {  digital = (*(time+j) - 0x30); }
 454              		.loc 1 154 9 view .LVU111
 154:IO_drivers/LED_display.c ****         {  digital = (*(time+j) - 0x30); }
 455              		.loc 1 154 13 is_stmt 0 view .LVU112
 456 0028 335D     		ldrb	r3, [r6, r4]	@ zero_extendqisi2
 154:IO_drivers/LED_display.c ****         {  digital = (*(time+j) - 0x30); }
 457              		.loc 1 154 12 view .LVU113
 458 002a 2F2B     		cmp	r3, #47
 459 002c EDD9     		bls	.L30
 155:IO_drivers/LED_display.c ****         else
 460              		.loc 1 155 12 is_stmt 1 view .LVU114
 155:IO_drivers/LED_display.c ****         else
 461              		.loc 1 155 20 is_stmt 0 view .LVU115
 462 002e 303B     		subs	r3, r3, #48
 463 0030 D8B2     		uxtb	r0, r3
 464              	.LVL39:
 155:IO_drivers/LED_display.c ****         else
 465              		.loc 1 155 20 view .LVU116
 466 0032 EBE7     		b	.L28
 467              	.LVL40:
ARM GAS  /tmp/ccGQLaMr.s 			page 29


 468              	.L32:
 155:IO_drivers/LED_display.c ****         else
 469              		.loc 1 155 20 view .LVU117
 470              	.LBE60:
 161:IO_drivers/LED_display.c ****         //delay_us(500);
 162:IO_drivers/LED_display.c ****     }
 163:IO_drivers/LED_display.c **** }...
 471              		.loc 1 163 1 view .LVU118
 472 0034 70BD     		pop	{r4, r5, r6, pc}
 473              		.loc 1 163 1 view .LVU119
 474              		.cfi_endproc
 475              	.LFE819:
 477              		.global	segment_numb
 478              		.global	digit_code
 479              		.global	LEDpins
 480              		.section	.data.segment_numb,"aw"
 481              		.set	.LANCHOR2,. + 0
 484              	segment_numb:
 485 0000 0B       		.byte	11
 486              		.section	.rodata.LEDpins,"a"
 487              		.align	2
 488              		.set	.LANCHOR1,. + 0
 491              	LEDpins:
 492 0000 00040240 		.word	1073873920
 493 0004 02000000 		.word	2
 494 0008 00040240 		.word	1073873920
 495 000c 01000000 		.word	1
 496 0010 00040240 		.word	1073873920
 497 0014 08000000 		.word	8
 498 0018 00040240 		.word	1073873920
 499 001c 10000000 		.word	16
 500 0020 00040240 		.word	1073873920
 501 0024 20000000 		.word	32
 502 0028 00040240 		.word	1073873920
 503 002c 00010000 		.word	256
 504 0030 00040240 		.word	1073873920
 505 0034 00020000 		.word	512
 506 0038 00040240 		.word	1073873920
 507 003c 00200000 		.word	8192
 508 0040 00000000 		.space	24
 508      00000000 
 508      00000000 
 508      00000000 
 508      00000000 
 509              		.section	.rodata.digit_code,"a"
 510              		.align	2
 511              		.set	.LANCHOR0,. + 0
 514              	digit_code:
 515 0000 3F065B4F 		.ascii	"?\006[Ofm}\007\177o\000"
 515      666D7D07 
 515      7F6F00
 516              		.text
 517              	.Letext0:
 518              		.file 3 "/home/arashamf/soft/ARM_toolchains/gcc-arm-none-eabi-10.3-2021.10/arm-none-eabi/include/m
 519              		.file 4 "/home/arashamf/soft/ARM_toolchains/gcc-arm-none-eabi-10.3-2021.10/arm-none-eabi/include/s
 520              		.file 5 "Drivers/CMSIS/Device/ST/STM32L1xx/Include/stm32l151xb.h"
 521              		.file 6 "Drivers/STM32L1xx_HAL_Driver/Inc/stm32l1xx_ll_dma.h"
ARM GAS  /tmp/ccGQLaMr.s 			page 30


 522              		.file 7 "Drivers/STM32L1xx_HAL_Driver/Inc/stm32l1xx_ll_tim.h"
 523              		.file 8 "Core/Inc/typedef.h"
 524              		.file 9 "Core/Inc/tim.h"
ARM GAS  /tmp/ccGQLaMr.s 			page 31


DEFINED SYMBOLS
                            *ABS*:0000000000000000 LED_display.c
     /tmp/ccGQLaMr.s:18     .text.reset_all_number:0000000000000000 $t
     /tmp/ccGQLaMr.s:23     .text.reset_all_number:0000000000000000 reset_all_number
     /tmp/ccGQLaMr.s:111    .text.reset_all_number:0000000000000028 $d
     /tmp/ccGQLaMr.s:116    .text.select_number:0000000000000000 $t
     /tmp/ccGQLaMr.s:121    .text.select_number:0000000000000000 select_number
     /tmp/ccGQLaMr.s:143    .text.select_number:0000000000000010 $d
     /tmp/ccGQLaMr.s:149    .text.select_number:0000000000000016 $t
     /tmp/ccGQLaMr.s:252    .text.select_number:0000000000000048 $d
     /tmp/ccGQLaMr.s:257    .text.digit_activating:0000000000000000 $t
     /tmp/ccGQLaMr.s:262    .text.digit_activating:0000000000000000 digit_activating
     /tmp/ccGQLaMr.s:357    .text.digit_activating:0000000000000044 $d
     /tmp/ccGQLaMr.s:364    .text.reset_all_digit:0000000000000000 $t
     /tmp/ccGQLaMr.s:369    .text.reset_all_digit:0000000000000000 reset_all_digit
     /tmp/ccGQLaMr.s:390    .text.LED_data_output:0000000000000000 $t
     /tmp/ccGQLaMr.s:396    .text.LED_data_output:0000000000000000 LED_data_output
     /tmp/ccGQLaMr.s:484    .data.segment_numb:0000000000000000 segment_numb
     /tmp/ccGQLaMr.s:514    .rodata.digit_code:0000000000000000 digit_code
     /tmp/ccGQLaMr.s:491    .rodata.LEDpins:0000000000000000 LEDpins
     /tmp/ccGQLaMr.s:487    .rodata.LEDpins:0000000000000000 $d
     /tmp/ccGQLaMr.s:510    .rodata.digit_code:0000000000000000 $d

UNDEFINED SYMBOLS
delay_LED_digital
