ARM GAS  /tmp/ccCpqwiQ.s 			page 1


   1              		.cpu cortex-m3
   2              		.arch armv7-m
   3              		.fpu softvfp
   4              		.eabi_attribute 20, 1
   5              		.eabi_attribute 21, 1
   6              		.eabi_attribute 23, 3
   7              		.eabi_attribute 24, 1
   8              		.eabi_attribute 25, 1
   9              		.eabi_attribute 26, 1
  10              		.eabi_attribute 30, 1
  11              		.eabi_attribute 34, 1
  12              		.eabi_attribute 18, 4
  13              		.file	"main.c"
  14              		.text
  15              	.Ltext0:
  16              		.cfi_sections	.debug_frame
  17              		.section	.text.HAL_TIM_PeriodElapsedCallback,"ax",%progbits
  18              		.align	1
  19              		.global	HAL_TIM_PeriodElapsedCallback
  20              		.syntax unified
  21              		.thumb
  22              		.thumb_func
  24              	HAL_TIM_PeriodElapsedCallback:
  25              	.LVL0:
  26              	.LFB824:
  27              		.file 1 "Core/Src/main.c"
   1:Core/Src/main.c **** /* USER CODE BEGIN Header */
   2:Core/Src/main.c **** /**
   3:Core/Src/main.c ****   ******************************************************************************
   4:Core/Src/main.c ****   * @file           : main.c
   5:Core/Src/main.c ****   * @brief          : Main program body
   6:Core/Src/main.c ****   ******************************************************************************
   7:Core/Src/main.c ****   * @attention
   8:Core/Src/main.c ****   *
   9:Core/Src/main.c ****   * Copyright (c) 2025 STMicroelectronics.
  10:Core/Src/main.c ****   * All rights reserved.
  11:Core/Src/main.c ****   *
  12:Core/Src/main.c ****   * This software is licensed under terms that can be found in the LICENSE file
  13:Core/Src/main.c ****   * in the root directory of this software component.
  14:Core/Src/main.c ****   * If no LICENSE file comes with this software, it is provided AS-IS.
  15:Core/Src/main.c ****   *
  16:Core/Src/main.c ****   ******************************************************************************
  17:Core/Src/main.c ****   */
  18:Core/Src/main.c **** /* USER CODE END Header */
  19:Core/Src/main.c **** /* Includes ------------------------------------------------------------------*/
  20:Core/Src/main.c **** #include "main.h"
  21:Core/Src/main.c **** #include "cmsis_os.h"
  22:Core/Src/main.c **** #include "i2c.h"
  23:Core/Src/main.c **** #include "tim.h"
  24:Core/Src/main.c **** #include "usart.h"
  25:Core/Src/main.c **** #include "gpio.h"
  26:Core/Src/main.c **** 
  27:Core/Src/main.c **** /* Private includes ----------------------------------------------------------*/
  28:Core/Src/main.c **** /* USER CODE BEGIN Includes */
  29:Core/Src/main.c **** #include "LED_display.h"
  30:Core/Src/main.c **** #include "rtc.h"
  31:Core/Src/main.c **** #include "time_protocol.h"
ARM GAS  /tmp/ccCpqwiQ.s 			page 2


  32:Core/Src/main.c **** #include <stdio.h>
  33:Core/Src/main.c **** /* USER CODE END Includes */
  34:Core/Src/main.c **** 
  35:Core/Src/main.c **** /* Private typedef -----------------------------------------------------------*/
  36:Core/Src/main.c **** /* USER CODE BEGIN PTD */
  37:Core/Src/main.c **** 
  38:Core/Src/main.c **** /* USER CODE END PTD */
  39:Core/Src/main.c **** 
  40:Core/Src/main.c **** /* Private define ------------------------------------------------------------*/
  41:Core/Src/main.c **** /* USER CODE BEGIN PD */
  42:Core/Src/main.c **** #define LED_DELAY 1000
  43:Core/Src/main.c **** /* USER CODE END PD */
  44:Core/Src/main.c **** 
  45:Core/Src/main.c **** /* Private macro -------------------------------------------------------------*/
  46:Core/Src/main.c **** /* USER CODE BEGIN PM */
  47:Core/Src/main.c **** 
  48:Core/Src/main.c **** /* USER CODE END PM */
  49:Core/Src/main.c **** 
  50:Core/Src/main.c **** /* Private variables ---------------------------------------------------------*/
  51:Core/Src/main.c **** 
  52:Core/Src/main.c **** /* USER CODE BEGIN PV */
  53:Core/Src/main.c **** 
  54:Core/Src/main.c **** /* USER CODE END PV */
  55:Core/Src/main.c **** 
  56:Core/Src/main.c **** /* Private function prototypes -----------------------------------------------*/
  57:Core/Src/main.c **** void SystemClock_Config(void);
  58:Core/Src/main.c **** void MX_FREERTOS_Init(void);
  59:Core/Src/main.c **** /* USER CODE BEGIN PFP */
  60:Core/Src/main.c **** 
  61:Core/Src/main.c **** /* USER CODE END PFP */
  62:Core/Src/main.c **** 
  63:Core/Src/main.c **** /* Private user code ---------------------------------------------------------*/
  64:Core/Src/main.c **** /* USER CODE BEGIN 0 */
  65:Core/Src/main.c **** 
  66:Core/Src/main.c **** /* USER CODE END 0 */
  67:Core/Src/main.c **** 
  68:Core/Src/main.c **** /**
  69:Core/Src/main.c ****   * @brief  The application entry point.
  70:Core/Src/main.c ****   * @retval int
  71:Core/Src/main.c ****   */
  72:Core/Src/main.c **** int main(void)
  73:Core/Src/main.c **** {
  74:Core/Src/main.c **** 
  75:Core/Src/main.c ****   /* USER CODE BEGIN 1 */
  76:Core/Src/main.c **** 
  77:Core/Src/main.c ****   /* USER CODE END 1 */
  78:Core/Src/main.c **** 
  79:Core/Src/main.c ****   /* MCU Configuration--------------------------------------------------------*/
  80:Core/Src/main.c **** 
  81:Core/Src/main.c ****   /* Reset of all peripherals, Initializes the Flash interface and the Systick. */
  82:Core/Src/main.c ****   HAL_Init();
  83:Core/Src/main.c **** 
  84:Core/Src/main.c ****   /* USER CODE BEGIN Init */
  85:Core/Src/main.c **** 
  86:Core/Src/main.c ****   /* USER CODE END Init */
  87:Core/Src/main.c **** 
  88:Core/Src/main.c ****   /* Configure the system clock */
ARM GAS  /tmp/ccCpqwiQ.s 			page 3


  89:Core/Src/main.c ****   SystemClock_Config();
  90:Core/Src/main.c **** 
  91:Core/Src/main.c ****   /* USER CODE BEGIN SysInit */
  92:Core/Src/main.c **** 
  93:Core/Src/main.c ****   /* USER CODE END SysInit */
  94:Core/Src/main.c **** 
  95:Core/Src/main.c ****   /* Initialize all configured peripherals */
  96:Core/Src/main.c ****   MX_GPIO_Init();
  97:Core/Src/main.c ****   MX_I2C1_Init();
  98:Core/Src/main.c ****   MX_TIM7_Init();
  99:Core/Src/main.c ****   MX_USART1_UART_Init();
 100:Core/Src/main.c ****   /* USER CODE BEGIN 2 */
 101:Core/Src/main.c ****   UARTbuf_init ();
 102:Core/Src/main.c ****   /* USER CODE END 2 */
 103:Core/Src/main.c **** 
 104:Core/Src/main.c ****   /* Call init function for freertos objects (in cmsis_os2.c) */
 105:Core/Src/main.c ****   MX_FREERTOS_Init();
 106:Core/Src/main.c **** 
 107:Core/Src/main.c ****   /* Start scheduler */
 108:Core/Src/main.c ****   osKernelStart();
 109:Core/Src/main.c **** 
 110:Core/Src/main.c ****   /* We should never get here as control is now taken by the scheduler */
 111:Core/Src/main.c **** 
 112:Core/Src/main.c ****   /* Infinite loop */
 113:Core/Src/main.c ****   /* USER CODE BEGIN WHILE */
 114:Core/Src/main.c ****   while (1)
 115:Core/Src/main.c ****   {
 116:Core/Src/main.c **** 
 117:Core/Src/main.c ****     /* USER CODE END WHILE */
 118:Core/Src/main.c **** 
 119:Core/Src/main.c ****     /* USER CODE BEGIN 3 */
 120:Core/Src/main.c ****   }
 121:Core/Src/main.c ****   /* USER CODE END 3 */
 122:Core/Src/main.c **** }
 123:Core/Src/main.c **** 
 124:Core/Src/main.c **** /**
 125:Core/Src/main.c ****   * @brief System Clock Configuration
 126:Core/Src/main.c ****   * @retval None
 127:Core/Src/main.c ****   */
 128:Core/Src/main.c **** void SystemClock_Config(void)
 129:Core/Src/main.c **** {
 130:Core/Src/main.c **** 
 131:Core/Src/main.c ****   LL_FLASH_Enable64bitAccess();
 132:Core/Src/main.c **** 
 133:Core/Src/main.c ****   LL_FLASH_SetLatency(LL_FLASH_LATENCY_1);
 134:Core/Src/main.c ****   while(LL_FLASH_GetLatency()!= LL_FLASH_LATENCY_1)
 135:Core/Src/main.c ****   {
 136:Core/Src/main.c ****   }
 137:Core/Src/main.c ****   LL_PWR_SetRegulVoltageScaling(LL_PWR_REGU_VOLTAGE_SCALE1);
 138:Core/Src/main.c ****   while (LL_PWR_IsActiveFlag_VOS() != 0)
 139:Core/Src/main.c ****   {
 140:Core/Src/main.c ****   }
 141:Core/Src/main.c ****   LL_RCC_HSE_Enable();
 142:Core/Src/main.c **** 
 143:Core/Src/main.c ****    /* Wait till HSE is ready */
 144:Core/Src/main.c ****   while(LL_RCC_HSE_IsReady() != 1)
 145:Core/Src/main.c ****   {
ARM GAS  /tmp/ccCpqwiQ.s 			page 4


 146:Core/Src/main.c **** 
 147:Core/Src/main.c ****   }
 148:Core/Src/main.c ****   LL_RCC_PLL_ConfigDomain_SYS(LL_RCC_PLLSOURCE_HSE, LL_RCC_PLL_MUL_12, LL_RCC_PLL_DIV_3);
 149:Core/Src/main.c ****   LL_RCC_PLL_Enable();
 150:Core/Src/main.c **** 
 151:Core/Src/main.c ****    /* Wait till PLL is ready */
 152:Core/Src/main.c ****   while(LL_RCC_PLL_IsReady() != 1)
 153:Core/Src/main.c ****   {
 154:Core/Src/main.c **** 
 155:Core/Src/main.c ****   }
 156:Core/Src/main.c ****   LL_RCC_SetAHBPrescaler(LL_RCC_SYSCLK_DIV_1);
 157:Core/Src/main.c ****   LL_RCC_SetAPB1Prescaler(LL_RCC_APB1_DIV_1);
 158:Core/Src/main.c ****   LL_RCC_SetAPB2Prescaler(LL_RCC_APB2_DIV_1);
 159:Core/Src/main.c ****   LL_RCC_SetSysClkSource(LL_RCC_SYS_CLKSOURCE_PLL);
 160:Core/Src/main.c **** 
 161:Core/Src/main.c ****    /* Wait till System clock is ready */
 162:Core/Src/main.c ****   while(LL_RCC_GetSysClkSource() != LL_RCC_SYS_CLKSOURCE_STATUS_PLL)
 163:Core/Src/main.c ****   {
 164:Core/Src/main.c **** 
 165:Core/Src/main.c ****   }
 166:Core/Src/main.c ****   LL_SetSystemCoreClock(32000000);
 167:Core/Src/main.c **** 
 168:Core/Src/main.c ****    /* Update the time base */
 169:Core/Src/main.c ****   if (HAL_InitTick (TICK_INT_PRIORITY) != HAL_OK)
 170:Core/Src/main.c ****   {
 171:Core/Src/main.c ****     Error_Handler();
 172:Core/Src/main.c ****   }
 173:Core/Src/main.c **** }
 174:Core/Src/main.c **** 
 175:Core/Src/main.c **** /* USER CODE BEGIN 4 */
 176:Core/Src/main.c **** 
 177:Core/Src/main.c **** /* USER CODE END 4 */
 178:Core/Src/main.c **** 
 179:Core/Src/main.c **** /**
 180:Core/Src/main.c ****   * @brief  Period elapsed callback in non blocking mode
 181:Core/Src/main.c ****   * @note   This function is called  when TIM6 interrupt took place, inside
 182:Core/Src/main.c ****   * HAL_TIM_IRQHandler(). It makes a direct call to HAL_IncTick() to increment
 183:Core/Src/main.c ****   * a global variable "uwTick" used as application time base.
 184:Core/Src/main.c ****   * @param  htim : TIM handle
 185:Core/Src/main.c ****   * @retval None
 186:Core/Src/main.c ****   */
 187:Core/Src/main.c **** void HAL_TIM_PeriodElapsedCallback(TIM_HandleTypeDef *htim)
 188:Core/Src/main.c **** {
  28              		.loc 1 188 1 view -0
  29              		.cfi_startproc
  30              		@ args = 0, pretend = 0, frame = 0
  31              		@ frame_needed = 0, uses_anonymous_args = 0
  32              		.loc 1 188 1 is_stmt 0 view .LVU1
  33 0000 08B5     		push	{r3, lr}
  34              	.LCFI0:
  35              		.cfi_def_cfa_offset 8
  36              		.cfi_offset 3, -8
  37              		.cfi_offset 14, -4
 189:Core/Src/main.c ****   /* USER CODE BEGIN Callback 0 */
 190:Core/Src/main.c **** 
 191:Core/Src/main.c ****   /* USER CODE END Callback 0 */
 192:Core/Src/main.c ****   if (htim->Instance == TIM6) {
ARM GAS  /tmp/ccCpqwiQ.s 			page 5


  38              		.loc 1 192 3 is_stmt 1 view .LVU2
  39              		.loc 1 192 11 is_stmt 0 view .LVU3
  40 0002 0268     		ldr	r2, [r0]
  41              		.loc 1 192 6 view .LVU4
  42 0004 034B     		ldr	r3, .L5
  43 0006 9A42     		cmp	r2, r3
  44 0008 00D0     		beq	.L4
  45              	.LVL1:
  46              	.L1:
 193:Core/Src/main.c ****     HAL_IncTick();
 194:Core/Src/main.c ****   }
 195:Core/Src/main.c ****   /* USER CODE BEGIN Callback 1 */
 196:Core/Src/main.c **** 
 197:Core/Src/main.c ****   /* USER CODE END Callback 1 */
 198:Core/Src/main.c **** }
  47              		.loc 1 198 1 view .LVU5
  48 000a 08BD     		pop	{r3, pc}
  49              	.LVL2:
  50              	.L4:
 193:Core/Src/main.c ****     HAL_IncTick();
  51              		.loc 1 193 5 is_stmt 1 view .LVU6
  52 000c FFF7FEFF 		bl	HAL_IncTick
  53              	.LVL3:
  54              		.loc 1 198 1 is_stmt 0 view .LVU7
  55 0010 FBE7     		b	.L1
  56              	.L6:
  57 0012 00BF     		.align	2
  58              	.L5:
  59 0014 00100040 		.word	1073745920
  60              		.cfi_endproc
  61              	.LFE824:
  63              		.section	.text.Error_Handler,"ax",%progbits
  64              		.align	1
  65              		.global	Error_Handler
  66              		.syntax unified
  67              		.thumb
  68              		.thumb_func
  70              	Error_Handler:
  71              	.LFB825:
 199:Core/Src/main.c **** 
 200:Core/Src/main.c **** /**
 201:Core/Src/main.c ****   * @brief  This function is executed in case of error occurrence.
 202:Core/Src/main.c ****   * @retval None
 203:Core/Src/main.c ****   */
 204:Core/Src/main.c **** void Error_Handler(void)
 205:Core/Src/main.c **** {
  72              		.loc 1 205 1 is_stmt 1 view -0
  73              		.cfi_startproc
  74              		@ Volatile: function does not return.
  75              		@ args = 0, pretend = 0, frame = 0
  76              		@ frame_needed = 0, uses_anonymous_args = 0
  77              		@ link register save eliminated.
 206:Core/Src/main.c ****   /* USER CODE BEGIN Error_Handler_Debug */
 207:Core/Src/main.c ****   /* User can add his own implementation to report the HAL error return state */
 208:Core/Src/main.c ****   __disable_irq();
  78              		.loc 1 208 3 view .LVU9
  79              	.LBB34:
ARM GAS  /tmp/ccCpqwiQ.s 			page 6


  80              	.LBI34:
  81              		.file 2 "Drivers/CMSIS/Include/cmsis_gcc.h"
   1:Drivers/CMSIS/Include/cmsis_gcc.h **** /**************************************************************************//**
   2:Drivers/CMSIS/Include/cmsis_gcc.h ****  * @file     cmsis_gcc.h
   3:Drivers/CMSIS/Include/cmsis_gcc.h ****  * @brief    CMSIS compiler GCC header file
   4:Drivers/CMSIS/Include/cmsis_gcc.h ****  * @version  V5.0.4
   5:Drivers/CMSIS/Include/cmsis_gcc.h ****  * @date     09. April 2018
   6:Drivers/CMSIS/Include/cmsis_gcc.h ****  ******************************************************************************/
   7:Drivers/CMSIS/Include/cmsis_gcc.h **** /*
   8:Drivers/CMSIS/Include/cmsis_gcc.h ****  * Copyright (c) 2009-2018 Arm Limited. All rights reserved.
   9:Drivers/CMSIS/Include/cmsis_gcc.h ****  *
  10:Drivers/CMSIS/Include/cmsis_gcc.h ****  * SPDX-License-Identifier: Apache-2.0
  11:Drivers/CMSIS/Include/cmsis_gcc.h ****  *
  12:Drivers/CMSIS/Include/cmsis_gcc.h ****  * Licensed under the Apache License, Version 2.0 (the License); you may
  13:Drivers/CMSIS/Include/cmsis_gcc.h ****  * not use this file except in compliance with the License.
  14:Drivers/CMSIS/Include/cmsis_gcc.h ****  * You may obtain a copy of the License at
  15:Drivers/CMSIS/Include/cmsis_gcc.h ****  *
  16:Drivers/CMSIS/Include/cmsis_gcc.h ****  * www.apache.org/licenses/LICENSE-2.0
  17:Drivers/CMSIS/Include/cmsis_gcc.h ****  *
  18:Drivers/CMSIS/Include/cmsis_gcc.h ****  * Unless required by applicable law or agreed to in writing, software
  19:Drivers/CMSIS/Include/cmsis_gcc.h ****  * distributed under the License is distributed on an AS IS BASIS, WITHOUT
  20:Drivers/CMSIS/Include/cmsis_gcc.h ****  * WARRANTIES OR CONDITIONS OF ANY KIND, either express or implied.
  21:Drivers/CMSIS/Include/cmsis_gcc.h ****  * See the License for the specific language governing permissions and
  22:Drivers/CMSIS/Include/cmsis_gcc.h ****  * limitations under the License.
  23:Drivers/CMSIS/Include/cmsis_gcc.h ****  */
  24:Drivers/CMSIS/Include/cmsis_gcc.h **** 
  25:Drivers/CMSIS/Include/cmsis_gcc.h **** #ifndef __CMSIS_GCC_H
  26:Drivers/CMSIS/Include/cmsis_gcc.h **** #define __CMSIS_GCC_H
  27:Drivers/CMSIS/Include/cmsis_gcc.h **** 
  28:Drivers/CMSIS/Include/cmsis_gcc.h **** /* ignore some GCC warnings */
  29:Drivers/CMSIS/Include/cmsis_gcc.h **** #pragma GCC diagnostic push
  30:Drivers/CMSIS/Include/cmsis_gcc.h **** #pragma GCC diagnostic ignored "-Wsign-conversion"
  31:Drivers/CMSIS/Include/cmsis_gcc.h **** #pragma GCC diagnostic ignored "-Wconversion"
  32:Drivers/CMSIS/Include/cmsis_gcc.h **** #pragma GCC diagnostic ignored "-Wunused-parameter"
  33:Drivers/CMSIS/Include/cmsis_gcc.h **** 
  34:Drivers/CMSIS/Include/cmsis_gcc.h **** /* Fallback for __has_builtin */
  35:Drivers/CMSIS/Include/cmsis_gcc.h **** #ifndef __has_builtin
  36:Drivers/CMSIS/Include/cmsis_gcc.h ****   #define __has_builtin(x) (0)
  37:Drivers/CMSIS/Include/cmsis_gcc.h **** #endif
  38:Drivers/CMSIS/Include/cmsis_gcc.h **** 
  39:Drivers/CMSIS/Include/cmsis_gcc.h **** /* CMSIS compiler specific defines */
  40:Drivers/CMSIS/Include/cmsis_gcc.h **** #ifndef   __ASM
  41:Drivers/CMSIS/Include/cmsis_gcc.h ****   #define __ASM                                  __asm
  42:Drivers/CMSIS/Include/cmsis_gcc.h **** #endif
  43:Drivers/CMSIS/Include/cmsis_gcc.h **** #ifndef   __INLINE
  44:Drivers/CMSIS/Include/cmsis_gcc.h ****   #define __INLINE                               inline
  45:Drivers/CMSIS/Include/cmsis_gcc.h **** #endif
  46:Drivers/CMSIS/Include/cmsis_gcc.h **** #ifndef   __STATIC_INLINE
  47:Drivers/CMSIS/Include/cmsis_gcc.h ****   #define __STATIC_INLINE                        static inline
  48:Drivers/CMSIS/Include/cmsis_gcc.h **** #endif
  49:Drivers/CMSIS/Include/cmsis_gcc.h **** #ifndef   __STATIC_FORCEINLINE                 
  50:Drivers/CMSIS/Include/cmsis_gcc.h ****   #define __STATIC_FORCEINLINE                   __attribute__((always_inline)) static inline
  51:Drivers/CMSIS/Include/cmsis_gcc.h **** #endif                                           
  52:Drivers/CMSIS/Include/cmsis_gcc.h **** #ifndef   __NO_RETURN
  53:Drivers/CMSIS/Include/cmsis_gcc.h ****   #define __NO_RETURN                            __attribute__((__noreturn__))
  54:Drivers/CMSIS/Include/cmsis_gcc.h **** #endif
  55:Drivers/CMSIS/Include/cmsis_gcc.h **** #ifndef   __USED
ARM GAS  /tmp/ccCpqwiQ.s 			page 7


  56:Drivers/CMSIS/Include/cmsis_gcc.h ****   #define __USED                                 __attribute__((used))
  57:Drivers/CMSIS/Include/cmsis_gcc.h **** #endif
  58:Drivers/CMSIS/Include/cmsis_gcc.h **** #ifndef   __WEAK
  59:Drivers/CMSIS/Include/cmsis_gcc.h ****   #define __WEAK                                 __attribute__((weak))
  60:Drivers/CMSIS/Include/cmsis_gcc.h **** #endif
  61:Drivers/CMSIS/Include/cmsis_gcc.h **** #ifndef   __PACKED
  62:Drivers/CMSIS/Include/cmsis_gcc.h ****   #define __PACKED                               __attribute__((packed, aligned(1)))
  63:Drivers/CMSIS/Include/cmsis_gcc.h **** #endif
  64:Drivers/CMSIS/Include/cmsis_gcc.h **** #ifndef   __PACKED_STRUCT
  65:Drivers/CMSIS/Include/cmsis_gcc.h ****   #define __PACKED_STRUCT                        struct __attribute__((packed, aligned(1)))
  66:Drivers/CMSIS/Include/cmsis_gcc.h **** #endif
  67:Drivers/CMSIS/Include/cmsis_gcc.h **** #ifndef   __PACKED_UNION
  68:Drivers/CMSIS/Include/cmsis_gcc.h ****   #define __PACKED_UNION                         union __attribute__((packed, aligned(1)))
  69:Drivers/CMSIS/Include/cmsis_gcc.h **** #endif
  70:Drivers/CMSIS/Include/cmsis_gcc.h **** #ifndef   __UNALIGNED_UINT32        /* deprecated */
  71:Drivers/CMSIS/Include/cmsis_gcc.h ****   #pragma GCC diagnostic push
  72:Drivers/CMSIS/Include/cmsis_gcc.h ****   #pragma GCC diagnostic ignored "-Wpacked"
  73:Drivers/CMSIS/Include/cmsis_gcc.h ****   #pragma GCC diagnostic ignored "-Wattributes"
  74:Drivers/CMSIS/Include/cmsis_gcc.h ****   struct __attribute__((packed)) T_UINT32 { uint32_t v; };
  75:Drivers/CMSIS/Include/cmsis_gcc.h ****   #pragma GCC diagnostic pop
  76:Drivers/CMSIS/Include/cmsis_gcc.h ****   #define __UNALIGNED_UINT32(x)                  (((struct T_UINT32 *)(x))->v)
  77:Drivers/CMSIS/Include/cmsis_gcc.h **** #endif
  78:Drivers/CMSIS/Include/cmsis_gcc.h **** #ifndef   __UNALIGNED_UINT16_WRITE
  79:Drivers/CMSIS/Include/cmsis_gcc.h ****   #pragma GCC diagnostic push
  80:Drivers/CMSIS/Include/cmsis_gcc.h ****   #pragma GCC diagnostic ignored "-Wpacked"
  81:Drivers/CMSIS/Include/cmsis_gcc.h ****   #pragma GCC diagnostic ignored "-Wattributes"
  82:Drivers/CMSIS/Include/cmsis_gcc.h ****   __PACKED_STRUCT T_UINT16_WRITE { uint16_t v; };
  83:Drivers/CMSIS/Include/cmsis_gcc.h ****   #pragma GCC diagnostic pop
  84:Drivers/CMSIS/Include/cmsis_gcc.h ****   #define __UNALIGNED_UINT16_WRITE(addr, val)    (void)((((struct T_UINT16_WRITE *)(void *)(addr))-
  85:Drivers/CMSIS/Include/cmsis_gcc.h **** #endif
  86:Drivers/CMSIS/Include/cmsis_gcc.h **** #ifndef   __UNALIGNED_UINT16_READ
  87:Drivers/CMSIS/Include/cmsis_gcc.h ****   #pragma GCC diagnostic push
  88:Drivers/CMSIS/Include/cmsis_gcc.h ****   #pragma GCC diagnostic ignored "-Wpacked"
  89:Drivers/CMSIS/Include/cmsis_gcc.h ****   #pragma GCC diagnostic ignored "-Wattributes"
  90:Drivers/CMSIS/Include/cmsis_gcc.h ****   __PACKED_STRUCT T_UINT16_READ { uint16_t v; };
  91:Drivers/CMSIS/Include/cmsis_gcc.h ****   #pragma GCC diagnostic pop
  92:Drivers/CMSIS/Include/cmsis_gcc.h ****   #define __UNALIGNED_UINT16_READ(addr)          (((const struct T_UINT16_READ *)(const void *)(add
  93:Drivers/CMSIS/Include/cmsis_gcc.h **** #endif
  94:Drivers/CMSIS/Include/cmsis_gcc.h **** #ifndef   __UNALIGNED_UINT32_WRITE
  95:Drivers/CMSIS/Include/cmsis_gcc.h ****   #pragma GCC diagnostic push
  96:Drivers/CMSIS/Include/cmsis_gcc.h ****   #pragma GCC diagnostic ignored "-Wpacked"
  97:Drivers/CMSIS/Include/cmsis_gcc.h ****   #pragma GCC diagnostic ignored "-Wattributes"
  98:Drivers/CMSIS/Include/cmsis_gcc.h ****   __PACKED_STRUCT T_UINT32_WRITE { uint32_t v; };
  99:Drivers/CMSIS/Include/cmsis_gcc.h ****   #pragma GCC diagnostic pop
 100:Drivers/CMSIS/Include/cmsis_gcc.h ****   #define __UNALIGNED_UINT32_WRITE(addr, val)    (void)((((struct T_UINT32_WRITE *)(void *)(addr))-
 101:Drivers/CMSIS/Include/cmsis_gcc.h **** #endif
 102:Drivers/CMSIS/Include/cmsis_gcc.h **** #ifndef   __UNALIGNED_UINT32_READ
 103:Drivers/CMSIS/Include/cmsis_gcc.h ****   #pragma GCC diagnostic push
 104:Drivers/CMSIS/Include/cmsis_gcc.h ****   #pragma GCC diagnostic ignored "-Wpacked"
 105:Drivers/CMSIS/Include/cmsis_gcc.h ****   #pragma GCC diagnostic ignored "-Wattributes"
 106:Drivers/CMSIS/Include/cmsis_gcc.h ****   __PACKED_STRUCT T_UINT32_READ { uint32_t v; };
 107:Drivers/CMSIS/Include/cmsis_gcc.h ****   #pragma GCC diagnostic pop
 108:Drivers/CMSIS/Include/cmsis_gcc.h ****   #define __UNALIGNED_UINT32_READ(addr)          (((const struct T_UINT32_READ *)(const void *)(add
 109:Drivers/CMSIS/Include/cmsis_gcc.h **** #endif
 110:Drivers/CMSIS/Include/cmsis_gcc.h **** #ifndef   __ALIGNED
 111:Drivers/CMSIS/Include/cmsis_gcc.h ****   #define __ALIGNED(x)                           __attribute__((aligned(x)))
 112:Drivers/CMSIS/Include/cmsis_gcc.h **** #endif
ARM GAS  /tmp/ccCpqwiQ.s 			page 8


 113:Drivers/CMSIS/Include/cmsis_gcc.h **** #ifndef   __RESTRICT
 114:Drivers/CMSIS/Include/cmsis_gcc.h ****   #define __RESTRICT                             __restrict
 115:Drivers/CMSIS/Include/cmsis_gcc.h **** #endif
 116:Drivers/CMSIS/Include/cmsis_gcc.h **** 
 117:Drivers/CMSIS/Include/cmsis_gcc.h **** 
 118:Drivers/CMSIS/Include/cmsis_gcc.h **** /* ###########################  Core Function Access  ########################### */
 119:Drivers/CMSIS/Include/cmsis_gcc.h **** /** \ingroup  CMSIS_Core_FunctionInterface
 120:Drivers/CMSIS/Include/cmsis_gcc.h ****     \defgroup CMSIS_Core_RegAccFunctions CMSIS Core Register Access Functions
 121:Drivers/CMSIS/Include/cmsis_gcc.h ****   @{
 122:Drivers/CMSIS/Include/cmsis_gcc.h ****  */
 123:Drivers/CMSIS/Include/cmsis_gcc.h **** 
 124:Drivers/CMSIS/Include/cmsis_gcc.h **** /**
 125:Drivers/CMSIS/Include/cmsis_gcc.h ****   \brief   Enable IRQ Interrupts
 126:Drivers/CMSIS/Include/cmsis_gcc.h ****   \details Enables IRQ interrupts by clearing the I-bit in the CPSR.
 127:Drivers/CMSIS/Include/cmsis_gcc.h ****            Can only be executed in Privileged modes.
 128:Drivers/CMSIS/Include/cmsis_gcc.h ****  */
 129:Drivers/CMSIS/Include/cmsis_gcc.h **** __STATIC_FORCEINLINE void __enable_irq(void)
 130:Drivers/CMSIS/Include/cmsis_gcc.h **** {
 131:Drivers/CMSIS/Include/cmsis_gcc.h ****   __ASM volatile ("cpsie i" : : : "memory");
 132:Drivers/CMSIS/Include/cmsis_gcc.h **** }
 133:Drivers/CMSIS/Include/cmsis_gcc.h **** 
 134:Drivers/CMSIS/Include/cmsis_gcc.h **** 
 135:Drivers/CMSIS/Include/cmsis_gcc.h **** /**
 136:Drivers/CMSIS/Include/cmsis_gcc.h ****   \brief   Disable IRQ Interrupts
 137:Drivers/CMSIS/Include/cmsis_gcc.h ****   \details Disables IRQ interrupts by setting the I-bit in the CPSR.
 138:Drivers/CMSIS/Include/cmsis_gcc.h ****            Can only be executed in Privileged modes.
 139:Drivers/CMSIS/Include/cmsis_gcc.h ****  */
 140:Drivers/CMSIS/Include/cmsis_gcc.h **** __STATIC_FORCEINLINE void __disable_irq(void)
  82              		.loc 2 140 27 view .LVU10
  83              	.LBB35:
 141:Drivers/CMSIS/Include/cmsis_gcc.h **** {
 142:Drivers/CMSIS/Include/cmsis_gcc.h ****   __ASM volatile ("cpsid i" : : : "memory");
  84              		.loc 2 142 3 view .LVU11
  85              		.syntax unified
  86              	@ 142 "Drivers/CMSIS/Include/cmsis_gcc.h" 1
  87 0000 72B6     		cpsid i
  88              	@ 0 "" 2
  89              		.thumb
  90              		.syntax unified
  91              	.L8:
  92              	.LBE35:
  93              	.LBE34:
 209:Core/Src/main.c ****   while (1)
  94              		.loc 1 209 3 discriminator 1 view .LVU12
 210:Core/Src/main.c ****   {
 211:Core/Src/main.c ****   }
  95              		.loc 1 211 3 discriminator 1 view .LVU13
 209:Core/Src/main.c ****   while (1)
  96              		.loc 1 209 9 discriminator 1 view .LVU14
  97 0002 FEE7     		b	.L8
  98              		.cfi_endproc
  99              	.LFE825:
 101              		.section	.text.SystemClock_Config,"ax",%progbits
 102              		.align	1
 103              		.global	SystemClock_Config
 104              		.syntax unified
 105              		.thumb
ARM GAS  /tmp/ccCpqwiQ.s 			page 9


 106              		.thumb_func
 108              	SystemClock_Config:
 109              	.LFB823:
 129:Core/Src/main.c **** 
 110              		.loc 1 129 1 view -0
 111              		.cfi_startproc
 112              		@ args = 0, pretend = 0, frame = 0
 113              		@ frame_needed = 0, uses_anonymous_args = 0
 114 0000 08B5     		push	{r3, lr}
 115              	.LCFI1:
 116              		.cfi_def_cfa_offset 8
 117              		.cfi_offset 3, -8
 118              		.cfi_offset 14, -4
 131:Core/Src/main.c **** 
 119              		.loc 1 131 3 view .LVU16
 120              	.LBB36:
 121              	.LBI36:
 122              		.file 3 "Drivers/STM32L1xx_HAL_Driver/Inc/stm32l1xx_ll_system.h"
   1:Drivers/STM32L1xx_HAL_Driver/Inc/stm32l1xx_ll_system.h **** /**
   2:Drivers/STM32L1xx_HAL_Driver/Inc/stm32l1xx_ll_system.h ****   ******************************************************************************
   3:Drivers/STM32L1xx_HAL_Driver/Inc/stm32l1xx_ll_system.h ****   * @file    stm32l1xx_ll_system.h
   4:Drivers/STM32L1xx_HAL_Driver/Inc/stm32l1xx_ll_system.h ****   * @author  MCD Application Team
   5:Drivers/STM32L1xx_HAL_Driver/Inc/stm32l1xx_ll_system.h ****   * @brief   Header file of SYSTEM LL module.
   6:Drivers/STM32L1xx_HAL_Driver/Inc/stm32l1xx_ll_system.h ****   *
   7:Drivers/STM32L1xx_HAL_Driver/Inc/stm32l1xx_ll_system.h ****   ******************************************************************************
   8:Drivers/STM32L1xx_HAL_Driver/Inc/stm32l1xx_ll_system.h ****   * @attention
   9:Drivers/STM32L1xx_HAL_Driver/Inc/stm32l1xx_ll_system.h ****   *
  10:Drivers/STM32L1xx_HAL_Driver/Inc/stm32l1xx_ll_system.h ****   * Copyright (c) 2017 STMicroelectronics.
  11:Drivers/STM32L1xx_HAL_Driver/Inc/stm32l1xx_ll_system.h ****   * All rights reserved.
  12:Drivers/STM32L1xx_HAL_Driver/Inc/stm32l1xx_ll_system.h ****   *
  13:Drivers/STM32L1xx_HAL_Driver/Inc/stm32l1xx_ll_system.h ****   * This software is licensed under terms that can be found in the LICENSE file
  14:Drivers/STM32L1xx_HAL_Driver/Inc/stm32l1xx_ll_system.h ****   * in the root directory of this software component.
  15:Drivers/STM32L1xx_HAL_Driver/Inc/stm32l1xx_ll_system.h ****   * If no LICENSE file comes with this software, it is provided AS-IS.
  16:Drivers/STM32L1xx_HAL_Driver/Inc/stm32l1xx_ll_system.h ****   *
  17:Drivers/STM32L1xx_HAL_Driver/Inc/stm32l1xx_ll_system.h ****   ******************************************************************************
  18:Drivers/STM32L1xx_HAL_Driver/Inc/stm32l1xx_ll_system.h ****   @verbatim
  19:Drivers/STM32L1xx_HAL_Driver/Inc/stm32l1xx_ll_system.h ****   ==============================================================================
  20:Drivers/STM32L1xx_HAL_Driver/Inc/stm32l1xx_ll_system.h ****                      ##### How to use this driver #####
  21:Drivers/STM32L1xx_HAL_Driver/Inc/stm32l1xx_ll_system.h ****   ==============================================================================
  22:Drivers/STM32L1xx_HAL_Driver/Inc/stm32l1xx_ll_system.h ****     [..]
  23:Drivers/STM32L1xx_HAL_Driver/Inc/stm32l1xx_ll_system.h ****     The LL SYSTEM driver contains a set of generic APIs that can be
  24:Drivers/STM32L1xx_HAL_Driver/Inc/stm32l1xx_ll_system.h ****     used by user:
  25:Drivers/STM32L1xx_HAL_Driver/Inc/stm32l1xx_ll_system.h ****       (+) Some of the FLASH features need to be handled in the SYSTEM file.
  26:Drivers/STM32L1xx_HAL_Driver/Inc/stm32l1xx_ll_system.h ****       (+) Access to DBGCMU registers
  27:Drivers/STM32L1xx_HAL_Driver/Inc/stm32l1xx_ll_system.h ****       (+) Access to SYSCFG registers
  28:Drivers/STM32L1xx_HAL_Driver/Inc/stm32l1xx_ll_system.h ****       (+) Access to Routing Interfaces registers
  29:Drivers/STM32L1xx_HAL_Driver/Inc/stm32l1xx_ll_system.h **** 
  30:Drivers/STM32L1xx_HAL_Driver/Inc/stm32l1xx_ll_system.h ****   @endverbatim
  31:Drivers/STM32L1xx_HAL_Driver/Inc/stm32l1xx_ll_system.h ****   ******************************************************************************
  32:Drivers/STM32L1xx_HAL_Driver/Inc/stm32l1xx_ll_system.h ****   */
  33:Drivers/STM32L1xx_HAL_Driver/Inc/stm32l1xx_ll_system.h **** 
  34:Drivers/STM32L1xx_HAL_Driver/Inc/stm32l1xx_ll_system.h **** /* Define to prevent recursive inclusion -------------------------------------*/
  35:Drivers/STM32L1xx_HAL_Driver/Inc/stm32l1xx_ll_system.h **** #ifndef __STM32L1xx_LL_SYSTEM_H
  36:Drivers/STM32L1xx_HAL_Driver/Inc/stm32l1xx_ll_system.h **** #define __STM32L1xx_LL_SYSTEM_H
  37:Drivers/STM32L1xx_HAL_Driver/Inc/stm32l1xx_ll_system.h **** 
  38:Drivers/STM32L1xx_HAL_Driver/Inc/stm32l1xx_ll_system.h **** #ifdef __cplusplus
  39:Drivers/STM32L1xx_HAL_Driver/Inc/stm32l1xx_ll_system.h **** extern "C" {
ARM GAS  /tmp/ccCpqwiQ.s 			page 10


  40:Drivers/STM32L1xx_HAL_Driver/Inc/stm32l1xx_ll_system.h **** #endif
  41:Drivers/STM32L1xx_HAL_Driver/Inc/stm32l1xx_ll_system.h **** 
  42:Drivers/STM32L1xx_HAL_Driver/Inc/stm32l1xx_ll_system.h **** /* Includes ------------------------------------------------------------------*/
  43:Drivers/STM32L1xx_HAL_Driver/Inc/stm32l1xx_ll_system.h **** #include "stm32l1xx.h"
  44:Drivers/STM32L1xx_HAL_Driver/Inc/stm32l1xx_ll_system.h **** 
  45:Drivers/STM32L1xx_HAL_Driver/Inc/stm32l1xx_ll_system.h **** /** @addtogroup STM32L1xx_LL_Driver
  46:Drivers/STM32L1xx_HAL_Driver/Inc/stm32l1xx_ll_system.h ****   * @{
  47:Drivers/STM32L1xx_HAL_Driver/Inc/stm32l1xx_ll_system.h ****   */
  48:Drivers/STM32L1xx_HAL_Driver/Inc/stm32l1xx_ll_system.h **** 
  49:Drivers/STM32L1xx_HAL_Driver/Inc/stm32l1xx_ll_system.h **** #if defined (FLASH) || defined (SYSCFG) || defined (DBGMCU) || defined(RI)
  50:Drivers/STM32L1xx_HAL_Driver/Inc/stm32l1xx_ll_system.h **** 
  51:Drivers/STM32L1xx_HAL_Driver/Inc/stm32l1xx_ll_system.h **** /** @defgroup SYSTEM_LL SYSTEM
  52:Drivers/STM32L1xx_HAL_Driver/Inc/stm32l1xx_ll_system.h ****   * @{
  53:Drivers/STM32L1xx_HAL_Driver/Inc/stm32l1xx_ll_system.h ****   */
  54:Drivers/STM32L1xx_HAL_Driver/Inc/stm32l1xx_ll_system.h **** 
  55:Drivers/STM32L1xx_HAL_Driver/Inc/stm32l1xx_ll_system.h **** /* Private types -------------------------------------------------------------*/
  56:Drivers/STM32L1xx_HAL_Driver/Inc/stm32l1xx_ll_system.h **** /* Private variables ---------------------------------------------------------*/
  57:Drivers/STM32L1xx_HAL_Driver/Inc/stm32l1xx_ll_system.h **** 
  58:Drivers/STM32L1xx_HAL_Driver/Inc/stm32l1xx_ll_system.h **** /* Private constants ---------------------------------------------------------*/
  59:Drivers/STM32L1xx_HAL_Driver/Inc/stm32l1xx_ll_system.h **** /** @defgroup SYSTEM_LL_Private_Constants SYSTEM Private Constants
  60:Drivers/STM32L1xx_HAL_Driver/Inc/stm32l1xx_ll_system.h ****   * @{
  61:Drivers/STM32L1xx_HAL_Driver/Inc/stm32l1xx_ll_system.h ****   */
  62:Drivers/STM32L1xx_HAL_Driver/Inc/stm32l1xx_ll_system.h **** 
  63:Drivers/STM32L1xx_HAL_Driver/Inc/stm32l1xx_ll_system.h **** /**
  64:Drivers/STM32L1xx_HAL_Driver/Inc/stm32l1xx_ll_system.h ****  * @brief Power-down in Run mode Flash key
  65:Drivers/STM32L1xx_HAL_Driver/Inc/stm32l1xx_ll_system.h ****  */
  66:Drivers/STM32L1xx_HAL_Driver/Inc/stm32l1xx_ll_system.h **** #define FLASH_PDKEY1                  (0x04152637U) /*!< Flash power down key1 */
  67:Drivers/STM32L1xx_HAL_Driver/Inc/stm32l1xx_ll_system.h **** #define FLASH_PDKEY2                  (0xFAFBFCFDU) /*!< Flash power down key2: used with FLASH_PDK
  68:Drivers/STM32L1xx_HAL_Driver/Inc/stm32l1xx_ll_system.h ****                                                        to unlock the RUN_PD bit in FLASH_ACR */
  69:Drivers/STM32L1xx_HAL_Driver/Inc/stm32l1xx_ll_system.h **** 
  70:Drivers/STM32L1xx_HAL_Driver/Inc/stm32l1xx_ll_system.h **** /**
  71:Drivers/STM32L1xx_HAL_Driver/Inc/stm32l1xx_ll_system.h ****   * @}
  72:Drivers/STM32L1xx_HAL_Driver/Inc/stm32l1xx_ll_system.h ****   */
  73:Drivers/STM32L1xx_HAL_Driver/Inc/stm32l1xx_ll_system.h **** 
  74:Drivers/STM32L1xx_HAL_Driver/Inc/stm32l1xx_ll_system.h **** /* Private macros ------------------------------------------------------------*/
  75:Drivers/STM32L1xx_HAL_Driver/Inc/stm32l1xx_ll_system.h **** 
  76:Drivers/STM32L1xx_HAL_Driver/Inc/stm32l1xx_ll_system.h **** /* Exported types ------------------------------------------------------------*/
  77:Drivers/STM32L1xx_HAL_Driver/Inc/stm32l1xx_ll_system.h **** /* Exported constants --------------------------------------------------------*/
  78:Drivers/STM32L1xx_HAL_Driver/Inc/stm32l1xx_ll_system.h **** /** @defgroup SYSTEM_LL_Exported_Constants SYSTEM Exported Constants
  79:Drivers/STM32L1xx_HAL_Driver/Inc/stm32l1xx_ll_system.h ****   * @{
  80:Drivers/STM32L1xx_HAL_Driver/Inc/stm32l1xx_ll_system.h ****   */
  81:Drivers/STM32L1xx_HAL_Driver/Inc/stm32l1xx_ll_system.h **** 
  82:Drivers/STM32L1xx_HAL_Driver/Inc/stm32l1xx_ll_system.h **** /** @defgroup SYSTEM_LL_EC_REMAP SYSCFG REMAP
  83:Drivers/STM32L1xx_HAL_Driver/Inc/stm32l1xx_ll_system.h **** * @{
  84:Drivers/STM32L1xx_HAL_Driver/Inc/stm32l1xx_ll_system.h **** */
  85:Drivers/STM32L1xx_HAL_Driver/Inc/stm32l1xx_ll_system.h **** #define LL_SYSCFG_REMAP_FLASH              (0x00000000U)                                         /*
  86:Drivers/STM32L1xx_HAL_Driver/Inc/stm32l1xx_ll_system.h **** #define LL_SYSCFG_REMAP_SYSTEMFLASH        SYSCFG_MEMRMP_MEM_MODE_0                              /*
  87:Drivers/STM32L1xx_HAL_Driver/Inc/stm32l1xx_ll_system.h **** #define LL_SYSCFG_REMAP_SRAM               (SYSCFG_MEMRMP_MEM_MODE_1 | SYSCFG_MEMRMP_MEM_MODE_0) /*
  88:Drivers/STM32L1xx_HAL_Driver/Inc/stm32l1xx_ll_system.h **** #if defined(FSMC_R_BASE)
  89:Drivers/STM32L1xx_HAL_Driver/Inc/stm32l1xx_ll_system.h **** #define LL_SYSCFG_REMAP_FMC                SYSCFG_MEMRMP_MEM_MODE_1                              /*
  90:Drivers/STM32L1xx_HAL_Driver/Inc/stm32l1xx_ll_system.h **** #endif /* FSMC_R_BASE */
  91:Drivers/STM32L1xx_HAL_Driver/Inc/stm32l1xx_ll_system.h **** /**
  92:Drivers/STM32L1xx_HAL_Driver/Inc/stm32l1xx_ll_system.h ****   * @}
  93:Drivers/STM32L1xx_HAL_Driver/Inc/stm32l1xx_ll_system.h ****   */
  94:Drivers/STM32L1xx_HAL_Driver/Inc/stm32l1xx_ll_system.h **** 
  95:Drivers/STM32L1xx_HAL_Driver/Inc/stm32l1xx_ll_system.h **** /** @defgroup SYSTEM_LL_EC_BOOT SYSCFG BOOT MODE
  96:Drivers/STM32L1xx_HAL_Driver/Inc/stm32l1xx_ll_system.h ****   * @{
ARM GAS  /tmp/ccCpqwiQ.s 			page 11


  97:Drivers/STM32L1xx_HAL_Driver/Inc/stm32l1xx_ll_system.h ****   */
  98:Drivers/STM32L1xx_HAL_Driver/Inc/stm32l1xx_ll_system.h **** #define LL_SYSCFG_BOOTMODE_FLASH               (0x00000000U)             /*<! Main Flash memory boo
  99:Drivers/STM32L1xx_HAL_Driver/Inc/stm32l1xx_ll_system.h **** #define LL_SYSCFG_BOOTMODE_SYSTEMFLASH         SYSCFG_MEMRMP_BOOT_MODE_0 /*<! System Flash memory b
 100:Drivers/STM32L1xx_HAL_Driver/Inc/stm32l1xx_ll_system.h **** #if defined(FSMC_BANK1)
 101:Drivers/STM32L1xx_HAL_Driver/Inc/stm32l1xx_ll_system.h **** #define LL_SYSCFG_BOOTMODE_FSMC                SYSCFG_MEMRMP_BOOT_MODE_1 /*<! FSMC boot mode */
 102:Drivers/STM32L1xx_HAL_Driver/Inc/stm32l1xx_ll_system.h **** #endif /* FSMC_BANK1 */
 103:Drivers/STM32L1xx_HAL_Driver/Inc/stm32l1xx_ll_system.h **** #define LL_SYSCFG_BOOTMODE_SRAM                SYSCFG_MEMRMP_BOOT_MODE   /*<! Embedded SRAM boot mo
 104:Drivers/STM32L1xx_HAL_Driver/Inc/stm32l1xx_ll_system.h **** /**
 105:Drivers/STM32L1xx_HAL_Driver/Inc/stm32l1xx_ll_system.h ****   * @}
 106:Drivers/STM32L1xx_HAL_Driver/Inc/stm32l1xx_ll_system.h ****   */
 107:Drivers/STM32L1xx_HAL_Driver/Inc/stm32l1xx_ll_system.h **** 
 108:Drivers/STM32L1xx_HAL_Driver/Inc/stm32l1xx_ll_system.h **** #if defined(LCD)
 109:Drivers/STM32L1xx_HAL_Driver/Inc/stm32l1xx_ll_system.h **** /** @defgroup SYSTEM_LL_EC_LCDCAPA SYSCFG LCD capacitance connection
 110:Drivers/STM32L1xx_HAL_Driver/Inc/stm32l1xx_ll_system.h ****   * @{
 111:Drivers/STM32L1xx_HAL_Driver/Inc/stm32l1xx_ll_system.h ****   */
 112:Drivers/STM32L1xx_HAL_Driver/Inc/stm32l1xx_ll_system.h **** #define LL_SYSCFG_LCDCAPA_PB2              SYSCFG_PMC_LCD_CAPA_0 /*<! controls the connection of VL
 113:Drivers/STM32L1xx_HAL_Driver/Inc/stm32l1xx_ll_system.h **** #define LL_SYSCFG_LCDCAPA_PB12             SYSCFG_PMC_LCD_CAPA_1 /*<! controls the connection of VL
 114:Drivers/STM32L1xx_HAL_Driver/Inc/stm32l1xx_ll_system.h **** #define LL_SYSCFG_LCDCAPA_PB0              SYSCFG_PMC_LCD_CAPA_2 /*<! controls the connection of VL
 115:Drivers/STM32L1xx_HAL_Driver/Inc/stm32l1xx_ll_system.h **** #define LL_SYSCFG_LCDCAPA_PE11             SYSCFG_PMC_LCD_CAPA_3 /*<! controls the connection of VL
 116:Drivers/STM32L1xx_HAL_Driver/Inc/stm32l1xx_ll_system.h **** #define LL_SYSCFG_LCDCAPA_PE12             SYSCFG_PMC_LCD_CAPA_4 /*<! controls the connection of VL
 117:Drivers/STM32L1xx_HAL_Driver/Inc/stm32l1xx_ll_system.h **** /**
 118:Drivers/STM32L1xx_HAL_Driver/Inc/stm32l1xx_ll_system.h ****   * @}
 119:Drivers/STM32L1xx_HAL_Driver/Inc/stm32l1xx_ll_system.h ****   */
 120:Drivers/STM32L1xx_HAL_Driver/Inc/stm32l1xx_ll_system.h **** 
 121:Drivers/STM32L1xx_HAL_Driver/Inc/stm32l1xx_ll_system.h **** #endif /* LCD */
 122:Drivers/STM32L1xx_HAL_Driver/Inc/stm32l1xx_ll_system.h **** 
 123:Drivers/STM32L1xx_HAL_Driver/Inc/stm32l1xx_ll_system.h **** /** @defgroup SYSTEM_LL_EC_EXTI SYSCFG EXTI PORT
 124:Drivers/STM32L1xx_HAL_Driver/Inc/stm32l1xx_ll_system.h ****   * @{
 125:Drivers/STM32L1xx_HAL_Driver/Inc/stm32l1xx_ll_system.h ****   */
 126:Drivers/STM32L1xx_HAL_Driver/Inc/stm32l1xx_ll_system.h **** #define LL_SYSCFG_EXTI_PORTA               0U /*!< EXTI PORT A                        */
 127:Drivers/STM32L1xx_HAL_Driver/Inc/stm32l1xx_ll_system.h **** #define LL_SYSCFG_EXTI_PORTB               1U /*!< EXTI PORT B                        */
 128:Drivers/STM32L1xx_HAL_Driver/Inc/stm32l1xx_ll_system.h **** #define LL_SYSCFG_EXTI_PORTC               2U /*!< EXTI PORT C                        */
 129:Drivers/STM32L1xx_HAL_Driver/Inc/stm32l1xx_ll_system.h **** #define LL_SYSCFG_EXTI_PORTD               3U /*!< EXTI PORT D                        */
 130:Drivers/STM32L1xx_HAL_Driver/Inc/stm32l1xx_ll_system.h **** #if defined(GPIOE)
 131:Drivers/STM32L1xx_HAL_Driver/Inc/stm32l1xx_ll_system.h **** #define LL_SYSCFG_EXTI_PORTE               4U /*!< EXTI PORT E                        */
 132:Drivers/STM32L1xx_HAL_Driver/Inc/stm32l1xx_ll_system.h **** #endif /* GPIOE */
 133:Drivers/STM32L1xx_HAL_Driver/Inc/stm32l1xx_ll_system.h **** #if defined(GPIOF)
 134:Drivers/STM32L1xx_HAL_Driver/Inc/stm32l1xx_ll_system.h **** #define LL_SYSCFG_EXTI_PORTF               6U /*!< EXTI PORT F                        */
 135:Drivers/STM32L1xx_HAL_Driver/Inc/stm32l1xx_ll_system.h **** #endif /* GPIOF */
 136:Drivers/STM32L1xx_HAL_Driver/Inc/stm32l1xx_ll_system.h **** #if defined(GPIOG)
 137:Drivers/STM32L1xx_HAL_Driver/Inc/stm32l1xx_ll_system.h **** #define LL_SYSCFG_EXTI_PORTG               7U /*!< EXTI PORT G                        */
 138:Drivers/STM32L1xx_HAL_Driver/Inc/stm32l1xx_ll_system.h **** #endif /* GPIOG */
 139:Drivers/STM32L1xx_HAL_Driver/Inc/stm32l1xx_ll_system.h **** #define LL_SYSCFG_EXTI_PORTH               5U /*!< EXTI PORT H                        */
 140:Drivers/STM32L1xx_HAL_Driver/Inc/stm32l1xx_ll_system.h **** /**
 141:Drivers/STM32L1xx_HAL_Driver/Inc/stm32l1xx_ll_system.h ****   * @}
 142:Drivers/STM32L1xx_HAL_Driver/Inc/stm32l1xx_ll_system.h ****   */
 143:Drivers/STM32L1xx_HAL_Driver/Inc/stm32l1xx_ll_system.h **** 
 144:Drivers/STM32L1xx_HAL_Driver/Inc/stm32l1xx_ll_system.h **** /** @addtogroup SYSTEM_LL_EC_SYSCFG EXTI LINE
 145:Drivers/STM32L1xx_HAL_Driver/Inc/stm32l1xx_ll_system.h ****   * @{
 146:Drivers/STM32L1xx_HAL_Driver/Inc/stm32l1xx_ll_system.h ****   */
 147:Drivers/STM32L1xx_HAL_Driver/Inc/stm32l1xx_ll_system.h **** #define LL_SYSCFG_EXTI_LINE0               (uint32_t)(0x000FU << 16U | 0U)  /* EXTI_POSITION_0 | EX
 148:Drivers/STM32L1xx_HAL_Driver/Inc/stm32l1xx_ll_system.h **** #define LL_SYSCFG_EXTI_LINE1               (uint32_t)(0x00F0U << 16U | 0U)  /* EXTI_POSITION_4 | EX
 149:Drivers/STM32L1xx_HAL_Driver/Inc/stm32l1xx_ll_system.h **** #define LL_SYSCFG_EXTI_LINE2               (uint32_t)(0x0F00U << 16U | 0U)  /* EXTI_POSITION_8 | EX
 150:Drivers/STM32L1xx_HAL_Driver/Inc/stm32l1xx_ll_system.h **** #define LL_SYSCFG_EXTI_LINE3               (uint32_t)(0xF000U << 16U | 0U)  /* EXTI_POSITION_12 | E
 151:Drivers/STM32L1xx_HAL_Driver/Inc/stm32l1xx_ll_system.h **** #define LL_SYSCFG_EXTI_LINE4               (uint32_t)(0x000FU << 16U | 1U)  /* EXTI_POSITION_0 | EX
 152:Drivers/STM32L1xx_HAL_Driver/Inc/stm32l1xx_ll_system.h **** #define LL_SYSCFG_EXTI_LINE5               (uint32_t)(0x00F0U << 16U | 1U)  /* EXTI_POSITION_4 | EX
 153:Drivers/STM32L1xx_HAL_Driver/Inc/stm32l1xx_ll_system.h **** #define LL_SYSCFG_EXTI_LINE6               (uint32_t)(0x0F00U << 16U | 1U)  /* EXTI_POSITION_8 | EX
ARM GAS  /tmp/ccCpqwiQ.s 			page 12


 154:Drivers/STM32L1xx_HAL_Driver/Inc/stm32l1xx_ll_system.h **** #define LL_SYSCFG_EXTI_LINE7               (uint32_t)(0xF000U << 16U | 1U)  /* EXTI_POSITION_12 | E
 155:Drivers/STM32L1xx_HAL_Driver/Inc/stm32l1xx_ll_system.h **** #define LL_SYSCFG_EXTI_LINE8               (uint32_t)(0x000FU << 16U | 2U)  /* EXTI_POSITION_0 | EX
 156:Drivers/STM32L1xx_HAL_Driver/Inc/stm32l1xx_ll_system.h **** #define LL_SYSCFG_EXTI_LINE9               (uint32_t)(0x00F0U << 16U | 2U)  /* EXTI_POSITION_4 | EX
 157:Drivers/STM32L1xx_HAL_Driver/Inc/stm32l1xx_ll_system.h **** #define LL_SYSCFG_EXTI_LINE10              (uint32_t)(0x0F00U << 16U | 2U)  /* EXTI_POSITION_8 | EX
 158:Drivers/STM32L1xx_HAL_Driver/Inc/stm32l1xx_ll_system.h **** #define LL_SYSCFG_EXTI_LINE11              (uint32_t)(0xF000U << 16U | 2U)  /* EXTI_POSITION_12 | E
 159:Drivers/STM32L1xx_HAL_Driver/Inc/stm32l1xx_ll_system.h **** #define LL_SYSCFG_EXTI_LINE12              (uint32_t)(0x000FU << 16U | 3U)  /* EXTI_POSITION_0 | EX
 160:Drivers/STM32L1xx_HAL_Driver/Inc/stm32l1xx_ll_system.h **** #define LL_SYSCFG_EXTI_LINE13              (uint32_t)(0x00F0U << 16U | 3U)  /* EXTI_POSITION_4 | EX
 161:Drivers/STM32L1xx_HAL_Driver/Inc/stm32l1xx_ll_system.h **** #define LL_SYSCFG_EXTI_LINE14              (uint32_t)(0x0F00U << 16U | 3U)  /* EXTI_POSITION_8 | EX
 162:Drivers/STM32L1xx_HAL_Driver/Inc/stm32l1xx_ll_system.h **** #define LL_SYSCFG_EXTI_LINE15              (uint32_t)(0xF000U << 16U | 3U)  /* EXTI_POSITION_12 | E
 163:Drivers/STM32L1xx_HAL_Driver/Inc/stm32l1xx_ll_system.h **** /**
 164:Drivers/STM32L1xx_HAL_Driver/Inc/stm32l1xx_ll_system.h ****   * @}
 165:Drivers/STM32L1xx_HAL_Driver/Inc/stm32l1xx_ll_system.h ****   */
 166:Drivers/STM32L1xx_HAL_Driver/Inc/stm32l1xx_ll_system.h **** 
 167:Drivers/STM32L1xx_HAL_Driver/Inc/stm32l1xx_ll_system.h **** /** @defgroup SYSTEM_LL_EC_TRACE DBGMCU TRACE Pin Assignment
 168:Drivers/STM32L1xx_HAL_Driver/Inc/stm32l1xx_ll_system.h ****   * @{
 169:Drivers/STM32L1xx_HAL_Driver/Inc/stm32l1xx_ll_system.h ****   */
 170:Drivers/STM32L1xx_HAL_Driver/Inc/stm32l1xx_ll_system.h **** #define LL_DBGMCU_TRACE_NONE               0x00000000U                                     /*!< TRA
 171:Drivers/STM32L1xx_HAL_Driver/Inc/stm32l1xx_ll_system.h **** #define LL_DBGMCU_TRACE_ASYNCH             DBGMCU_CR_TRACE_IOEN                            /*!< TRA
 172:Drivers/STM32L1xx_HAL_Driver/Inc/stm32l1xx_ll_system.h **** #define LL_DBGMCU_TRACE_SYNCH_SIZE1        (DBGMCU_CR_TRACE_IOEN | DBGMCU_CR_TRACE_MODE_0) /*!< TRA
 173:Drivers/STM32L1xx_HAL_Driver/Inc/stm32l1xx_ll_system.h **** #define LL_DBGMCU_TRACE_SYNCH_SIZE2        (DBGMCU_CR_TRACE_IOEN | DBGMCU_CR_TRACE_MODE_1) /*!< TRA
 174:Drivers/STM32L1xx_HAL_Driver/Inc/stm32l1xx_ll_system.h **** #define LL_DBGMCU_TRACE_SYNCH_SIZE4        (DBGMCU_CR_TRACE_IOEN | DBGMCU_CR_TRACE_MODE)   /*!< TRA
 175:Drivers/STM32L1xx_HAL_Driver/Inc/stm32l1xx_ll_system.h **** /**
 176:Drivers/STM32L1xx_HAL_Driver/Inc/stm32l1xx_ll_system.h ****   * @}
 177:Drivers/STM32L1xx_HAL_Driver/Inc/stm32l1xx_ll_system.h ****   */
 178:Drivers/STM32L1xx_HAL_Driver/Inc/stm32l1xx_ll_system.h **** 
 179:Drivers/STM32L1xx_HAL_Driver/Inc/stm32l1xx_ll_system.h **** /** @defgroup SYSTEM_LL_EC_APB1_GRP1_STOP_IP DBGMCU APB1 GRP1 STOP IP
 180:Drivers/STM32L1xx_HAL_Driver/Inc/stm32l1xx_ll_system.h ****   * @{
 181:Drivers/STM32L1xx_HAL_Driver/Inc/stm32l1xx_ll_system.h ****   */
 182:Drivers/STM32L1xx_HAL_Driver/Inc/stm32l1xx_ll_system.h **** #define LL_DBGMCU_APB1_GRP1_TIM2_STOP      DBGMCU_APB1_FZ_DBG_TIM2_STOP             /*!< TIM2 count
 183:Drivers/STM32L1xx_HAL_Driver/Inc/stm32l1xx_ll_system.h **** #define LL_DBGMCU_APB1_GRP1_TIM3_STOP      DBGMCU_APB1_FZ_DBG_TIM3_STOP             /*!< TIM3 count
 184:Drivers/STM32L1xx_HAL_Driver/Inc/stm32l1xx_ll_system.h **** #define LL_DBGMCU_APB1_GRP1_TIM4_STOP      DBGMCU_APB1_FZ_DBG_TIM4_STOP             /*!< TIM4 count
 185:Drivers/STM32L1xx_HAL_Driver/Inc/stm32l1xx_ll_system.h **** #if defined (DBGMCU_APB1_FZ_DBG_TIM5_STOP)
 186:Drivers/STM32L1xx_HAL_Driver/Inc/stm32l1xx_ll_system.h **** #define LL_DBGMCU_APB1_GRP1_TIM5_STOP      DBGMCU_APB1_FZ_DBG_TIM5_STOP             /*!< TIM5 count
 187:Drivers/STM32L1xx_HAL_Driver/Inc/stm32l1xx_ll_system.h **** #endif /* DBGMCU_APB1_FZ_DBG_TIM5_STOP */
 188:Drivers/STM32L1xx_HAL_Driver/Inc/stm32l1xx_ll_system.h **** #define LL_DBGMCU_APB1_GRP1_TIM6_STOP      DBGMCU_APB1_FZ_DBG_TIM6_STOP             /*!< TIM6 count
 189:Drivers/STM32L1xx_HAL_Driver/Inc/stm32l1xx_ll_system.h **** #define LL_DBGMCU_APB1_GRP1_TIM7_STOP      DBGMCU_APB1_FZ_DBG_TIM7_STOP             /*!< TIM7 count
 190:Drivers/STM32L1xx_HAL_Driver/Inc/stm32l1xx_ll_system.h **** #if defined (DBGMCU_APB1_FZ_DBG_RTC_STOP)
 191:Drivers/STM32L1xx_HAL_Driver/Inc/stm32l1xx_ll_system.h **** #define LL_DBGMCU_APB1_GRP1_RTC_STOP       DBGMCU_APB1_FZ_DBG_RTC_STOP              /*!< RTC Counte
 192:Drivers/STM32L1xx_HAL_Driver/Inc/stm32l1xx_ll_system.h **** #endif /* DBGMCU_APB1_FZ_DBG_RTC_STOP */
 193:Drivers/STM32L1xx_HAL_Driver/Inc/stm32l1xx_ll_system.h **** #define LL_DBGMCU_APB1_GRP1_WWDG_STOP      DBGMCU_APB1_FZ_DBG_WWDG_STOP             /*!< Debug Wind
 194:Drivers/STM32L1xx_HAL_Driver/Inc/stm32l1xx_ll_system.h **** #define LL_DBGMCU_APB1_GRP1_IWDG_STOP      DBGMCU_APB1_FZ_DBG_IWDG_STOP             /*!< Debug Inde
 195:Drivers/STM32L1xx_HAL_Driver/Inc/stm32l1xx_ll_system.h **** #define LL_DBGMCU_APB1_GRP1_I2C1_STOP      DBGMCU_APB1_FZ_DBG_I2C1_SMBUS_TIMEOUT    /*!< I2C1 SMBUS
 196:Drivers/STM32L1xx_HAL_Driver/Inc/stm32l1xx_ll_system.h **** #define LL_DBGMCU_APB1_GRP1_I2C2_STOP      DBGMCU_APB1_FZ_DBG_I2C2_SMBUS_TIMEOUT    /*!< I2C2 SMBUS
 197:Drivers/STM32L1xx_HAL_Driver/Inc/stm32l1xx_ll_system.h **** /**
 198:Drivers/STM32L1xx_HAL_Driver/Inc/stm32l1xx_ll_system.h ****   * @}
 199:Drivers/STM32L1xx_HAL_Driver/Inc/stm32l1xx_ll_system.h ****   */
 200:Drivers/STM32L1xx_HAL_Driver/Inc/stm32l1xx_ll_system.h **** 
 201:Drivers/STM32L1xx_HAL_Driver/Inc/stm32l1xx_ll_system.h **** /** @defgroup SYSTEM_LL_EC_APB2_GRP1_STOP_IP DBGMCU APB2 GRP1 STOP IP
 202:Drivers/STM32L1xx_HAL_Driver/Inc/stm32l1xx_ll_system.h ****   * @{
 203:Drivers/STM32L1xx_HAL_Driver/Inc/stm32l1xx_ll_system.h ****   */
 204:Drivers/STM32L1xx_HAL_Driver/Inc/stm32l1xx_ll_system.h **** #define LL_DBGMCU_APB2_GRP1_TIM9_STOP      DBGMCU_APB2_FZ_DBG_TIM9_STOP             /*!< TIM9 count
 205:Drivers/STM32L1xx_HAL_Driver/Inc/stm32l1xx_ll_system.h **** #define LL_DBGMCU_APB2_GRP1_TIM10_STOP     DBGMCU_APB2_FZ_DBG_TIM10_STOP            /*!< TIM10 coun
 206:Drivers/STM32L1xx_HAL_Driver/Inc/stm32l1xx_ll_system.h **** #define LL_DBGMCU_APB2_GRP1_TIM11_STOP     DBGMCU_APB2_FZ_DBG_TIM11_STOP            /*!< TIM11 coun
 207:Drivers/STM32L1xx_HAL_Driver/Inc/stm32l1xx_ll_system.h **** /**
 208:Drivers/STM32L1xx_HAL_Driver/Inc/stm32l1xx_ll_system.h ****   * @}
 209:Drivers/STM32L1xx_HAL_Driver/Inc/stm32l1xx_ll_system.h ****   */
 210:Drivers/STM32L1xx_HAL_Driver/Inc/stm32l1xx_ll_system.h **** 
ARM GAS  /tmp/ccCpqwiQ.s 			page 13


 211:Drivers/STM32L1xx_HAL_Driver/Inc/stm32l1xx_ll_system.h **** /** @defgroup SYSTEM_LL_EC_TIM_SELECT RI TIM selection
 212:Drivers/STM32L1xx_HAL_Driver/Inc/stm32l1xx_ll_system.h ****   * @{
 213:Drivers/STM32L1xx_HAL_Driver/Inc/stm32l1xx_ll_system.h ****   */
 214:Drivers/STM32L1xx_HAL_Driver/Inc/stm32l1xx_ll_system.h **** #define LL_RI_TIM_SELECT_NONE              (0x00000000U)           /*!< No timer selected */
 215:Drivers/STM32L1xx_HAL_Driver/Inc/stm32l1xx_ll_system.h **** #define LL_RI_TIM_SELECT_TIM2              RI_ICR_TIM_0            /*!< Timer 2 selected */
 216:Drivers/STM32L1xx_HAL_Driver/Inc/stm32l1xx_ll_system.h **** #define LL_RI_TIM_SELECT_TIM3              RI_ICR_TIM_1            /*!< Timer 3 selected */
 217:Drivers/STM32L1xx_HAL_Driver/Inc/stm32l1xx_ll_system.h **** #define LL_RI_TIM_SELECT_TIM4              RI_ICR_TIM              /*!< Timer 4 selected */
 218:Drivers/STM32L1xx_HAL_Driver/Inc/stm32l1xx_ll_system.h **** /**
 219:Drivers/STM32L1xx_HAL_Driver/Inc/stm32l1xx_ll_system.h ****   * @}
 220:Drivers/STM32L1xx_HAL_Driver/Inc/stm32l1xx_ll_system.h ****   */
 221:Drivers/STM32L1xx_HAL_Driver/Inc/stm32l1xx_ll_system.h **** 
 222:Drivers/STM32L1xx_HAL_Driver/Inc/stm32l1xx_ll_system.h **** /** @defgroup SYSTEM_LL_EC_INPUTCAPTURE RI Input Capture number
 223:Drivers/STM32L1xx_HAL_Driver/Inc/stm32l1xx_ll_system.h ****   * @{
 224:Drivers/STM32L1xx_HAL_Driver/Inc/stm32l1xx_ll_system.h ****   */
 225:Drivers/STM32L1xx_HAL_Driver/Inc/stm32l1xx_ll_system.h **** #define LL_RI_INPUTCAPTURE_1               (RI_ICR_IC1 | RI_ICR_IC1OS) /*!< Input Capture 1 select 
 226:Drivers/STM32L1xx_HAL_Driver/Inc/stm32l1xx_ll_system.h **** #define LL_RI_INPUTCAPTURE_2               (RI_ICR_IC2 | RI_ICR_IC2OS) /*!< Input Capture 2 select 
 227:Drivers/STM32L1xx_HAL_Driver/Inc/stm32l1xx_ll_system.h **** #define LL_RI_INPUTCAPTURE_3               (RI_ICR_IC3 | RI_ICR_IC3OS) /*!< Input Capture 3 select 
 228:Drivers/STM32L1xx_HAL_Driver/Inc/stm32l1xx_ll_system.h **** #define LL_RI_INPUTCAPTURE_4               (RI_ICR_IC4 | RI_ICR_IC4OS) /*!< Input Capture 4 select 
 229:Drivers/STM32L1xx_HAL_Driver/Inc/stm32l1xx_ll_system.h **** /**
 230:Drivers/STM32L1xx_HAL_Driver/Inc/stm32l1xx_ll_system.h ****   * @}
 231:Drivers/STM32L1xx_HAL_Driver/Inc/stm32l1xx_ll_system.h ****   */
 232:Drivers/STM32L1xx_HAL_Driver/Inc/stm32l1xx_ll_system.h **** 
 233:Drivers/STM32L1xx_HAL_Driver/Inc/stm32l1xx_ll_system.h **** /** @defgroup SYSTEM_LL_EC_INPUTCAPTUREROUTING RI Input Capture Routing
 234:Drivers/STM32L1xx_HAL_Driver/Inc/stm32l1xx_ll_system.h ****   * @{
 235:Drivers/STM32L1xx_HAL_Driver/Inc/stm32l1xx_ll_system.h ****   */
 236:Drivers/STM32L1xx_HAL_Driver/Inc/stm32l1xx_ll_system.h ****                                                          /* TIMx_IC1 TIMx_IC2  TIMx_IC3  TIMx_IC4  
 237:Drivers/STM32L1xx_HAL_Driver/Inc/stm32l1xx_ll_system.h **** #define LL_RI_INPUTCAPTUREROUTING_0        (0x00000000U) /*!< PA0       PA1      PA2       PA3     
 238:Drivers/STM32L1xx_HAL_Driver/Inc/stm32l1xx_ll_system.h **** #define LL_RI_INPUTCAPTUREROUTING_1        (0x00000001U) /*!< PA4       PA5      PA6       PA7     
 239:Drivers/STM32L1xx_HAL_Driver/Inc/stm32l1xx_ll_system.h **** #define LL_RI_INPUTCAPTUREROUTING_2        (0x00000002U) /*!< PA8       PA9      PA10      PA11    
 240:Drivers/STM32L1xx_HAL_Driver/Inc/stm32l1xx_ll_system.h **** #define LL_RI_INPUTCAPTUREROUTING_3        (0x00000003U) /*!< PA12      PA13     PA14      PA15    
 241:Drivers/STM32L1xx_HAL_Driver/Inc/stm32l1xx_ll_system.h **** #define LL_RI_INPUTCAPTUREROUTING_4        (0x00000004U) /*!< PC0       PC1      PC2       PC3     
 242:Drivers/STM32L1xx_HAL_Driver/Inc/stm32l1xx_ll_system.h **** #define LL_RI_INPUTCAPTUREROUTING_5        (0x00000005U) /*!< PC4       PC5      PC6       PC7     
 243:Drivers/STM32L1xx_HAL_Driver/Inc/stm32l1xx_ll_system.h **** #define LL_RI_INPUTCAPTUREROUTING_6        (0x00000006U) /*!< PC8       PC9      PC10      PC11    
 244:Drivers/STM32L1xx_HAL_Driver/Inc/stm32l1xx_ll_system.h **** #define LL_RI_INPUTCAPTUREROUTING_7        (0x00000007U) /*!< PC12      PC13     PC14      PC15    
 245:Drivers/STM32L1xx_HAL_Driver/Inc/stm32l1xx_ll_system.h **** #define LL_RI_INPUTCAPTUREROUTING_8        (0x00000008U) /*!< PD0       PD1      PD2       PD3     
 246:Drivers/STM32L1xx_HAL_Driver/Inc/stm32l1xx_ll_system.h **** #define LL_RI_INPUTCAPTUREROUTING_9        (0x00000009U) /*!< PD4       PD5      PD6       PD7     
 247:Drivers/STM32L1xx_HAL_Driver/Inc/stm32l1xx_ll_system.h **** #define LL_RI_INPUTCAPTUREROUTING_10       (0x0000000AU) /*!< PD8       PD9      PD10      PD11    
 248:Drivers/STM32L1xx_HAL_Driver/Inc/stm32l1xx_ll_system.h **** #define LL_RI_INPUTCAPTUREROUTING_11       (0x0000000BU) /*!< PD12      PD13     PD14      PD15    
 249:Drivers/STM32L1xx_HAL_Driver/Inc/stm32l1xx_ll_system.h **** #if defined(GPIOE)
 250:Drivers/STM32L1xx_HAL_Driver/Inc/stm32l1xx_ll_system.h **** #define LL_RI_INPUTCAPTUREROUTING_12       (0x0000000CU) /*!< PE0       PE1      PE2       PE3     
 251:Drivers/STM32L1xx_HAL_Driver/Inc/stm32l1xx_ll_system.h **** #define LL_RI_INPUTCAPTUREROUTING_13       (0x0000000DU) /*!< PE4       PE5      PE6       PE7     
 252:Drivers/STM32L1xx_HAL_Driver/Inc/stm32l1xx_ll_system.h **** #define LL_RI_INPUTCAPTUREROUTING_14       (0x0000000EU) /*!< PE8       PE9      PE10      PE11    
 253:Drivers/STM32L1xx_HAL_Driver/Inc/stm32l1xx_ll_system.h **** #define LL_RI_INPUTCAPTUREROUTING_15       (0x0000000FU) /*!< PE12      PE13     PE14      PE15    
 254:Drivers/STM32L1xx_HAL_Driver/Inc/stm32l1xx_ll_system.h **** #endif /* GPIOE */
 255:Drivers/STM32L1xx_HAL_Driver/Inc/stm32l1xx_ll_system.h **** /**
 256:Drivers/STM32L1xx_HAL_Driver/Inc/stm32l1xx_ll_system.h ****   * @}
 257:Drivers/STM32L1xx_HAL_Driver/Inc/stm32l1xx_ll_system.h ****   */
 258:Drivers/STM32L1xx_HAL_Driver/Inc/stm32l1xx_ll_system.h **** 
 259:Drivers/STM32L1xx_HAL_Driver/Inc/stm32l1xx_ll_system.h **** /** @defgroup SYSTEM_LL_EC_IOSWITCH_LINKED_ADC RI IO Switch linked to ADC
 260:Drivers/STM32L1xx_HAL_Driver/Inc/stm32l1xx_ll_system.h ****   * @{
 261:Drivers/STM32L1xx_HAL_Driver/Inc/stm32l1xx_ll_system.h ****   */
 262:Drivers/STM32L1xx_HAL_Driver/Inc/stm32l1xx_ll_system.h **** #define LL_RI_IOSWITCH_CH0                 RI_ASCR1_CH_0    /*!< CH[3:0] GR1[4:1]: I/O Analog switc
 263:Drivers/STM32L1xx_HAL_Driver/Inc/stm32l1xx_ll_system.h **** #define LL_RI_IOSWITCH_CH1                 RI_ASCR1_CH_1    /*!< CH[3:0] GR1[4:1]: I/O Analog switc
 264:Drivers/STM32L1xx_HAL_Driver/Inc/stm32l1xx_ll_system.h **** #define LL_RI_IOSWITCH_CH2                 RI_ASCR1_CH_2    /*!< CH[3:0] GR1[4:1]: I/O Analog switc
 265:Drivers/STM32L1xx_HAL_Driver/Inc/stm32l1xx_ll_system.h **** #define LL_RI_IOSWITCH_CH3                 RI_ASCR1_CH_3    /*!< CH[3:0] GR1[4:1]: I/O Analog switc
 266:Drivers/STM32L1xx_HAL_Driver/Inc/stm32l1xx_ll_system.h **** #define LL_RI_IOSWITCH_CH4                 RI_ASCR1_CH_4    /*!< CH4: Analog switch control     */
 267:Drivers/STM32L1xx_HAL_Driver/Inc/stm32l1xx_ll_system.h **** #define LL_RI_IOSWITCH_CH5                 RI_ASCR1_CH_5    /*!< CH5: Comparator 1 analog switch*/
ARM GAS  /tmp/ccCpqwiQ.s 			page 14


 268:Drivers/STM32L1xx_HAL_Driver/Inc/stm32l1xx_ll_system.h **** #define LL_RI_IOSWITCH_CH6                 RI_ASCR1_CH_6    /*!< CH[7:6] GR2[2:1]: I/O Analog switc
 269:Drivers/STM32L1xx_HAL_Driver/Inc/stm32l1xx_ll_system.h **** #define LL_RI_IOSWITCH_CH7                 RI_ASCR1_CH_7    /*!< CH[7:6] GR2[2:1]: I/O Analog switc
 270:Drivers/STM32L1xx_HAL_Driver/Inc/stm32l1xx_ll_system.h **** #define LL_RI_IOSWITCH_CH8                 RI_ASCR1_CH_8    /*!< CH[9:8] GR3[2:1]: I/O Analog switc
 271:Drivers/STM32L1xx_HAL_Driver/Inc/stm32l1xx_ll_system.h **** #define LL_RI_IOSWITCH_CH9                 RI_ASCR1_CH_9    /*!< CH[9:8] GR3[2:1]: I/O Analog switc
 272:Drivers/STM32L1xx_HAL_Driver/Inc/stm32l1xx_ll_system.h **** #define LL_RI_IOSWITCH_CH10                RI_ASCR1_CH_10   /*!< CH[13:10] GR8[4:1]: I/O Analog swi
 273:Drivers/STM32L1xx_HAL_Driver/Inc/stm32l1xx_ll_system.h **** #define LL_RI_IOSWITCH_CH11                RI_ASCR1_CH_11   /*!< CH[13:10] GR8[4:1]: I/O Analog swi
 274:Drivers/STM32L1xx_HAL_Driver/Inc/stm32l1xx_ll_system.h **** #define LL_RI_IOSWITCH_CH12                RI_ASCR1_CH_12   /*!< CH[13:10] GR8[4:1]: I/O Analog swi
 275:Drivers/STM32L1xx_HAL_Driver/Inc/stm32l1xx_ll_system.h **** #define LL_RI_IOSWITCH_CH13                RI_ASCR1_CH_13   /*!< CH[13:10] GR8[4:1]: I/O Analog swi
 276:Drivers/STM32L1xx_HAL_Driver/Inc/stm32l1xx_ll_system.h **** #define LL_RI_IOSWITCH_CH14                RI_ASCR1_CH_14   /*!< CH[15:14] GR9[2:1]: I/O Analog swi
 277:Drivers/STM32L1xx_HAL_Driver/Inc/stm32l1xx_ll_system.h **** #define LL_RI_IOSWITCH_CH15                RI_ASCR1_CH_15   /*!< CH[15:14] GR9[2:1]: I/O Analog swi
 278:Drivers/STM32L1xx_HAL_Driver/Inc/stm32l1xx_ll_system.h **** #define LL_RI_IOSWITCH_CH18                RI_ASCR1_CH_18   /*!< CH[21:18]/GR7[4:1]: I/O Analog swi
 279:Drivers/STM32L1xx_HAL_Driver/Inc/stm32l1xx_ll_system.h **** #define LL_RI_IOSWITCH_CH19                RI_ASCR1_CH_19   /*!< CH[21:18]/GR7[4:1]: I/O Analog swi
 280:Drivers/STM32L1xx_HAL_Driver/Inc/stm32l1xx_ll_system.h **** #define LL_RI_IOSWITCH_CH20                RI_ASCR1_CH_20   /*!< CH[21:18]/GR7[4:1]: I/O Analog swi
 281:Drivers/STM32L1xx_HAL_Driver/Inc/stm32l1xx_ll_system.h **** #define LL_RI_IOSWITCH_CH21                RI_ASCR1_CH_21   /*!< CH[21:18]/GR7[4:1]: I/O Analog swi
 282:Drivers/STM32L1xx_HAL_Driver/Inc/stm32l1xx_ll_system.h **** #define LL_RI_IOSWITCH_CH22                RI_ASCR1_CH_22   /*!< Analog I/O switch control of chann
 283:Drivers/STM32L1xx_HAL_Driver/Inc/stm32l1xx_ll_system.h **** #define LL_RI_IOSWITCH_CH23                RI_ASCR1_CH_23   /*!< Analog I/O switch control of chann
 284:Drivers/STM32L1xx_HAL_Driver/Inc/stm32l1xx_ll_system.h **** #define LL_RI_IOSWITCH_CH24                RI_ASCR1_CH_24   /*!< Analog I/O switch control of chann
 285:Drivers/STM32L1xx_HAL_Driver/Inc/stm32l1xx_ll_system.h **** #define LL_RI_IOSWITCH_CH25                RI_ASCR1_CH_25   /*!< Analog I/O switch control of chann
 286:Drivers/STM32L1xx_HAL_Driver/Inc/stm32l1xx_ll_system.h **** #define LL_RI_IOSWITCH_VCOMP               RI_ASCR1_VCOMP   /*!< VCOMP (ADC channel 26) is an inter
 287:Drivers/STM32L1xx_HAL_Driver/Inc/stm32l1xx_ll_system.h ****                                                                  used to connect selected channel t
 288:Drivers/STM32L1xx_HAL_Driver/Inc/stm32l1xx_ll_system.h **** #if defined(RI_ASCR1_CH_27)
 289:Drivers/STM32L1xx_HAL_Driver/Inc/stm32l1xx_ll_system.h **** #define LL_RI_IOSWITCH_CH27                RI_ASCR1_CH_27   /*!< CH[30:27]/GR11[4:1]: I/O Analog sw
 290:Drivers/STM32L1xx_HAL_Driver/Inc/stm32l1xx_ll_system.h **** #define LL_RI_IOSWITCH_CH28                RI_ASCR1_CH_28   /*!< CH[30:27]/GR11[4:1]: I/O Analog sw
 291:Drivers/STM32L1xx_HAL_Driver/Inc/stm32l1xx_ll_system.h **** #define LL_RI_IOSWITCH_CH29                RI_ASCR1_CH_29   /*!< CH[30:27]/GR11[4:1]: I/O Analog sw
 292:Drivers/STM32L1xx_HAL_Driver/Inc/stm32l1xx_ll_system.h **** #define LL_RI_IOSWITCH_CH30                RI_ASCR1_CH_30   /*!< CH[30:27]/GR11[4:1]: I/O Analog sw
 293:Drivers/STM32L1xx_HAL_Driver/Inc/stm32l1xx_ll_system.h **** #define LL_RI_IOSWITCH_CH31                RI_ASCR1_CH_31   /*!< CH31/GR11-5 I/O Analog switch cont
 294:Drivers/STM32L1xx_HAL_Driver/Inc/stm32l1xx_ll_system.h **** #endif /* RI_ASCR1_CH_27 */
 295:Drivers/STM32L1xx_HAL_Driver/Inc/stm32l1xx_ll_system.h **** /**
 296:Drivers/STM32L1xx_HAL_Driver/Inc/stm32l1xx_ll_system.h ****   * @}
 297:Drivers/STM32L1xx_HAL_Driver/Inc/stm32l1xx_ll_system.h ****   */
 298:Drivers/STM32L1xx_HAL_Driver/Inc/stm32l1xx_ll_system.h **** 
 299:Drivers/STM32L1xx_HAL_Driver/Inc/stm32l1xx_ll_system.h **** /** @defgroup SYSTEM_LL_EC_IOSWITCH_NOT_LINKED_ADC RI IO Switch not linked to ADC
 300:Drivers/STM32L1xx_HAL_Driver/Inc/stm32l1xx_ll_system.h ****   * @{
 301:Drivers/STM32L1xx_HAL_Driver/Inc/stm32l1xx_ll_system.h ****   */
 302:Drivers/STM32L1xx_HAL_Driver/Inc/stm32l1xx_ll_system.h **** #define LL_RI_IOSWITCH_GR10_1              RI_ASCR2_GR10_1 /*!< GR10-1 I/O analog switch control */
 303:Drivers/STM32L1xx_HAL_Driver/Inc/stm32l1xx_ll_system.h **** #define LL_RI_IOSWITCH_GR10_2              RI_ASCR2_GR10_2 /*!< GR10-2 I/O analog switch control */
 304:Drivers/STM32L1xx_HAL_Driver/Inc/stm32l1xx_ll_system.h **** #define LL_RI_IOSWITCH_GR10_3              RI_ASCR2_GR10_3 /*!< GR10-3 I/O analog switch control */
 305:Drivers/STM32L1xx_HAL_Driver/Inc/stm32l1xx_ll_system.h **** #define LL_RI_IOSWITCH_GR10_4              RI_ASCR2_GR10_4 /*!< GR10-4 I/O analog switch control */
 306:Drivers/STM32L1xx_HAL_Driver/Inc/stm32l1xx_ll_system.h **** #define LL_RI_IOSWITCH_GR6_1               RI_ASCR2_GR6_1  /*!< GR6-1 I/O analog switch control  */
 307:Drivers/STM32L1xx_HAL_Driver/Inc/stm32l1xx_ll_system.h **** #define LL_RI_IOSWITCH_GR6_2               RI_ASCR2_GR6_2  /*!< GR6-2 I/O analog switch control  */
 308:Drivers/STM32L1xx_HAL_Driver/Inc/stm32l1xx_ll_system.h **** #define LL_RI_IOSWITCH_GR5_1               RI_ASCR2_GR5_1  /*!< GR5-1 I/O analog switch control  */
 309:Drivers/STM32L1xx_HAL_Driver/Inc/stm32l1xx_ll_system.h **** #define LL_RI_IOSWITCH_GR5_2               RI_ASCR2_GR5_2  /*!< GR5-2 I/O analog switch control  */
 310:Drivers/STM32L1xx_HAL_Driver/Inc/stm32l1xx_ll_system.h **** #define LL_RI_IOSWITCH_GR5_3               RI_ASCR2_GR5_3  /*!< GR5-3 I/O analog switch control  */
 311:Drivers/STM32L1xx_HAL_Driver/Inc/stm32l1xx_ll_system.h **** #define LL_RI_IOSWITCH_GR4_1               RI_ASCR2_GR4_1  /*!< GR4-1 I/O analog switch control  */
 312:Drivers/STM32L1xx_HAL_Driver/Inc/stm32l1xx_ll_system.h **** #define LL_RI_IOSWITCH_GR4_2               RI_ASCR2_GR4_2  /*!< GR4-2 I/O analog switch control  */
 313:Drivers/STM32L1xx_HAL_Driver/Inc/stm32l1xx_ll_system.h **** #define LL_RI_IOSWITCH_GR4_3               RI_ASCR2_GR4_3  /*!< GR4-3 I/O analog switch control  */
 314:Drivers/STM32L1xx_HAL_Driver/Inc/stm32l1xx_ll_system.h **** #if defined(RI_ASCR2_CH0b)
 315:Drivers/STM32L1xx_HAL_Driver/Inc/stm32l1xx_ll_system.h **** #define LL_RI_IOSWITCH_CH0b                RI_ASCR2_CH0b   /*!< CH0b-GR03-3 I/O analog switch contr
 316:Drivers/STM32L1xx_HAL_Driver/Inc/stm32l1xx_ll_system.h **** #if defined(RI_ASCR2_CH1b)
 317:Drivers/STM32L1xx_HAL_Driver/Inc/stm32l1xx_ll_system.h **** #define LL_RI_IOSWITCH_CH1b                RI_ASCR2_CH1b   /*!< CH1b-GR03-4 I/O analog switch contr
 318:Drivers/STM32L1xx_HAL_Driver/Inc/stm32l1xx_ll_system.h **** #define LL_RI_IOSWITCH_CH2b                RI_ASCR2_CH2b   /*!< CH2b-GR03-5 I/O analog switch contr
 319:Drivers/STM32L1xx_HAL_Driver/Inc/stm32l1xx_ll_system.h **** #define LL_RI_IOSWITCH_CH3b                RI_ASCR2_CH3b   /*!< CH3b-GR09-3 I/O analog switch contr
 320:Drivers/STM32L1xx_HAL_Driver/Inc/stm32l1xx_ll_system.h **** #define LL_RI_IOSWITCH_CH6b                RI_ASCR2_CH6b   /*!< CH6b-GR09-4 I/O analog switch contr
 321:Drivers/STM32L1xx_HAL_Driver/Inc/stm32l1xx_ll_system.h **** #define LL_RI_IOSWITCH_CH7b                RI_ASCR2_CH7b   /*!< CH7b-GR02-3 I/O analog switch contr
 322:Drivers/STM32L1xx_HAL_Driver/Inc/stm32l1xx_ll_system.h **** #define LL_RI_IOSWITCH_CH8b                RI_ASCR2_CH8b   /*!< CH8b-GR02-4 I/O analog switch contr
 323:Drivers/STM32L1xx_HAL_Driver/Inc/stm32l1xx_ll_system.h **** #define LL_RI_IOSWITCH_CH9b                RI_ASCR2_CH9b   /*!< CH9b-GR02-5 I/O analog switch contr
 324:Drivers/STM32L1xx_HAL_Driver/Inc/stm32l1xx_ll_system.h **** #define LL_RI_IOSWITCH_CH10b               RI_ASCR2_CH10b  /*!< CH10b-GR07-5 I/O analog switch cont
ARM GAS  /tmp/ccCpqwiQ.s 			page 15


 325:Drivers/STM32L1xx_HAL_Driver/Inc/stm32l1xx_ll_system.h **** #define LL_RI_IOSWITCH_CH11b               RI_ASCR2_CH11b  /*!< CH11b-GR07-6 I/O analog switch cont
 326:Drivers/STM32L1xx_HAL_Driver/Inc/stm32l1xx_ll_system.h **** #define LL_RI_IOSWITCH_CH12b               RI_ASCR2_CH12b  /*!< CH12b-GR07-7 I/O analog switch cont
 327:Drivers/STM32L1xx_HAL_Driver/Inc/stm32l1xx_ll_system.h **** #endif /* RI_ASCR2_CH1b */
 328:Drivers/STM32L1xx_HAL_Driver/Inc/stm32l1xx_ll_system.h **** #define LL_RI_IOSWITCH_GR6_3               RI_ASCR2_GR6_3  /*!< GR6-3 I/O analog switch control  */
 329:Drivers/STM32L1xx_HAL_Driver/Inc/stm32l1xx_ll_system.h **** #define LL_RI_IOSWITCH_GR6_4               RI_ASCR2_GR6_4  /*!< GR6-4 I/O analog switch control  */
 330:Drivers/STM32L1xx_HAL_Driver/Inc/stm32l1xx_ll_system.h **** #endif /* RI_ASCR2_CH0b */
 331:Drivers/STM32L1xx_HAL_Driver/Inc/stm32l1xx_ll_system.h **** /**
 332:Drivers/STM32L1xx_HAL_Driver/Inc/stm32l1xx_ll_system.h ****   * @}
 333:Drivers/STM32L1xx_HAL_Driver/Inc/stm32l1xx_ll_system.h ****   */
 334:Drivers/STM32L1xx_HAL_Driver/Inc/stm32l1xx_ll_system.h **** 
 335:Drivers/STM32L1xx_HAL_Driver/Inc/stm32l1xx_ll_system.h **** /** @defgroup SYSTEM_LL_EC_HSYTERESIS_PORT RI HSYTERESIS PORT
 336:Drivers/STM32L1xx_HAL_Driver/Inc/stm32l1xx_ll_system.h ****   * @{
 337:Drivers/STM32L1xx_HAL_Driver/Inc/stm32l1xx_ll_system.h ****   */
 338:Drivers/STM32L1xx_HAL_Driver/Inc/stm32l1xx_ll_system.h **** #define LL_RI_HSYTERESIS_PORT_A            0U         /*!< HYSTERESIS PORT A  */
 339:Drivers/STM32L1xx_HAL_Driver/Inc/stm32l1xx_ll_system.h **** #define LL_RI_HSYTERESIS_PORT_B            1U         /*!< HYSTERESIS PORT B  */
 340:Drivers/STM32L1xx_HAL_Driver/Inc/stm32l1xx_ll_system.h **** #define LL_RI_HSYTERESIS_PORT_C            2U         /*!< HYSTERESIS PORT C  */
 341:Drivers/STM32L1xx_HAL_Driver/Inc/stm32l1xx_ll_system.h **** #define LL_RI_HSYTERESIS_PORT_D            3U         /*!< HYSTERESIS PORT D  */
 342:Drivers/STM32L1xx_HAL_Driver/Inc/stm32l1xx_ll_system.h **** #if defined(GPIOE)
 343:Drivers/STM32L1xx_HAL_Driver/Inc/stm32l1xx_ll_system.h **** #define LL_RI_HSYTERESIS_PORT_E            4U         /*!< HYSTERESIS PORT E  */
 344:Drivers/STM32L1xx_HAL_Driver/Inc/stm32l1xx_ll_system.h **** #endif /* GPIOE */
 345:Drivers/STM32L1xx_HAL_Driver/Inc/stm32l1xx_ll_system.h **** #if defined(GPIOF)
 346:Drivers/STM32L1xx_HAL_Driver/Inc/stm32l1xx_ll_system.h **** #define LL_RI_HSYTERESIS_PORT_F            5U         /*!< HYSTERESIS PORT F  */
 347:Drivers/STM32L1xx_HAL_Driver/Inc/stm32l1xx_ll_system.h **** #endif /* GPIOF */
 348:Drivers/STM32L1xx_HAL_Driver/Inc/stm32l1xx_ll_system.h **** #if defined(GPIOG)
 349:Drivers/STM32L1xx_HAL_Driver/Inc/stm32l1xx_ll_system.h **** #define LL_RI_HSYTERESIS_PORT_G            6U         /*!< HYSTERESIS PORT G  */
 350:Drivers/STM32L1xx_HAL_Driver/Inc/stm32l1xx_ll_system.h **** #endif /* GPIOG */
 351:Drivers/STM32L1xx_HAL_Driver/Inc/stm32l1xx_ll_system.h **** /**
 352:Drivers/STM32L1xx_HAL_Driver/Inc/stm32l1xx_ll_system.h ****   * @}
 353:Drivers/STM32L1xx_HAL_Driver/Inc/stm32l1xx_ll_system.h ****   */
 354:Drivers/STM32L1xx_HAL_Driver/Inc/stm32l1xx_ll_system.h **** 
 355:Drivers/STM32L1xx_HAL_Driver/Inc/stm32l1xx_ll_system.h **** /** @defgroup SYSTEM_LL_EC_PIN RI PIN
 356:Drivers/STM32L1xx_HAL_Driver/Inc/stm32l1xx_ll_system.h ****   * @{
 357:Drivers/STM32L1xx_HAL_Driver/Inc/stm32l1xx_ll_system.h ****   */
 358:Drivers/STM32L1xx_HAL_Driver/Inc/stm32l1xx_ll_system.h **** #define LL_RI_PIN_0                        ((uint16_t)0x0001U)  /*!< Pin 0 selected */
 359:Drivers/STM32L1xx_HAL_Driver/Inc/stm32l1xx_ll_system.h **** #define LL_RI_PIN_1                        ((uint16_t)0x0002U)  /*!< Pin 1 selected */
 360:Drivers/STM32L1xx_HAL_Driver/Inc/stm32l1xx_ll_system.h **** #define LL_RI_PIN_2                        ((uint16_t)0x0004U)  /*!< Pin 2 selected */
 361:Drivers/STM32L1xx_HAL_Driver/Inc/stm32l1xx_ll_system.h **** #define LL_RI_PIN_3                        ((uint16_t)0x0008U)  /*!< Pin 3 selected */
 362:Drivers/STM32L1xx_HAL_Driver/Inc/stm32l1xx_ll_system.h **** #define LL_RI_PIN_4                        ((uint16_t)0x0010U)  /*!< Pin 4 selected */
 363:Drivers/STM32L1xx_HAL_Driver/Inc/stm32l1xx_ll_system.h **** #define LL_RI_PIN_5                        ((uint16_t)0x0020U)  /*!< Pin 5 selected */
 364:Drivers/STM32L1xx_HAL_Driver/Inc/stm32l1xx_ll_system.h **** #define LL_RI_PIN_6                        ((uint16_t)0x0040U)  /*!< Pin 6 selected */
 365:Drivers/STM32L1xx_HAL_Driver/Inc/stm32l1xx_ll_system.h **** #define LL_RI_PIN_7                        ((uint16_t)0x0080U)  /*!< Pin 7 selected */
 366:Drivers/STM32L1xx_HAL_Driver/Inc/stm32l1xx_ll_system.h **** #define LL_RI_PIN_8                        ((uint16_t)0x0100U)  /*!< Pin 8 selected */
 367:Drivers/STM32L1xx_HAL_Driver/Inc/stm32l1xx_ll_system.h **** #define LL_RI_PIN_9                        ((uint16_t)0x0200U)  /*!< Pin 9 selected */
 368:Drivers/STM32L1xx_HAL_Driver/Inc/stm32l1xx_ll_system.h **** #define LL_RI_PIN_10                       ((uint16_t)0x0400U)  /*!< Pin 10 selected */
 369:Drivers/STM32L1xx_HAL_Driver/Inc/stm32l1xx_ll_system.h **** #define LL_RI_PIN_11                       ((uint16_t)0x0800U)  /*!< Pin 11 selected */
 370:Drivers/STM32L1xx_HAL_Driver/Inc/stm32l1xx_ll_system.h **** #define LL_RI_PIN_12                       ((uint16_t)0x1000U)  /*!< Pin 12 selected */
 371:Drivers/STM32L1xx_HAL_Driver/Inc/stm32l1xx_ll_system.h **** #define LL_RI_PIN_13                       ((uint16_t)0x2000U)  /*!< Pin 13 selected */
 372:Drivers/STM32L1xx_HAL_Driver/Inc/stm32l1xx_ll_system.h **** #define LL_RI_PIN_14                       ((uint16_t)0x4000U)  /*!< Pin 14 selected */
 373:Drivers/STM32L1xx_HAL_Driver/Inc/stm32l1xx_ll_system.h **** #define LL_RI_PIN_15                       ((uint16_t)0x8000U)  /*!< Pin 15 selected */
 374:Drivers/STM32L1xx_HAL_Driver/Inc/stm32l1xx_ll_system.h **** #define LL_RI_PIN_ALL                      ((uint16_t)0xFFFFU)  /*!< All pins selected */
 375:Drivers/STM32L1xx_HAL_Driver/Inc/stm32l1xx_ll_system.h **** /**
 376:Drivers/STM32L1xx_HAL_Driver/Inc/stm32l1xx_ll_system.h ****   * @}
 377:Drivers/STM32L1xx_HAL_Driver/Inc/stm32l1xx_ll_system.h ****   */
 378:Drivers/STM32L1xx_HAL_Driver/Inc/stm32l1xx_ll_system.h **** 
 379:Drivers/STM32L1xx_HAL_Driver/Inc/stm32l1xx_ll_system.h **** #if defined(RI_ASMR1_PA)
 380:Drivers/STM32L1xx_HAL_Driver/Inc/stm32l1xx_ll_system.h **** /** @defgroup SYSTEM_LL_EC_PORT RI PORT
 381:Drivers/STM32L1xx_HAL_Driver/Inc/stm32l1xx_ll_system.h ****   * @{
ARM GAS  /tmp/ccCpqwiQ.s 			page 16


 382:Drivers/STM32L1xx_HAL_Driver/Inc/stm32l1xx_ll_system.h ****   */
 383:Drivers/STM32L1xx_HAL_Driver/Inc/stm32l1xx_ll_system.h **** #define LL_RI_PORT_A                       0U         /*!< PORT A   */
 384:Drivers/STM32L1xx_HAL_Driver/Inc/stm32l1xx_ll_system.h **** #define LL_RI_PORT_B                       1U         /*!< PORT B   */
 385:Drivers/STM32L1xx_HAL_Driver/Inc/stm32l1xx_ll_system.h **** #define LL_RI_PORT_C                       2U         /*!< PORT C   */
 386:Drivers/STM32L1xx_HAL_Driver/Inc/stm32l1xx_ll_system.h **** #if defined(GPIOF)
 387:Drivers/STM32L1xx_HAL_Driver/Inc/stm32l1xx_ll_system.h **** #define LL_RI_PORT_F                       3U         /*!< PORT F   */
 388:Drivers/STM32L1xx_HAL_Driver/Inc/stm32l1xx_ll_system.h **** #endif /* GPIOF */
 389:Drivers/STM32L1xx_HAL_Driver/Inc/stm32l1xx_ll_system.h **** #if defined(GPIOG)
 390:Drivers/STM32L1xx_HAL_Driver/Inc/stm32l1xx_ll_system.h **** #define LL_RI_PORT_G                       4U         /*!< PORT G   */
 391:Drivers/STM32L1xx_HAL_Driver/Inc/stm32l1xx_ll_system.h **** #endif /* GPIOG */
 392:Drivers/STM32L1xx_HAL_Driver/Inc/stm32l1xx_ll_system.h **** /**
 393:Drivers/STM32L1xx_HAL_Driver/Inc/stm32l1xx_ll_system.h ****   * @}
 394:Drivers/STM32L1xx_HAL_Driver/Inc/stm32l1xx_ll_system.h ****   */
 395:Drivers/STM32L1xx_HAL_Driver/Inc/stm32l1xx_ll_system.h **** 
 396:Drivers/STM32L1xx_HAL_Driver/Inc/stm32l1xx_ll_system.h **** #endif /* RI_ASMR1_PA */
 397:Drivers/STM32L1xx_HAL_Driver/Inc/stm32l1xx_ll_system.h **** 
 398:Drivers/STM32L1xx_HAL_Driver/Inc/stm32l1xx_ll_system.h **** 
 399:Drivers/STM32L1xx_HAL_Driver/Inc/stm32l1xx_ll_system.h **** /** @defgroup SYSTEM_LL_EC_LATENCY FLASH LATENCY
 400:Drivers/STM32L1xx_HAL_Driver/Inc/stm32l1xx_ll_system.h ****   * @{
 401:Drivers/STM32L1xx_HAL_Driver/Inc/stm32l1xx_ll_system.h ****   */
 402:Drivers/STM32L1xx_HAL_Driver/Inc/stm32l1xx_ll_system.h **** #define LL_FLASH_LATENCY_0                 0x00000000U             /*!< FLASH Zero Latency cycle */
 403:Drivers/STM32L1xx_HAL_Driver/Inc/stm32l1xx_ll_system.h **** #define LL_FLASH_LATENCY_1                 FLASH_ACR_LATENCY       /*!< FLASH One Latency cycle */
 404:Drivers/STM32L1xx_HAL_Driver/Inc/stm32l1xx_ll_system.h **** /**
 405:Drivers/STM32L1xx_HAL_Driver/Inc/stm32l1xx_ll_system.h ****   * @}
 406:Drivers/STM32L1xx_HAL_Driver/Inc/stm32l1xx_ll_system.h ****   */
 407:Drivers/STM32L1xx_HAL_Driver/Inc/stm32l1xx_ll_system.h **** 
 408:Drivers/STM32L1xx_HAL_Driver/Inc/stm32l1xx_ll_system.h **** /**
 409:Drivers/STM32L1xx_HAL_Driver/Inc/stm32l1xx_ll_system.h ****   * @}
 410:Drivers/STM32L1xx_HAL_Driver/Inc/stm32l1xx_ll_system.h ****   */
 411:Drivers/STM32L1xx_HAL_Driver/Inc/stm32l1xx_ll_system.h **** 
 412:Drivers/STM32L1xx_HAL_Driver/Inc/stm32l1xx_ll_system.h **** /* Exported macro ------------------------------------------------------------*/
 413:Drivers/STM32L1xx_HAL_Driver/Inc/stm32l1xx_ll_system.h **** 
 414:Drivers/STM32L1xx_HAL_Driver/Inc/stm32l1xx_ll_system.h **** /* Exported functions --------------------------------------------------------*/
 415:Drivers/STM32L1xx_HAL_Driver/Inc/stm32l1xx_ll_system.h **** /** @defgroup SYSTEM_LL_Exported_Functions SYSTEM Exported Functions
 416:Drivers/STM32L1xx_HAL_Driver/Inc/stm32l1xx_ll_system.h ****   * @{
 417:Drivers/STM32L1xx_HAL_Driver/Inc/stm32l1xx_ll_system.h ****   */
 418:Drivers/STM32L1xx_HAL_Driver/Inc/stm32l1xx_ll_system.h **** 
 419:Drivers/STM32L1xx_HAL_Driver/Inc/stm32l1xx_ll_system.h **** /** @defgroup SYSTEM_LL_EF_SYSCFG SYSCFG
 420:Drivers/STM32L1xx_HAL_Driver/Inc/stm32l1xx_ll_system.h ****   * @{
 421:Drivers/STM32L1xx_HAL_Driver/Inc/stm32l1xx_ll_system.h ****   */
 422:Drivers/STM32L1xx_HAL_Driver/Inc/stm32l1xx_ll_system.h **** 
 423:Drivers/STM32L1xx_HAL_Driver/Inc/stm32l1xx_ll_system.h **** /**
 424:Drivers/STM32L1xx_HAL_Driver/Inc/stm32l1xx_ll_system.h ****   * @brief  Set memory mapping at address 0x00000000
 425:Drivers/STM32L1xx_HAL_Driver/Inc/stm32l1xx_ll_system.h ****   * @rmtoll SYSCFG_MEMRMP MEM_MODE      LL_SYSCFG_SetRemapMemory
 426:Drivers/STM32L1xx_HAL_Driver/Inc/stm32l1xx_ll_system.h ****   * @param  Memory This parameter can be one of the following values:
 427:Drivers/STM32L1xx_HAL_Driver/Inc/stm32l1xx_ll_system.h ****   *         @arg @ref LL_SYSCFG_REMAP_FLASH
 428:Drivers/STM32L1xx_HAL_Driver/Inc/stm32l1xx_ll_system.h ****   *         @arg @ref LL_SYSCFG_REMAP_SYSTEMFLASH
 429:Drivers/STM32L1xx_HAL_Driver/Inc/stm32l1xx_ll_system.h ****   *         @arg @ref LL_SYSCFG_REMAP_SRAM
 430:Drivers/STM32L1xx_HAL_Driver/Inc/stm32l1xx_ll_system.h ****   *         @arg @ref LL_SYSCFG_REMAP_FMC (*)
 431:Drivers/STM32L1xx_HAL_Driver/Inc/stm32l1xx_ll_system.h ****   *
 432:Drivers/STM32L1xx_HAL_Driver/Inc/stm32l1xx_ll_system.h ****   *         (*) value not defined in all devices
 433:Drivers/STM32L1xx_HAL_Driver/Inc/stm32l1xx_ll_system.h ****   * @retval None
 434:Drivers/STM32L1xx_HAL_Driver/Inc/stm32l1xx_ll_system.h ****   */
 435:Drivers/STM32L1xx_HAL_Driver/Inc/stm32l1xx_ll_system.h **** __STATIC_INLINE void LL_SYSCFG_SetRemapMemory(uint32_t Memory)
 436:Drivers/STM32L1xx_HAL_Driver/Inc/stm32l1xx_ll_system.h **** {
 437:Drivers/STM32L1xx_HAL_Driver/Inc/stm32l1xx_ll_system.h ****   MODIFY_REG(SYSCFG->MEMRMP, SYSCFG_MEMRMP_MEM_MODE, Memory);
 438:Drivers/STM32L1xx_HAL_Driver/Inc/stm32l1xx_ll_system.h **** }
ARM GAS  /tmp/ccCpqwiQ.s 			page 17


 439:Drivers/STM32L1xx_HAL_Driver/Inc/stm32l1xx_ll_system.h **** 
 440:Drivers/STM32L1xx_HAL_Driver/Inc/stm32l1xx_ll_system.h **** /**
 441:Drivers/STM32L1xx_HAL_Driver/Inc/stm32l1xx_ll_system.h ****   * @brief  Get memory mapping at address 0x00000000
 442:Drivers/STM32L1xx_HAL_Driver/Inc/stm32l1xx_ll_system.h ****   * @rmtoll SYSCFG_MEMRMP MEM_MODE      LL_SYSCFG_GetRemapMemory
 443:Drivers/STM32L1xx_HAL_Driver/Inc/stm32l1xx_ll_system.h ****   * @retval Returned value can be one of the following values:
 444:Drivers/STM32L1xx_HAL_Driver/Inc/stm32l1xx_ll_system.h ****   *         @arg @ref LL_SYSCFG_REMAP_FLASH
 445:Drivers/STM32L1xx_HAL_Driver/Inc/stm32l1xx_ll_system.h ****   *         @arg @ref LL_SYSCFG_REMAP_SYSTEMFLASH
 446:Drivers/STM32L1xx_HAL_Driver/Inc/stm32l1xx_ll_system.h ****   *         @arg @ref LL_SYSCFG_REMAP_SRAM
 447:Drivers/STM32L1xx_HAL_Driver/Inc/stm32l1xx_ll_system.h ****   *         @arg @ref LL_SYSCFG_REMAP_FMC (*)
 448:Drivers/STM32L1xx_HAL_Driver/Inc/stm32l1xx_ll_system.h ****   *
 449:Drivers/STM32L1xx_HAL_Driver/Inc/stm32l1xx_ll_system.h ****   *         (*) value not defined in all devices.
 450:Drivers/STM32L1xx_HAL_Driver/Inc/stm32l1xx_ll_system.h ****   */
 451:Drivers/STM32L1xx_HAL_Driver/Inc/stm32l1xx_ll_system.h **** __STATIC_INLINE uint32_t LL_SYSCFG_GetRemapMemory(void)
 452:Drivers/STM32L1xx_HAL_Driver/Inc/stm32l1xx_ll_system.h **** {
 453:Drivers/STM32L1xx_HAL_Driver/Inc/stm32l1xx_ll_system.h ****   return (uint32_t)(READ_BIT(SYSCFG->MEMRMP, SYSCFG_MEMRMP_MEM_MODE));
 454:Drivers/STM32L1xx_HAL_Driver/Inc/stm32l1xx_ll_system.h **** }
 455:Drivers/STM32L1xx_HAL_Driver/Inc/stm32l1xx_ll_system.h **** 
 456:Drivers/STM32L1xx_HAL_Driver/Inc/stm32l1xx_ll_system.h **** /**
 457:Drivers/STM32L1xx_HAL_Driver/Inc/stm32l1xx_ll_system.h ****   * @brief  Return the boot mode as configured by user.
 458:Drivers/STM32L1xx_HAL_Driver/Inc/stm32l1xx_ll_system.h ****   * @rmtoll SYSCFG_MEMRMP BOOT_MODE     LL_SYSCFG_GetBootMode
 459:Drivers/STM32L1xx_HAL_Driver/Inc/stm32l1xx_ll_system.h ****   * @retval Returned value can be one of the following values:
 460:Drivers/STM32L1xx_HAL_Driver/Inc/stm32l1xx_ll_system.h ****   *         @arg @ref LL_SYSCFG_BOOTMODE_FLASH
 461:Drivers/STM32L1xx_HAL_Driver/Inc/stm32l1xx_ll_system.h ****   *         @arg @ref LL_SYSCFG_BOOTMODE_SYSTEMFLASH
 462:Drivers/STM32L1xx_HAL_Driver/Inc/stm32l1xx_ll_system.h ****   *         @arg @ref LL_SYSCFG_BOOTMODE_FSMC (*)
 463:Drivers/STM32L1xx_HAL_Driver/Inc/stm32l1xx_ll_system.h ****   *         @arg @ref LL_SYSCFG_BOOTMODE_SRAM
 464:Drivers/STM32L1xx_HAL_Driver/Inc/stm32l1xx_ll_system.h ****   *
 465:Drivers/STM32L1xx_HAL_Driver/Inc/stm32l1xx_ll_system.h ****   *         (*) value not defined in all devices.
 466:Drivers/STM32L1xx_HAL_Driver/Inc/stm32l1xx_ll_system.h ****   */
 467:Drivers/STM32L1xx_HAL_Driver/Inc/stm32l1xx_ll_system.h **** __STATIC_INLINE uint32_t LL_SYSCFG_GetBootMode(void)
 468:Drivers/STM32L1xx_HAL_Driver/Inc/stm32l1xx_ll_system.h **** {
 469:Drivers/STM32L1xx_HAL_Driver/Inc/stm32l1xx_ll_system.h ****   return (uint32_t)(READ_BIT(SYSCFG->MEMRMP, SYSCFG_MEMRMP_BOOT_MODE));
 470:Drivers/STM32L1xx_HAL_Driver/Inc/stm32l1xx_ll_system.h **** }
 471:Drivers/STM32L1xx_HAL_Driver/Inc/stm32l1xx_ll_system.h **** 
 472:Drivers/STM32L1xx_HAL_Driver/Inc/stm32l1xx_ll_system.h **** /**
 473:Drivers/STM32L1xx_HAL_Driver/Inc/stm32l1xx_ll_system.h ****   * @brief  Enable internal pull-up on USB DP line.
 474:Drivers/STM32L1xx_HAL_Driver/Inc/stm32l1xx_ll_system.h ****   * @rmtoll SYSCFG_PMC   USB_PU        LL_SYSCFG_EnableUSBPullUp
 475:Drivers/STM32L1xx_HAL_Driver/Inc/stm32l1xx_ll_system.h ****   * @retval None
 476:Drivers/STM32L1xx_HAL_Driver/Inc/stm32l1xx_ll_system.h ****   */
 477:Drivers/STM32L1xx_HAL_Driver/Inc/stm32l1xx_ll_system.h **** __STATIC_INLINE void LL_SYSCFG_EnableUSBPullUp(void)
 478:Drivers/STM32L1xx_HAL_Driver/Inc/stm32l1xx_ll_system.h **** {
 479:Drivers/STM32L1xx_HAL_Driver/Inc/stm32l1xx_ll_system.h ****   SET_BIT(SYSCFG->PMC, SYSCFG_PMC_USB_PU);
 480:Drivers/STM32L1xx_HAL_Driver/Inc/stm32l1xx_ll_system.h **** }
 481:Drivers/STM32L1xx_HAL_Driver/Inc/stm32l1xx_ll_system.h **** 
 482:Drivers/STM32L1xx_HAL_Driver/Inc/stm32l1xx_ll_system.h **** /**
 483:Drivers/STM32L1xx_HAL_Driver/Inc/stm32l1xx_ll_system.h ****   * @brief  Disable internal pull-up on USB DP line.
 484:Drivers/STM32L1xx_HAL_Driver/Inc/stm32l1xx_ll_system.h ****   * @rmtoll SYSCFG_PMC   USB_PU        LL_SYSCFG_DisableUSBPullUp
 485:Drivers/STM32L1xx_HAL_Driver/Inc/stm32l1xx_ll_system.h ****   * @retval None
 486:Drivers/STM32L1xx_HAL_Driver/Inc/stm32l1xx_ll_system.h ****   */
 487:Drivers/STM32L1xx_HAL_Driver/Inc/stm32l1xx_ll_system.h **** __STATIC_INLINE void LL_SYSCFG_DisableUSBPullUp(void)
 488:Drivers/STM32L1xx_HAL_Driver/Inc/stm32l1xx_ll_system.h **** {
 489:Drivers/STM32L1xx_HAL_Driver/Inc/stm32l1xx_ll_system.h ****   CLEAR_BIT(SYSCFG->PMC, SYSCFG_PMC_USB_PU);
 490:Drivers/STM32L1xx_HAL_Driver/Inc/stm32l1xx_ll_system.h **** }
 491:Drivers/STM32L1xx_HAL_Driver/Inc/stm32l1xx_ll_system.h **** 
 492:Drivers/STM32L1xx_HAL_Driver/Inc/stm32l1xx_ll_system.h **** #if defined(LCD)
 493:Drivers/STM32L1xx_HAL_Driver/Inc/stm32l1xx_ll_system.h **** /**
 494:Drivers/STM32L1xx_HAL_Driver/Inc/stm32l1xx_ll_system.h ****   * @brief  Enable decoupling capacitance connection.
 495:Drivers/STM32L1xx_HAL_Driver/Inc/stm32l1xx_ll_system.h ****   * @rmtoll SYSCFG_PMC   LCD_CAPA      LL_SYSCFG_EnableLCDCapacitanceConnection
ARM GAS  /tmp/ccCpqwiQ.s 			page 18


 496:Drivers/STM32L1xx_HAL_Driver/Inc/stm32l1xx_ll_system.h ****   * @param  Pin This parameter can be a combination of the following values:
 497:Drivers/STM32L1xx_HAL_Driver/Inc/stm32l1xx_ll_system.h ****   *         @arg @ref LL_SYSCFG_LCDCAPA_PB2
 498:Drivers/STM32L1xx_HAL_Driver/Inc/stm32l1xx_ll_system.h ****   *         @arg @ref LL_SYSCFG_LCDCAPA_PB12
 499:Drivers/STM32L1xx_HAL_Driver/Inc/stm32l1xx_ll_system.h ****   *         @arg @ref LL_SYSCFG_LCDCAPA_PB0
 500:Drivers/STM32L1xx_HAL_Driver/Inc/stm32l1xx_ll_system.h ****   *         @arg @ref LL_SYSCFG_LCDCAPA_PE11
 501:Drivers/STM32L1xx_HAL_Driver/Inc/stm32l1xx_ll_system.h ****   *         @arg @ref LL_SYSCFG_LCDCAPA_PE12
 502:Drivers/STM32L1xx_HAL_Driver/Inc/stm32l1xx_ll_system.h ****   * @retval None
 503:Drivers/STM32L1xx_HAL_Driver/Inc/stm32l1xx_ll_system.h ****   */
 504:Drivers/STM32L1xx_HAL_Driver/Inc/stm32l1xx_ll_system.h **** __STATIC_INLINE void LL_SYSCFG_EnableLCDCapacitanceConnection(uint32_t Pin)
 505:Drivers/STM32L1xx_HAL_Driver/Inc/stm32l1xx_ll_system.h **** {
 506:Drivers/STM32L1xx_HAL_Driver/Inc/stm32l1xx_ll_system.h ****   SET_BIT(SYSCFG->PMC, Pin);
 507:Drivers/STM32L1xx_HAL_Driver/Inc/stm32l1xx_ll_system.h **** }
 508:Drivers/STM32L1xx_HAL_Driver/Inc/stm32l1xx_ll_system.h **** 
 509:Drivers/STM32L1xx_HAL_Driver/Inc/stm32l1xx_ll_system.h **** /**
 510:Drivers/STM32L1xx_HAL_Driver/Inc/stm32l1xx_ll_system.h ****   * @brief  DIsable decoupling capacitance connection.
 511:Drivers/STM32L1xx_HAL_Driver/Inc/stm32l1xx_ll_system.h ****   * @rmtoll SYSCFG_PMC   LCD_CAPA      LL_SYSCFG_DisableLCDCapacitanceConnection
 512:Drivers/STM32L1xx_HAL_Driver/Inc/stm32l1xx_ll_system.h ****   * @param  Pin This parameter can be a combination of the following values:
 513:Drivers/STM32L1xx_HAL_Driver/Inc/stm32l1xx_ll_system.h ****   *         @arg @ref LL_SYSCFG_LCDCAPA_PB2
 514:Drivers/STM32L1xx_HAL_Driver/Inc/stm32l1xx_ll_system.h ****   *         @arg @ref LL_SYSCFG_LCDCAPA_PB12
 515:Drivers/STM32L1xx_HAL_Driver/Inc/stm32l1xx_ll_system.h ****   *         @arg @ref LL_SYSCFG_LCDCAPA_PB0
 516:Drivers/STM32L1xx_HAL_Driver/Inc/stm32l1xx_ll_system.h ****   *         @arg @ref LL_SYSCFG_LCDCAPA_PE11
 517:Drivers/STM32L1xx_HAL_Driver/Inc/stm32l1xx_ll_system.h ****   *         @arg @ref LL_SYSCFG_LCDCAPA_PE12
 518:Drivers/STM32L1xx_HAL_Driver/Inc/stm32l1xx_ll_system.h ****   * @retval None
 519:Drivers/STM32L1xx_HAL_Driver/Inc/stm32l1xx_ll_system.h ****   */
 520:Drivers/STM32L1xx_HAL_Driver/Inc/stm32l1xx_ll_system.h **** __STATIC_INLINE void LL_SYSCFG_DisableLCDCapacitanceConnection(uint32_t Pin)
 521:Drivers/STM32L1xx_HAL_Driver/Inc/stm32l1xx_ll_system.h **** {
 522:Drivers/STM32L1xx_HAL_Driver/Inc/stm32l1xx_ll_system.h ****   CLEAR_BIT(SYSCFG->PMC, Pin);
 523:Drivers/STM32L1xx_HAL_Driver/Inc/stm32l1xx_ll_system.h **** }
 524:Drivers/STM32L1xx_HAL_Driver/Inc/stm32l1xx_ll_system.h **** #endif /* LCD */
 525:Drivers/STM32L1xx_HAL_Driver/Inc/stm32l1xx_ll_system.h **** 
 526:Drivers/STM32L1xx_HAL_Driver/Inc/stm32l1xx_ll_system.h **** /**
 527:Drivers/STM32L1xx_HAL_Driver/Inc/stm32l1xx_ll_system.h ****   * @brief  Configure source input for the EXTI external interrupt.
 528:Drivers/STM32L1xx_HAL_Driver/Inc/stm32l1xx_ll_system.h ****   * @rmtoll SYSCFG_EXTICR1 EXTI0         LL_SYSCFG_SetEXTISource\n
 529:Drivers/STM32L1xx_HAL_Driver/Inc/stm32l1xx_ll_system.h ****   *         SYSCFG_EXTICR1 EXTI1         LL_SYSCFG_SetEXTISource\n
 530:Drivers/STM32L1xx_HAL_Driver/Inc/stm32l1xx_ll_system.h ****   *         SYSCFG_EXTICR1 EXTI2         LL_SYSCFG_SetEXTISource\n
 531:Drivers/STM32L1xx_HAL_Driver/Inc/stm32l1xx_ll_system.h ****   *         SYSCFG_EXTICR1 EXTI3         LL_SYSCFG_SetEXTISource\n
 532:Drivers/STM32L1xx_HAL_Driver/Inc/stm32l1xx_ll_system.h ****   *         SYSCFG_EXTICR1 EXTI4         LL_SYSCFG_SetEXTISource\n
 533:Drivers/STM32L1xx_HAL_Driver/Inc/stm32l1xx_ll_system.h ****   *         SYSCFG_EXTICR1 EXTI5         LL_SYSCFG_SetEXTISource\n
 534:Drivers/STM32L1xx_HAL_Driver/Inc/stm32l1xx_ll_system.h ****   *         SYSCFG_EXTICR1 EXTI6         LL_SYSCFG_SetEXTISource\n
 535:Drivers/STM32L1xx_HAL_Driver/Inc/stm32l1xx_ll_system.h ****   *         SYSCFG_EXTICR1 EXTI7         LL_SYSCFG_SetEXTISource\n
 536:Drivers/STM32L1xx_HAL_Driver/Inc/stm32l1xx_ll_system.h ****   *         SYSCFG_EXTICR1 EXTI8         LL_SYSCFG_SetEXTISource\n
 537:Drivers/STM32L1xx_HAL_Driver/Inc/stm32l1xx_ll_system.h ****   *         SYSCFG_EXTICR1 EXTI9         LL_SYSCFG_SetEXTISource\n
 538:Drivers/STM32L1xx_HAL_Driver/Inc/stm32l1xx_ll_system.h ****   *         SYSCFG_EXTICR1 EXTI10        LL_SYSCFG_SetEXTISource\n
 539:Drivers/STM32L1xx_HAL_Driver/Inc/stm32l1xx_ll_system.h ****   *         SYSCFG_EXTICR1 EXTI11        LL_SYSCFG_SetEXTISource\n
 540:Drivers/STM32L1xx_HAL_Driver/Inc/stm32l1xx_ll_system.h ****   *         SYSCFG_EXTICR1 EXTI12        LL_SYSCFG_SetEXTISource\n
 541:Drivers/STM32L1xx_HAL_Driver/Inc/stm32l1xx_ll_system.h ****   *         SYSCFG_EXTICR1 EXTI13        LL_SYSCFG_SetEXTISource\n
 542:Drivers/STM32L1xx_HAL_Driver/Inc/stm32l1xx_ll_system.h ****   *         SYSCFG_EXTICR1 EXTI14        LL_SYSCFG_SetEXTISource\n
 543:Drivers/STM32L1xx_HAL_Driver/Inc/stm32l1xx_ll_system.h ****   *         SYSCFG_EXTICR1 EXTI15        LL_SYSCFG_SetEXTISource\n
 544:Drivers/STM32L1xx_HAL_Driver/Inc/stm32l1xx_ll_system.h ****   *         SYSCFG_EXTICR2 EXTI0         LL_SYSCFG_SetEXTISource\n
 545:Drivers/STM32L1xx_HAL_Driver/Inc/stm32l1xx_ll_system.h ****   *         SYSCFG_EXTICR2 EXTI1         LL_SYSCFG_SetEXTISource\n
 546:Drivers/STM32L1xx_HAL_Driver/Inc/stm32l1xx_ll_system.h ****   *         SYSCFG_EXTICR2 EXTI2         LL_SYSCFG_SetEXTISource\n
 547:Drivers/STM32L1xx_HAL_Driver/Inc/stm32l1xx_ll_system.h ****   *         SYSCFG_EXTICR2 EXTI3         LL_SYSCFG_SetEXTISource\n
 548:Drivers/STM32L1xx_HAL_Driver/Inc/stm32l1xx_ll_system.h ****   *         SYSCFG_EXTICR2 EXTI4         LL_SYSCFG_SetEXTISource\n
 549:Drivers/STM32L1xx_HAL_Driver/Inc/stm32l1xx_ll_system.h ****   *         SYSCFG_EXTICR2 EXTI5         LL_SYSCFG_SetEXTISource\n
 550:Drivers/STM32L1xx_HAL_Driver/Inc/stm32l1xx_ll_system.h ****   *         SYSCFG_EXTICR2 EXTI6         LL_SYSCFG_SetEXTISource\n
 551:Drivers/STM32L1xx_HAL_Driver/Inc/stm32l1xx_ll_system.h ****   *         SYSCFG_EXTICR2 EXTI7         LL_SYSCFG_SetEXTISource\n
 552:Drivers/STM32L1xx_HAL_Driver/Inc/stm32l1xx_ll_system.h ****   *         SYSCFG_EXTICR2 EXTI8         LL_SYSCFG_SetEXTISource\n
ARM GAS  /tmp/ccCpqwiQ.s 			page 19


 553:Drivers/STM32L1xx_HAL_Driver/Inc/stm32l1xx_ll_system.h ****   *         SYSCFG_EXTICR2 EXTI9         LL_SYSCFG_SetEXTISource\n
 554:Drivers/STM32L1xx_HAL_Driver/Inc/stm32l1xx_ll_system.h ****   *         SYSCFG_EXTICR2 EXTI10        LL_SYSCFG_SetEXTISource\n
 555:Drivers/STM32L1xx_HAL_Driver/Inc/stm32l1xx_ll_system.h ****   *         SYSCFG_EXTICR2 EXTI11        LL_SYSCFG_SetEXTISource\n
 556:Drivers/STM32L1xx_HAL_Driver/Inc/stm32l1xx_ll_system.h ****   *         SYSCFG_EXTICR2 EXTI12        LL_SYSCFG_SetEXTISource\n
 557:Drivers/STM32L1xx_HAL_Driver/Inc/stm32l1xx_ll_system.h ****   *         SYSCFG_EXTICR2 EXTI13        LL_SYSCFG_SetEXTISource\n
 558:Drivers/STM32L1xx_HAL_Driver/Inc/stm32l1xx_ll_system.h ****   *         SYSCFG_EXTICR2 EXTI14        LL_SYSCFG_SetEXTISource\n
 559:Drivers/STM32L1xx_HAL_Driver/Inc/stm32l1xx_ll_system.h ****   *         SYSCFG_EXTICR2 EXTI15        LL_SYSCFG_SetEXTISource\n
 560:Drivers/STM32L1xx_HAL_Driver/Inc/stm32l1xx_ll_system.h ****   *         SYSCFG_EXTICR3 EXTI0         LL_SYSCFG_SetEXTISource\n
 561:Drivers/STM32L1xx_HAL_Driver/Inc/stm32l1xx_ll_system.h ****   *         SYSCFG_EXTICR3 EXTI1         LL_SYSCFG_SetEXTISource\n
 562:Drivers/STM32L1xx_HAL_Driver/Inc/stm32l1xx_ll_system.h ****   *         SYSCFG_EXTICR3 EXTI2         LL_SYSCFG_SetEXTISource\n
 563:Drivers/STM32L1xx_HAL_Driver/Inc/stm32l1xx_ll_system.h ****   *         SYSCFG_EXTICR3 EXTI3         LL_SYSCFG_SetEXTISource\n
 564:Drivers/STM32L1xx_HAL_Driver/Inc/stm32l1xx_ll_system.h ****   *         SYSCFG_EXTICR3 EXTI4         LL_SYSCFG_SetEXTISource\n
 565:Drivers/STM32L1xx_HAL_Driver/Inc/stm32l1xx_ll_system.h ****   *         SYSCFG_EXTICR3 EXTI5         LL_SYSCFG_SetEXTISource\n
 566:Drivers/STM32L1xx_HAL_Driver/Inc/stm32l1xx_ll_system.h ****   *         SYSCFG_EXTICR3 EXTI6         LL_SYSCFG_SetEXTISource\n
 567:Drivers/STM32L1xx_HAL_Driver/Inc/stm32l1xx_ll_system.h ****   *         SYSCFG_EXTICR3 EXTI7         LL_SYSCFG_SetEXTISource\n
 568:Drivers/STM32L1xx_HAL_Driver/Inc/stm32l1xx_ll_system.h ****   *         SYSCFG_EXTICR3 EXTI8         LL_SYSCFG_SetEXTISource\n
 569:Drivers/STM32L1xx_HAL_Driver/Inc/stm32l1xx_ll_system.h ****   *         SYSCFG_EXTICR3 EXTI9         LL_SYSCFG_SetEXTISource\n
 570:Drivers/STM32L1xx_HAL_Driver/Inc/stm32l1xx_ll_system.h ****   *         SYSCFG_EXTICR3 EXTI10        LL_SYSCFG_SetEXTISource\n
 571:Drivers/STM32L1xx_HAL_Driver/Inc/stm32l1xx_ll_system.h ****   *         SYSCFG_EXTICR3 EXTI11        LL_SYSCFG_SetEXTISource\n
 572:Drivers/STM32L1xx_HAL_Driver/Inc/stm32l1xx_ll_system.h ****   *         SYSCFG_EXTICR3 EXTI12        LL_SYSCFG_SetEXTISource\n
 573:Drivers/STM32L1xx_HAL_Driver/Inc/stm32l1xx_ll_system.h ****   *         SYSCFG_EXTICR3 EXTI13        LL_SYSCFG_SetEXTISource\n
 574:Drivers/STM32L1xx_HAL_Driver/Inc/stm32l1xx_ll_system.h ****   *         SYSCFG_EXTICR3 EXTI14        LL_SYSCFG_SetEXTISource\n
 575:Drivers/STM32L1xx_HAL_Driver/Inc/stm32l1xx_ll_system.h ****   *         SYSCFG_EXTICR3 EXTI15        LL_SYSCFG_SetEXTISource\n
 576:Drivers/STM32L1xx_HAL_Driver/Inc/stm32l1xx_ll_system.h ****   *         SYSCFG_EXTICR4 EXTI0         LL_SYSCFG_SetEXTISource\n
 577:Drivers/STM32L1xx_HAL_Driver/Inc/stm32l1xx_ll_system.h ****   *         SYSCFG_EXTICR4 EXTI1         LL_SYSCFG_SetEXTISource\n
 578:Drivers/STM32L1xx_HAL_Driver/Inc/stm32l1xx_ll_system.h ****   *         SYSCFG_EXTICR4 EXTI2         LL_SYSCFG_SetEXTISource\n
 579:Drivers/STM32L1xx_HAL_Driver/Inc/stm32l1xx_ll_system.h ****   *         SYSCFG_EXTICR4 EXTI3         LL_SYSCFG_SetEXTISource\n
 580:Drivers/STM32L1xx_HAL_Driver/Inc/stm32l1xx_ll_system.h ****   *         SYSCFG_EXTICR4 EXTI4         LL_SYSCFG_SetEXTISource\n
 581:Drivers/STM32L1xx_HAL_Driver/Inc/stm32l1xx_ll_system.h ****   *         SYSCFG_EXTICR4 EXTI5         LL_SYSCFG_SetEXTISource\n
 582:Drivers/STM32L1xx_HAL_Driver/Inc/stm32l1xx_ll_system.h ****   *         SYSCFG_EXTICR4 EXTI6         LL_SYSCFG_SetEXTISource\n
 583:Drivers/STM32L1xx_HAL_Driver/Inc/stm32l1xx_ll_system.h ****   *         SYSCFG_EXTICR4 EXTI7         LL_SYSCFG_SetEXTISource\n
 584:Drivers/STM32L1xx_HAL_Driver/Inc/stm32l1xx_ll_system.h ****   *         SYSCFG_EXTICR4 EXTI8         LL_SYSCFG_SetEXTISource\n
 585:Drivers/STM32L1xx_HAL_Driver/Inc/stm32l1xx_ll_system.h ****   *         SYSCFG_EXTICR4 EXTI9         LL_SYSCFG_SetEXTISource\n
 586:Drivers/STM32L1xx_HAL_Driver/Inc/stm32l1xx_ll_system.h ****   *         SYSCFG_EXTICR4 EXTI10        LL_SYSCFG_SetEXTISource\n
 587:Drivers/STM32L1xx_HAL_Driver/Inc/stm32l1xx_ll_system.h ****   *         SYSCFG_EXTICR4 EXTI11        LL_SYSCFG_SetEXTISource\n
 588:Drivers/STM32L1xx_HAL_Driver/Inc/stm32l1xx_ll_system.h ****   *         SYSCFG_EXTICR4 EXTI12        LL_SYSCFG_SetEXTISource\n
 589:Drivers/STM32L1xx_HAL_Driver/Inc/stm32l1xx_ll_system.h ****   *         SYSCFG_EXTICR4 EXTI13        LL_SYSCFG_SetEXTISource\n
 590:Drivers/STM32L1xx_HAL_Driver/Inc/stm32l1xx_ll_system.h ****   *         SYSCFG_EXTICR4 EXTI14        LL_SYSCFG_SetEXTISource\n
 591:Drivers/STM32L1xx_HAL_Driver/Inc/stm32l1xx_ll_system.h ****   *         SYSCFG_EXTICR4 EXTI15        LL_SYSCFG_SetEXTISource
 592:Drivers/STM32L1xx_HAL_Driver/Inc/stm32l1xx_ll_system.h ****   * @param  Port This parameter can be one of the following values:
 593:Drivers/STM32L1xx_HAL_Driver/Inc/stm32l1xx_ll_system.h ****   *         @arg @ref LL_SYSCFG_EXTI_PORTA
 594:Drivers/STM32L1xx_HAL_Driver/Inc/stm32l1xx_ll_system.h ****   *         @arg @ref LL_SYSCFG_EXTI_PORTB
 595:Drivers/STM32L1xx_HAL_Driver/Inc/stm32l1xx_ll_system.h ****   *         @arg @ref LL_SYSCFG_EXTI_PORTC
 596:Drivers/STM32L1xx_HAL_Driver/Inc/stm32l1xx_ll_system.h ****   *         @arg @ref LL_SYSCFG_EXTI_PORTD
 597:Drivers/STM32L1xx_HAL_Driver/Inc/stm32l1xx_ll_system.h ****   *         @arg @ref LL_SYSCFG_EXTI_PORTE (*)
 598:Drivers/STM32L1xx_HAL_Driver/Inc/stm32l1xx_ll_system.h ****   *         @arg @ref LL_SYSCFG_EXTI_PORTF (*)
 599:Drivers/STM32L1xx_HAL_Driver/Inc/stm32l1xx_ll_system.h ****   *         @arg @ref LL_SYSCFG_EXTI_PORTG (*)
 600:Drivers/STM32L1xx_HAL_Driver/Inc/stm32l1xx_ll_system.h ****   *         @arg @ref LL_SYSCFG_EXTI_PORTH
 601:Drivers/STM32L1xx_HAL_Driver/Inc/stm32l1xx_ll_system.h ****   *
 602:Drivers/STM32L1xx_HAL_Driver/Inc/stm32l1xx_ll_system.h ****   *         (*) value not defined in all devices.
 603:Drivers/STM32L1xx_HAL_Driver/Inc/stm32l1xx_ll_system.h ****   * @param  Line This parameter can be one of the following values:
 604:Drivers/STM32L1xx_HAL_Driver/Inc/stm32l1xx_ll_system.h ****   *         @arg @ref LL_SYSCFG_EXTI_LINE0
 605:Drivers/STM32L1xx_HAL_Driver/Inc/stm32l1xx_ll_system.h ****   *         @arg @ref LL_SYSCFG_EXTI_LINE1
 606:Drivers/STM32L1xx_HAL_Driver/Inc/stm32l1xx_ll_system.h ****   *         @arg @ref LL_SYSCFG_EXTI_LINE2
 607:Drivers/STM32L1xx_HAL_Driver/Inc/stm32l1xx_ll_system.h ****   *         @arg @ref LL_SYSCFG_EXTI_LINE3
 608:Drivers/STM32L1xx_HAL_Driver/Inc/stm32l1xx_ll_system.h ****   *         @arg @ref LL_SYSCFG_EXTI_LINE4
 609:Drivers/STM32L1xx_HAL_Driver/Inc/stm32l1xx_ll_system.h ****   *         @arg @ref LL_SYSCFG_EXTI_LINE5
ARM GAS  /tmp/ccCpqwiQ.s 			page 20


 610:Drivers/STM32L1xx_HAL_Driver/Inc/stm32l1xx_ll_system.h ****   *         @arg @ref LL_SYSCFG_EXTI_LINE6
 611:Drivers/STM32L1xx_HAL_Driver/Inc/stm32l1xx_ll_system.h ****   *         @arg @ref LL_SYSCFG_EXTI_LINE7
 612:Drivers/STM32L1xx_HAL_Driver/Inc/stm32l1xx_ll_system.h ****   *         @arg @ref LL_SYSCFG_EXTI_LINE8
 613:Drivers/STM32L1xx_HAL_Driver/Inc/stm32l1xx_ll_system.h ****   *         @arg @ref LL_SYSCFG_EXTI_LINE9
 614:Drivers/STM32L1xx_HAL_Driver/Inc/stm32l1xx_ll_system.h ****   *         @arg @ref LL_SYSCFG_EXTI_LINE10
 615:Drivers/STM32L1xx_HAL_Driver/Inc/stm32l1xx_ll_system.h ****   *         @arg @ref LL_SYSCFG_EXTI_LINE11
 616:Drivers/STM32L1xx_HAL_Driver/Inc/stm32l1xx_ll_system.h ****   *         @arg @ref LL_SYSCFG_EXTI_LINE12
 617:Drivers/STM32L1xx_HAL_Driver/Inc/stm32l1xx_ll_system.h ****   *         @arg @ref LL_SYSCFG_EXTI_LINE13
 618:Drivers/STM32L1xx_HAL_Driver/Inc/stm32l1xx_ll_system.h ****   *         @arg @ref LL_SYSCFG_EXTI_LINE14
 619:Drivers/STM32L1xx_HAL_Driver/Inc/stm32l1xx_ll_system.h ****   *         @arg @ref LL_SYSCFG_EXTI_LINE15
 620:Drivers/STM32L1xx_HAL_Driver/Inc/stm32l1xx_ll_system.h ****   * @retval None
 621:Drivers/STM32L1xx_HAL_Driver/Inc/stm32l1xx_ll_system.h ****   */
 622:Drivers/STM32L1xx_HAL_Driver/Inc/stm32l1xx_ll_system.h **** __STATIC_INLINE void LL_SYSCFG_SetEXTISource(uint32_t Port, uint32_t Line)
 623:Drivers/STM32L1xx_HAL_Driver/Inc/stm32l1xx_ll_system.h **** {
 624:Drivers/STM32L1xx_HAL_Driver/Inc/stm32l1xx_ll_system.h ****   MODIFY_REG(SYSCFG->EXTICR[Line & 0x3U], (Line >> 16), Port << POSITION_VAL((Line >> 16)));
 625:Drivers/STM32L1xx_HAL_Driver/Inc/stm32l1xx_ll_system.h **** }
 626:Drivers/STM32L1xx_HAL_Driver/Inc/stm32l1xx_ll_system.h **** 
 627:Drivers/STM32L1xx_HAL_Driver/Inc/stm32l1xx_ll_system.h **** /**
 628:Drivers/STM32L1xx_HAL_Driver/Inc/stm32l1xx_ll_system.h ****   * @brief  Get the configured defined for specific EXTI Line
 629:Drivers/STM32L1xx_HAL_Driver/Inc/stm32l1xx_ll_system.h ****   * @rmtoll SYSCFG_EXTICR1 EXTI0         LL_SYSCFG_GetEXTISource\n
 630:Drivers/STM32L1xx_HAL_Driver/Inc/stm32l1xx_ll_system.h ****   *         SYSCFG_EXTICR1 EXTI1         LL_SYSCFG_GetEXTISource\n
 631:Drivers/STM32L1xx_HAL_Driver/Inc/stm32l1xx_ll_system.h ****   *         SYSCFG_EXTICR1 EXTI2         LL_SYSCFG_GetEXTISource\n
 632:Drivers/STM32L1xx_HAL_Driver/Inc/stm32l1xx_ll_system.h ****   *         SYSCFG_EXTICR1 EXTI3         LL_SYSCFG_GetEXTISource\n
 633:Drivers/STM32L1xx_HAL_Driver/Inc/stm32l1xx_ll_system.h ****   *         SYSCFG_EXTICR1 EXTI4         LL_SYSCFG_GetEXTISource\n
 634:Drivers/STM32L1xx_HAL_Driver/Inc/stm32l1xx_ll_system.h ****   *         SYSCFG_EXTICR1 EXTI5         LL_SYSCFG_GetEXTISource\n
 635:Drivers/STM32L1xx_HAL_Driver/Inc/stm32l1xx_ll_system.h ****   *         SYSCFG_EXTICR1 EXTI6         LL_SYSCFG_GetEXTISource\n
 636:Drivers/STM32L1xx_HAL_Driver/Inc/stm32l1xx_ll_system.h ****   *         SYSCFG_EXTICR1 EXTI7         LL_SYSCFG_GetEXTISource\n
 637:Drivers/STM32L1xx_HAL_Driver/Inc/stm32l1xx_ll_system.h ****   *         SYSCFG_EXTICR1 EXTI8         LL_SYSCFG_GetEXTISource\n
 638:Drivers/STM32L1xx_HAL_Driver/Inc/stm32l1xx_ll_system.h ****   *         SYSCFG_EXTICR1 EXTI9         LL_SYSCFG_GetEXTISource\n
 639:Drivers/STM32L1xx_HAL_Driver/Inc/stm32l1xx_ll_system.h ****   *         SYSCFG_EXTICR1 EXTI10        LL_SYSCFG_GetEXTISource\n
 640:Drivers/STM32L1xx_HAL_Driver/Inc/stm32l1xx_ll_system.h ****   *         SYSCFG_EXTICR1 EXTI11        LL_SYSCFG_GetEXTISource\n
 641:Drivers/STM32L1xx_HAL_Driver/Inc/stm32l1xx_ll_system.h ****   *         SYSCFG_EXTICR1 EXTI12        LL_SYSCFG_GetEXTISource\n
 642:Drivers/STM32L1xx_HAL_Driver/Inc/stm32l1xx_ll_system.h ****   *         SYSCFG_EXTICR1 EXTI13        LL_SYSCFG_GetEXTISource\n
 643:Drivers/STM32L1xx_HAL_Driver/Inc/stm32l1xx_ll_system.h ****   *         SYSCFG_EXTICR1 EXTI14        LL_SYSCFG_GetEXTISource\n
 644:Drivers/STM32L1xx_HAL_Driver/Inc/stm32l1xx_ll_system.h ****   *         SYSCFG_EXTICR1 EXTI15        LL_SYSCFG_GetEXTISource\n
 645:Drivers/STM32L1xx_HAL_Driver/Inc/stm32l1xx_ll_system.h ****   *         SYSCFG_EXTICR2 EXTI0         LL_SYSCFG_GetEXTISource\n
 646:Drivers/STM32L1xx_HAL_Driver/Inc/stm32l1xx_ll_system.h ****   *         SYSCFG_EXTICR2 EXTI1         LL_SYSCFG_GetEXTISource\n
 647:Drivers/STM32L1xx_HAL_Driver/Inc/stm32l1xx_ll_system.h ****   *         SYSCFG_EXTICR2 EXTI2         LL_SYSCFG_GetEXTISource\n
 648:Drivers/STM32L1xx_HAL_Driver/Inc/stm32l1xx_ll_system.h ****   *         SYSCFG_EXTICR2 EXTI3         LL_SYSCFG_GetEXTISource\n
 649:Drivers/STM32L1xx_HAL_Driver/Inc/stm32l1xx_ll_system.h ****   *         SYSCFG_EXTICR2 EXTI4         LL_SYSCFG_GetEXTISource\n
 650:Drivers/STM32L1xx_HAL_Driver/Inc/stm32l1xx_ll_system.h ****   *         SYSCFG_EXTICR2 EXTI5         LL_SYSCFG_GetEXTISource\n
 651:Drivers/STM32L1xx_HAL_Driver/Inc/stm32l1xx_ll_system.h ****   *         SYSCFG_EXTICR2 EXTI6         LL_SYSCFG_GetEXTISource\n
 652:Drivers/STM32L1xx_HAL_Driver/Inc/stm32l1xx_ll_system.h ****   *         SYSCFG_EXTICR2 EXTI7         LL_SYSCFG_GetEXTISource\n
 653:Drivers/STM32L1xx_HAL_Driver/Inc/stm32l1xx_ll_system.h ****   *         SYSCFG_EXTICR2 EXTI8         LL_SYSCFG_GetEXTISource\n
 654:Drivers/STM32L1xx_HAL_Driver/Inc/stm32l1xx_ll_system.h ****   *         SYSCFG_EXTICR2 EXTI9         LL_SYSCFG_GetEXTISource\n
 655:Drivers/STM32L1xx_HAL_Driver/Inc/stm32l1xx_ll_system.h ****   *         SYSCFG_EXTICR2 EXTI10        LL_SYSCFG_GetEXTISource\n
 656:Drivers/STM32L1xx_HAL_Driver/Inc/stm32l1xx_ll_system.h ****   *         SYSCFG_EXTICR2 EXTI11        LL_SYSCFG_GetEXTISource\n
 657:Drivers/STM32L1xx_HAL_Driver/Inc/stm32l1xx_ll_system.h ****   *         SYSCFG_EXTICR2 EXTI12        LL_SYSCFG_GetEXTISource\n
 658:Drivers/STM32L1xx_HAL_Driver/Inc/stm32l1xx_ll_system.h ****   *         SYSCFG_EXTICR2 EXTI13        LL_SYSCFG_GetEXTISource\n
 659:Drivers/STM32L1xx_HAL_Driver/Inc/stm32l1xx_ll_system.h ****   *         SYSCFG_EXTICR2 EXTI14        LL_SYSCFG_GetEXTISource\n
 660:Drivers/STM32L1xx_HAL_Driver/Inc/stm32l1xx_ll_system.h ****   *         SYSCFG_EXTICR2 EXTI15        LL_SYSCFG_GetEXTISource\n
 661:Drivers/STM32L1xx_HAL_Driver/Inc/stm32l1xx_ll_system.h ****   *         SYSCFG_EXTICR3 EXTI0         LL_SYSCFG_GetEXTISource\n
 662:Drivers/STM32L1xx_HAL_Driver/Inc/stm32l1xx_ll_system.h ****   *         SYSCFG_EXTICR3 EXTI1         LL_SYSCFG_GetEXTISource\n
 663:Drivers/STM32L1xx_HAL_Driver/Inc/stm32l1xx_ll_system.h ****   *         SYSCFG_EXTICR3 EXTI2         LL_SYSCFG_GetEXTISource\n
 664:Drivers/STM32L1xx_HAL_Driver/Inc/stm32l1xx_ll_system.h ****   *         SYSCFG_EXTICR3 EXTI3         LL_SYSCFG_GetEXTISource\n
 665:Drivers/STM32L1xx_HAL_Driver/Inc/stm32l1xx_ll_system.h ****   *         SYSCFG_EXTICR3 EXTI4         LL_SYSCFG_GetEXTISource\n
 666:Drivers/STM32L1xx_HAL_Driver/Inc/stm32l1xx_ll_system.h ****   *         SYSCFG_EXTICR3 EXTI5         LL_SYSCFG_GetEXTISource\n
ARM GAS  /tmp/ccCpqwiQ.s 			page 21


 667:Drivers/STM32L1xx_HAL_Driver/Inc/stm32l1xx_ll_system.h ****   *         SYSCFG_EXTICR3 EXTI6         LL_SYSCFG_GetEXTISource\n
 668:Drivers/STM32L1xx_HAL_Driver/Inc/stm32l1xx_ll_system.h ****   *         SYSCFG_EXTICR3 EXTI7         LL_SYSCFG_GetEXTISource\n
 669:Drivers/STM32L1xx_HAL_Driver/Inc/stm32l1xx_ll_system.h ****   *         SYSCFG_EXTICR3 EXTI8         LL_SYSCFG_GetEXTISource\n
 670:Drivers/STM32L1xx_HAL_Driver/Inc/stm32l1xx_ll_system.h ****   *         SYSCFG_EXTICR3 EXTI9         LL_SYSCFG_GetEXTISource\n
 671:Drivers/STM32L1xx_HAL_Driver/Inc/stm32l1xx_ll_system.h ****   *         SYSCFG_EXTICR3 EXTI10        LL_SYSCFG_GetEXTISource\n
 672:Drivers/STM32L1xx_HAL_Driver/Inc/stm32l1xx_ll_system.h ****   *         SYSCFG_EXTICR3 EXTI11        LL_SYSCFG_GetEXTISource\n
 673:Drivers/STM32L1xx_HAL_Driver/Inc/stm32l1xx_ll_system.h ****   *         SYSCFG_EXTICR3 EXTI12        LL_SYSCFG_GetEXTISource\n
 674:Drivers/STM32L1xx_HAL_Driver/Inc/stm32l1xx_ll_system.h ****   *         SYSCFG_EXTICR3 EXTI13        LL_SYSCFG_GetEXTISource\n
 675:Drivers/STM32L1xx_HAL_Driver/Inc/stm32l1xx_ll_system.h ****   *         SYSCFG_EXTICR3 EXTI14        LL_SYSCFG_GetEXTISource\n
 676:Drivers/STM32L1xx_HAL_Driver/Inc/stm32l1xx_ll_system.h ****   *         SYSCFG_EXTICR3 EXTI15        LL_SYSCFG_GetEXTISource\n
 677:Drivers/STM32L1xx_HAL_Driver/Inc/stm32l1xx_ll_system.h ****   *         SYSCFG_EXTICR4 EXTI0         LL_SYSCFG_GetEXTISource\n
 678:Drivers/STM32L1xx_HAL_Driver/Inc/stm32l1xx_ll_system.h ****   *         SYSCFG_EXTICR4 EXTI1         LL_SYSCFG_GetEXTISource\n
 679:Drivers/STM32L1xx_HAL_Driver/Inc/stm32l1xx_ll_system.h ****   *         SYSCFG_EXTICR4 EXTI2         LL_SYSCFG_GetEXTISource\n
 680:Drivers/STM32L1xx_HAL_Driver/Inc/stm32l1xx_ll_system.h ****   *         SYSCFG_EXTICR4 EXTI3         LL_SYSCFG_GetEXTISource\n
 681:Drivers/STM32L1xx_HAL_Driver/Inc/stm32l1xx_ll_system.h ****   *         SYSCFG_EXTICR4 EXTI4         LL_SYSCFG_GetEXTISource\n
 682:Drivers/STM32L1xx_HAL_Driver/Inc/stm32l1xx_ll_system.h ****   *         SYSCFG_EXTICR4 EXTI5         LL_SYSCFG_GetEXTISource\n
 683:Drivers/STM32L1xx_HAL_Driver/Inc/stm32l1xx_ll_system.h ****   *         SYSCFG_EXTICR4 EXTI6         LL_SYSCFG_GetEXTISource\n
 684:Drivers/STM32L1xx_HAL_Driver/Inc/stm32l1xx_ll_system.h ****   *         SYSCFG_EXTICR4 EXTI7         LL_SYSCFG_GetEXTISource\n
 685:Drivers/STM32L1xx_HAL_Driver/Inc/stm32l1xx_ll_system.h ****   *         SYSCFG_EXTICR4 EXTI8         LL_SYSCFG_GetEXTISource\n
 686:Drivers/STM32L1xx_HAL_Driver/Inc/stm32l1xx_ll_system.h ****   *         SYSCFG_EXTICR4 EXTI9         LL_SYSCFG_GetEXTISource\n
 687:Drivers/STM32L1xx_HAL_Driver/Inc/stm32l1xx_ll_system.h ****   *         SYSCFG_EXTICR4 EXTI10        LL_SYSCFG_GetEXTISource\n
 688:Drivers/STM32L1xx_HAL_Driver/Inc/stm32l1xx_ll_system.h ****   *         SYSCFG_EXTICR4 EXTI11        LL_SYSCFG_GetEXTISource\n
 689:Drivers/STM32L1xx_HAL_Driver/Inc/stm32l1xx_ll_system.h ****   *         SYSCFG_EXTICR4 EXTI12        LL_SYSCFG_GetEXTISource\n
 690:Drivers/STM32L1xx_HAL_Driver/Inc/stm32l1xx_ll_system.h ****   *         SYSCFG_EXTICR4 EXTI13        LL_SYSCFG_GetEXTISource\n
 691:Drivers/STM32L1xx_HAL_Driver/Inc/stm32l1xx_ll_system.h ****   *         SYSCFG_EXTICR4 EXTI14        LL_SYSCFG_GetEXTISource\n
 692:Drivers/STM32L1xx_HAL_Driver/Inc/stm32l1xx_ll_system.h ****   *         SYSCFG_EXTICR4 EXTI15        LL_SYSCFG_GetEXTISource
 693:Drivers/STM32L1xx_HAL_Driver/Inc/stm32l1xx_ll_system.h ****   * @param  Line This parameter can be one of the following values:
 694:Drivers/STM32L1xx_HAL_Driver/Inc/stm32l1xx_ll_system.h ****   *         @arg @ref LL_SYSCFG_EXTI_LINE0
 695:Drivers/STM32L1xx_HAL_Driver/Inc/stm32l1xx_ll_system.h ****   *         @arg @ref LL_SYSCFG_EXTI_LINE1
 696:Drivers/STM32L1xx_HAL_Driver/Inc/stm32l1xx_ll_system.h ****   *         @arg @ref LL_SYSCFG_EXTI_LINE2
 697:Drivers/STM32L1xx_HAL_Driver/Inc/stm32l1xx_ll_system.h ****   *         @arg @ref LL_SYSCFG_EXTI_LINE3
 698:Drivers/STM32L1xx_HAL_Driver/Inc/stm32l1xx_ll_system.h ****   *         @arg @ref LL_SYSCFG_EXTI_LINE4
 699:Drivers/STM32L1xx_HAL_Driver/Inc/stm32l1xx_ll_system.h ****   *         @arg @ref LL_SYSCFG_EXTI_LINE5
 700:Drivers/STM32L1xx_HAL_Driver/Inc/stm32l1xx_ll_system.h ****   *         @arg @ref LL_SYSCFG_EXTI_LINE6
 701:Drivers/STM32L1xx_HAL_Driver/Inc/stm32l1xx_ll_system.h ****   *         @arg @ref LL_SYSCFG_EXTI_LINE7
 702:Drivers/STM32L1xx_HAL_Driver/Inc/stm32l1xx_ll_system.h ****   *         @arg @ref LL_SYSCFG_EXTI_LINE8
 703:Drivers/STM32L1xx_HAL_Driver/Inc/stm32l1xx_ll_system.h ****   *         @arg @ref LL_SYSCFG_EXTI_LINE9
 704:Drivers/STM32L1xx_HAL_Driver/Inc/stm32l1xx_ll_system.h ****   *         @arg @ref LL_SYSCFG_EXTI_LINE10
 705:Drivers/STM32L1xx_HAL_Driver/Inc/stm32l1xx_ll_system.h ****   *         @arg @ref LL_SYSCFG_EXTI_LINE11
 706:Drivers/STM32L1xx_HAL_Driver/Inc/stm32l1xx_ll_system.h ****   *         @arg @ref LL_SYSCFG_EXTI_LINE12
 707:Drivers/STM32L1xx_HAL_Driver/Inc/stm32l1xx_ll_system.h ****   *         @arg @ref LL_SYSCFG_EXTI_LINE13
 708:Drivers/STM32L1xx_HAL_Driver/Inc/stm32l1xx_ll_system.h ****   *         @arg @ref LL_SYSCFG_EXTI_LINE14
 709:Drivers/STM32L1xx_HAL_Driver/Inc/stm32l1xx_ll_system.h ****   *         @arg @ref LL_SYSCFG_EXTI_LINE15
 710:Drivers/STM32L1xx_HAL_Driver/Inc/stm32l1xx_ll_system.h ****   * @retval Returned value can be one of the following values:
 711:Drivers/STM32L1xx_HAL_Driver/Inc/stm32l1xx_ll_system.h ****   *         @arg @ref LL_SYSCFG_EXTI_PORTA
 712:Drivers/STM32L1xx_HAL_Driver/Inc/stm32l1xx_ll_system.h ****   *         @arg @ref LL_SYSCFG_EXTI_PORTB
 713:Drivers/STM32L1xx_HAL_Driver/Inc/stm32l1xx_ll_system.h ****   *         @arg @ref LL_SYSCFG_EXTI_PORTC
 714:Drivers/STM32L1xx_HAL_Driver/Inc/stm32l1xx_ll_system.h ****   *         @arg @ref LL_SYSCFG_EXTI_PORTD
 715:Drivers/STM32L1xx_HAL_Driver/Inc/stm32l1xx_ll_system.h ****   *         @arg @ref LL_SYSCFG_EXTI_PORTE (*)
 716:Drivers/STM32L1xx_HAL_Driver/Inc/stm32l1xx_ll_system.h ****   *         @arg @ref LL_SYSCFG_EXTI_PORTF (*)
 717:Drivers/STM32L1xx_HAL_Driver/Inc/stm32l1xx_ll_system.h ****   *         @arg @ref LL_SYSCFG_EXTI_PORTG (*)
 718:Drivers/STM32L1xx_HAL_Driver/Inc/stm32l1xx_ll_system.h ****   *         @arg @ref LL_SYSCFG_EXTI_PORTH
 719:Drivers/STM32L1xx_HAL_Driver/Inc/stm32l1xx_ll_system.h ****   *
 720:Drivers/STM32L1xx_HAL_Driver/Inc/stm32l1xx_ll_system.h ****   *         (*) value not defined in all devices.
 721:Drivers/STM32L1xx_HAL_Driver/Inc/stm32l1xx_ll_system.h ****   */
 722:Drivers/STM32L1xx_HAL_Driver/Inc/stm32l1xx_ll_system.h **** __STATIC_INLINE uint32_t LL_SYSCFG_GetEXTISource(uint32_t Line)
 723:Drivers/STM32L1xx_HAL_Driver/Inc/stm32l1xx_ll_system.h **** {
ARM GAS  /tmp/ccCpqwiQ.s 			page 22


 724:Drivers/STM32L1xx_HAL_Driver/Inc/stm32l1xx_ll_system.h ****   return (uint32_t)(READ_BIT(SYSCFG->EXTICR[Line & 0x3U], (Line >> 16)) >> POSITION_VAL(Line >> 16)
 725:Drivers/STM32L1xx_HAL_Driver/Inc/stm32l1xx_ll_system.h **** }
 726:Drivers/STM32L1xx_HAL_Driver/Inc/stm32l1xx_ll_system.h **** 
 727:Drivers/STM32L1xx_HAL_Driver/Inc/stm32l1xx_ll_system.h **** /**
 728:Drivers/STM32L1xx_HAL_Driver/Inc/stm32l1xx_ll_system.h ****   * @}
 729:Drivers/STM32L1xx_HAL_Driver/Inc/stm32l1xx_ll_system.h ****   */
 730:Drivers/STM32L1xx_HAL_Driver/Inc/stm32l1xx_ll_system.h **** 
 731:Drivers/STM32L1xx_HAL_Driver/Inc/stm32l1xx_ll_system.h **** /** @defgroup SYSTEM_LL_EF_DBGMCU DBGMCU
 732:Drivers/STM32L1xx_HAL_Driver/Inc/stm32l1xx_ll_system.h ****   * @{
 733:Drivers/STM32L1xx_HAL_Driver/Inc/stm32l1xx_ll_system.h ****   */
 734:Drivers/STM32L1xx_HAL_Driver/Inc/stm32l1xx_ll_system.h **** 
 735:Drivers/STM32L1xx_HAL_Driver/Inc/stm32l1xx_ll_system.h **** /**
 736:Drivers/STM32L1xx_HAL_Driver/Inc/stm32l1xx_ll_system.h ****   * @brief  Return the device identifier
 737:Drivers/STM32L1xx_HAL_Driver/Inc/stm32l1xx_ll_system.h ****   * @note 0x416: Cat.1 device\n
 738:Drivers/STM32L1xx_HAL_Driver/Inc/stm32l1xx_ll_system.h ****   *       0x429: Cat.2 device\n
 739:Drivers/STM32L1xx_HAL_Driver/Inc/stm32l1xx_ll_system.h ****   *       0x427: Cat.3 device\n
 740:Drivers/STM32L1xx_HAL_Driver/Inc/stm32l1xx_ll_system.h ****   *       0x436: Cat.4 device or Cat.3 device(1)\n
 741:Drivers/STM32L1xx_HAL_Driver/Inc/stm32l1xx_ll_system.h ****   *       0x437: Cat.5 device\n
 742:Drivers/STM32L1xx_HAL_Driver/Inc/stm32l1xx_ll_system.h ****   *
 743:Drivers/STM32L1xx_HAL_Driver/Inc/stm32l1xx_ll_system.h ****   *       (1) Cat.3 devices: STM32L15xxC or STM3216xxC devices with
 744:Drivers/STM32L1xx_HAL_Driver/Inc/stm32l1xx_ll_system.h ****   *       RPN ending with letter 'A', in WLCSP64 packages or with more then 100 pin.
 745:Drivers/STM32L1xx_HAL_Driver/Inc/stm32l1xx_ll_system.h ****   * @rmtoll DBGMCU_IDCODE DEV_ID        LL_DBGMCU_GetDeviceID
 746:Drivers/STM32L1xx_HAL_Driver/Inc/stm32l1xx_ll_system.h ****   * @retval Values between Min_Data=0x00 and Max_Data=0xFFF
 747:Drivers/STM32L1xx_HAL_Driver/Inc/stm32l1xx_ll_system.h ****   */
 748:Drivers/STM32L1xx_HAL_Driver/Inc/stm32l1xx_ll_system.h **** __STATIC_INLINE uint32_t LL_DBGMCU_GetDeviceID(void)
 749:Drivers/STM32L1xx_HAL_Driver/Inc/stm32l1xx_ll_system.h **** {
 750:Drivers/STM32L1xx_HAL_Driver/Inc/stm32l1xx_ll_system.h ****   return (uint32_t)(READ_BIT(DBGMCU->IDCODE, DBGMCU_IDCODE_DEV_ID));
 751:Drivers/STM32L1xx_HAL_Driver/Inc/stm32l1xx_ll_system.h **** }
 752:Drivers/STM32L1xx_HAL_Driver/Inc/stm32l1xx_ll_system.h **** 
 753:Drivers/STM32L1xx_HAL_Driver/Inc/stm32l1xx_ll_system.h **** /**
 754:Drivers/STM32L1xx_HAL_Driver/Inc/stm32l1xx_ll_system.h ****   * @brief  Return the device revision identifier
 755:Drivers/STM32L1xx_HAL_Driver/Inc/stm32l1xx_ll_system.h ****   * @note This field indicates the revision of the device.
 756:Drivers/STM32L1xx_HAL_Driver/Inc/stm32l1xx_ll_system.h ****           For example, it is read as Cat.1 RevA -> 0x1000, Cat.2 Rev Z -> 0x1018...
 757:Drivers/STM32L1xx_HAL_Driver/Inc/stm32l1xx_ll_system.h ****   * @rmtoll DBGMCU_IDCODE REV_ID        LL_DBGMCU_GetRevisionID
 758:Drivers/STM32L1xx_HAL_Driver/Inc/stm32l1xx_ll_system.h ****   * @retval Values between Min_Data=0x00 and Max_Data=0xFFFF
 759:Drivers/STM32L1xx_HAL_Driver/Inc/stm32l1xx_ll_system.h ****   */
 760:Drivers/STM32L1xx_HAL_Driver/Inc/stm32l1xx_ll_system.h **** __STATIC_INLINE uint32_t LL_DBGMCU_GetRevisionID(void)
 761:Drivers/STM32L1xx_HAL_Driver/Inc/stm32l1xx_ll_system.h **** {
 762:Drivers/STM32L1xx_HAL_Driver/Inc/stm32l1xx_ll_system.h ****   return (uint32_t)(READ_BIT(DBGMCU->IDCODE, DBGMCU_IDCODE_REV_ID) >> DBGMCU_IDCODE_REV_ID_Pos);
 763:Drivers/STM32L1xx_HAL_Driver/Inc/stm32l1xx_ll_system.h **** }
 764:Drivers/STM32L1xx_HAL_Driver/Inc/stm32l1xx_ll_system.h **** 
 765:Drivers/STM32L1xx_HAL_Driver/Inc/stm32l1xx_ll_system.h **** /**
 766:Drivers/STM32L1xx_HAL_Driver/Inc/stm32l1xx_ll_system.h ****   * @brief  Enable the Debug Module during SLEEP mode
 767:Drivers/STM32L1xx_HAL_Driver/Inc/stm32l1xx_ll_system.h ****   * @rmtoll DBGMCU_CR    DBG_SLEEP     LL_DBGMCU_EnableDBGSleepMode
 768:Drivers/STM32L1xx_HAL_Driver/Inc/stm32l1xx_ll_system.h ****   * @retval None
 769:Drivers/STM32L1xx_HAL_Driver/Inc/stm32l1xx_ll_system.h ****   */
 770:Drivers/STM32L1xx_HAL_Driver/Inc/stm32l1xx_ll_system.h **** __STATIC_INLINE void LL_DBGMCU_EnableDBGSleepMode(void)
 771:Drivers/STM32L1xx_HAL_Driver/Inc/stm32l1xx_ll_system.h **** {
 772:Drivers/STM32L1xx_HAL_Driver/Inc/stm32l1xx_ll_system.h ****   SET_BIT(DBGMCU->CR, DBGMCU_CR_DBG_SLEEP);
 773:Drivers/STM32L1xx_HAL_Driver/Inc/stm32l1xx_ll_system.h **** }
 774:Drivers/STM32L1xx_HAL_Driver/Inc/stm32l1xx_ll_system.h **** 
 775:Drivers/STM32L1xx_HAL_Driver/Inc/stm32l1xx_ll_system.h **** /**
 776:Drivers/STM32L1xx_HAL_Driver/Inc/stm32l1xx_ll_system.h ****   * @brief  Disable the Debug Module during SLEEP mode
 777:Drivers/STM32L1xx_HAL_Driver/Inc/stm32l1xx_ll_system.h ****   * @rmtoll DBGMCU_CR    DBG_SLEEP     LL_DBGMCU_DisableDBGSleepMode
 778:Drivers/STM32L1xx_HAL_Driver/Inc/stm32l1xx_ll_system.h ****   * @retval None
 779:Drivers/STM32L1xx_HAL_Driver/Inc/stm32l1xx_ll_system.h ****   */
 780:Drivers/STM32L1xx_HAL_Driver/Inc/stm32l1xx_ll_system.h **** __STATIC_INLINE void LL_DBGMCU_DisableDBGSleepMode(void)
ARM GAS  /tmp/ccCpqwiQ.s 			page 23


 781:Drivers/STM32L1xx_HAL_Driver/Inc/stm32l1xx_ll_system.h **** {
 782:Drivers/STM32L1xx_HAL_Driver/Inc/stm32l1xx_ll_system.h ****   CLEAR_BIT(DBGMCU->CR, DBGMCU_CR_DBG_SLEEP);
 783:Drivers/STM32L1xx_HAL_Driver/Inc/stm32l1xx_ll_system.h **** }
 784:Drivers/STM32L1xx_HAL_Driver/Inc/stm32l1xx_ll_system.h **** 
 785:Drivers/STM32L1xx_HAL_Driver/Inc/stm32l1xx_ll_system.h **** /**
 786:Drivers/STM32L1xx_HAL_Driver/Inc/stm32l1xx_ll_system.h ****   * @brief  Enable the Debug Module during STOP mode
 787:Drivers/STM32L1xx_HAL_Driver/Inc/stm32l1xx_ll_system.h ****   * @rmtoll DBGMCU_CR    DBG_STOP      LL_DBGMCU_EnableDBGStopMode
 788:Drivers/STM32L1xx_HAL_Driver/Inc/stm32l1xx_ll_system.h ****   * @retval None
 789:Drivers/STM32L1xx_HAL_Driver/Inc/stm32l1xx_ll_system.h ****   */
 790:Drivers/STM32L1xx_HAL_Driver/Inc/stm32l1xx_ll_system.h **** __STATIC_INLINE void LL_DBGMCU_EnableDBGStopMode(void)
 791:Drivers/STM32L1xx_HAL_Driver/Inc/stm32l1xx_ll_system.h **** {
 792:Drivers/STM32L1xx_HAL_Driver/Inc/stm32l1xx_ll_system.h ****   SET_BIT(DBGMCU->CR, DBGMCU_CR_DBG_STOP);
 793:Drivers/STM32L1xx_HAL_Driver/Inc/stm32l1xx_ll_system.h **** }
 794:Drivers/STM32L1xx_HAL_Driver/Inc/stm32l1xx_ll_system.h **** 
 795:Drivers/STM32L1xx_HAL_Driver/Inc/stm32l1xx_ll_system.h **** /**
 796:Drivers/STM32L1xx_HAL_Driver/Inc/stm32l1xx_ll_system.h ****   * @brief  Disable the Debug Module during STOP mode
 797:Drivers/STM32L1xx_HAL_Driver/Inc/stm32l1xx_ll_system.h ****   * @rmtoll DBGMCU_CR    DBG_STOP      LL_DBGMCU_DisableDBGStopMode
 798:Drivers/STM32L1xx_HAL_Driver/Inc/stm32l1xx_ll_system.h ****   * @retval None
 799:Drivers/STM32L1xx_HAL_Driver/Inc/stm32l1xx_ll_system.h ****   */
 800:Drivers/STM32L1xx_HAL_Driver/Inc/stm32l1xx_ll_system.h **** __STATIC_INLINE void LL_DBGMCU_DisableDBGStopMode(void)
 801:Drivers/STM32L1xx_HAL_Driver/Inc/stm32l1xx_ll_system.h **** {
 802:Drivers/STM32L1xx_HAL_Driver/Inc/stm32l1xx_ll_system.h ****   CLEAR_BIT(DBGMCU->CR, DBGMCU_CR_DBG_STOP);
 803:Drivers/STM32L1xx_HAL_Driver/Inc/stm32l1xx_ll_system.h **** }
 804:Drivers/STM32L1xx_HAL_Driver/Inc/stm32l1xx_ll_system.h **** 
 805:Drivers/STM32L1xx_HAL_Driver/Inc/stm32l1xx_ll_system.h **** /**
 806:Drivers/STM32L1xx_HAL_Driver/Inc/stm32l1xx_ll_system.h ****   * @brief  Enable the Debug Module during STANDBY mode
 807:Drivers/STM32L1xx_HAL_Driver/Inc/stm32l1xx_ll_system.h ****   * @rmtoll DBGMCU_CR    DBG_STANDBY   LL_DBGMCU_EnableDBGStandbyMode
 808:Drivers/STM32L1xx_HAL_Driver/Inc/stm32l1xx_ll_system.h ****   * @retval None
 809:Drivers/STM32L1xx_HAL_Driver/Inc/stm32l1xx_ll_system.h ****   */
 810:Drivers/STM32L1xx_HAL_Driver/Inc/stm32l1xx_ll_system.h **** __STATIC_INLINE void LL_DBGMCU_EnableDBGStandbyMode(void)
 811:Drivers/STM32L1xx_HAL_Driver/Inc/stm32l1xx_ll_system.h **** {
 812:Drivers/STM32L1xx_HAL_Driver/Inc/stm32l1xx_ll_system.h ****   SET_BIT(DBGMCU->CR, DBGMCU_CR_DBG_STANDBY);
 813:Drivers/STM32L1xx_HAL_Driver/Inc/stm32l1xx_ll_system.h **** }
 814:Drivers/STM32L1xx_HAL_Driver/Inc/stm32l1xx_ll_system.h **** 
 815:Drivers/STM32L1xx_HAL_Driver/Inc/stm32l1xx_ll_system.h **** /**
 816:Drivers/STM32L1xx_HAL_Driver/Inc/stm32l1xx_ll_system.h ****   * @brief  Disable the Debug Module during STANDBY mode
 817:Drivers/STM32L1xx_HAL_Driver/Inc/stm32l1xx_ll_system.h ****   * @rmtoll DBGMCU_CR    DBG_STANDBY   LL_DBGMCU_DisableDBGStandbyMode
 818:Drivers/STM32L1xx_HAL_Driver/Inc/stm32l1xx_ll_system.h ****   * @retval None
 819:Drivers/STM32L1xx_HAL_Driver/Inc/stm32l1xx_ll_system.h ****   */
 820:Drivers/STM32L1xx_HAL_Driver/Inc/stm32l1xx_ll_system.h **** __STATIC_INLINE void LL_DBGMCU_DisableDBGStandbyMode(void)
 821:Drivers/STM32L1xx_HAL_Driver/Inc/stm32l1xx_ll_system.h **** {
 822:Drivers/STM32L1xx_HAL_Driver/Inc/stm32l1xx_ll_system.h ****   CLEAR_BIT(DBGMCU->CR, DBGMCU_CR_DBG_STANDBY);
 823:Drivers/STM32L1xx_HAL_Driver/Inc/stm32l1xx_ll_system.h **** }
 824:Drivers/STM32L1xx_HAL_Driver/Inc/stm32l1xx_ll_system.h **** 
 825:Drivers/STM32L1xx_HAL_Driver/Inc/stm32l1xx_ll_system.h **** /**
 826:Drivers/STM32L1xx_HAL_Driver/Inc/stm32l1xx_ll_system.h ****   * @brief  Set Trace pin assignment control
 827:Drivers/STM32L1xx_HAL_Driver/Inc/stm32l1xx_ll_system.h ****   * @rmtoll DBGMCU_CR    TRACE_IOEN    LL_DBGMCU_SetTracePinAssignment\n
 828:Drivers/STM32L1xx_HAL_Driver/Inc/stm32l1xx_ll_system.h ****   *         DBGMCU_CR    TRACE_MODE    LL_DBGMCU_SetTracePinAssignment
 829:Drivers/STM32L1xx_HAL_Driver/Inc/stm32l1xx_ll_system.h ****   * @param  PinAssignment This parameter can be one of the following values:
 830:Drivers/STM32L1xx_HAL_Driver/Inc/stm32l1xx_ll_system.h ****   *         @arg @ref LL_DBGMCU_TRACE_NONE
 831:Drivers/STM32L1xx_HAL_Driver/Inc/stm32l1xx_ll_system.h ****   *         @arg @ref LL_DBGMCU_TRACE_ASYNCH
 832:Drivers/STM32L1xx_HAL_Driver/Inc/stm32l1xx_ll_system.h ****   *         @arg @ref LL_DBGMCU_TRACE_SYNCH_SIZE1
 833:Drivers/STM32L1xx_HAL_Driver/Inc/stm32l1xx_ll_system.h ****   *         @arg @ref LL_DBGMCU_TRACE_SYNCH_SIZE2
 834:Drivers/STM32L1xx_HAL_Driver/Inc/stm32l1xx_ll_system.h ****   *         @arg @ref LL_DBGMCU_TRACE_SYNCH_SIZE4
 835:Drivers/STM32L1xx_HAL_Driver/Inc/stm32l1xx_ll_system.h ****   * @retval None
 836:Drivers/STM32L1xx_HAL_Driver/Inc/stm32l1xx_ll_system.h ****   */
 837:Drivers/STM32L1xx_HAL_Driver/Inc/stm32l1xx_ll_system.h **** __STATIC_INLINE void LL_DBGMCU_SetTracePinAssignment(uint32_t PinAssignment)
ARM GAS  /tmp/ccCpqwiQ.s 			page 24


 838:Drivers/STM32L1xx_HAL_Driver/Inc/stm32l1xx_ll_system.h **** {
 839:Drivers/STM32L1xx_HAL_Driver/Inc/stm32l1xx_ll_system.h ****   MODIFY_REG(DBGMCU->CR, DBGMCU_CR_TRACE_IOEN | DBGMCU_CR_TRACE_MODE, PinAssignment);
 840:Drivers/STM32L1xx_HAL_Driver/Inc/stm32l1xx_ll_system.h **** }
 841:Drivers/STM32L1xx_HAL_Driver/Inc/stm32l1xx_ll_system.h **** 
 842:Drivers/STM32L1xx_HAL_Driver/Inc/stm32l1xx_ll_system.h **** /**
 843:Drivers/STM32L1xx_HAL_Driver/Inc/stm32l1xx_ll_system.h ****   * @brief  Get Trace pin assignment control
 844:Drivers/STM32L1xx_HAL_Driver/Inc/stm32l1xx_ll_system.h ****   * @rmtoll DBGMCU_CR    TRACE_IOEN    LL_DBGMCU_GetTracePinAssignment\n
 845:Drivers/STM32L1xx_HAL_Driver/Inc/stm32l1xx_ll_system.h ****   *         DBGMCU_CR    TRACE_MODE    LL_DBGMCU_GetTracePinAssignment
 846:Drivers/STM32L1xx_HAL_Driver/Inc/stm32l1xx_ll_system.h ****   * @retval Returned value can be one of the following values:
 847:Drivers/STM32L1xx_HAL_Driver/Inc/stm32l1xx_ll_system.h ****   *         @arg @ref LL_DBGMCU_TRACE_NONE
 848:Drivers/STM32L1xx_HAL_Driver/Inc/stm32l1xx_ll_system.h ****   *         @arg @ref LL_DBGMCU_TRACE_ASYNCH
 849:Drivers/STM32L1xx_HAL_Driver/Inc/stm32l1xx_ll_system.h ****   *         @arg @ref LL_DBGMCU_TRACE_SYNCH_SIZE1
 850:Drivers/STM32L1xx_HAL_Driver/Inc/stm32l1xx_ll_system.h ****   *         @arg @ref LL_DBGMCU_TRACE_SYNCH_SIZE2
 851:Drivers/STM32L1xx_HAL_Driver/Inc/stm32l1xx_ll_system.h ****   *         @arg @ref LL_DBGMCU_TRACE_SYNCH_SIZE4
 852:Drivers/STM32L1xx_HAL_Driver/Inc/stm32l1xx_ll_system.h ****   */
 853:Drivers/STM32L1xx_HAL_Driver/Inc/stm32l1xx_ll_system.h **** __STATIC_INLINE uint32_t LL_DBGMCU_GetTracePinAssignment(void)
 854:Drivers/STM32L1xx_HAL_Driver/Inc/stm32l1xx_ll_system.h **** {
 855:Drivers/STM32L1xx_HAL_Driver/Inc/stm32l1xx_ll_system.h ****   return (uint32_t)(READ_BIT(DBGMCU->CR, DBGMCU_CR_TRACE_IOEN | DBGMCU_CR_TRACE_MODE));
 856:Drivers/STM32L1xx_HAL_Driver/Inc/stm32l1xx_ll_system.h **** }
 857:Drivers/STM32L1xx_HAL_Driver/Inc/stm32l1xx_ll_system.h **** 
 858:Drivers/STM32L1xx_HAL_Driver/Inc/stm32l1xx_ll_system.h **** /**
 859:Drivers/STM32L1xx_HAL_Driver/Inc/stm32l1xx_ll_system.h ****   * @brief  Freeze APB1 peripherals (group1 peripherals)
 860:Drivers/STM32L1xx_HAL_Driver/Inc/stm32l1xx_ll_system.h ****   * @rmtoll APB1_FZ      DBG_TIM2_STOP           LL_DBGMCU_APB1_GRP1_FreezePeriph\n
 861:Drivers/STM32L1xx_HAL_Driver/Inc/stm32l1xx_ll_system.h ****   *         APB1_FZ      DBG_TIM3_STOP           LL_DBGMCU_APB1_GRP1_FreezePeriph\n
 862:Drivers/STM32L1xx_HAL_Driver/Inc/stm32l1xx_ll_system.h ****   *         APB1_FZ      DBG_TIM4_STOP           LL_DBGMCU_APB1_GRP1_FreezePeriph\n
 863:Drivers/STM32L1xx_HAL_Driver/Inc/stm32l1xx_ll_system.h ****   *         APB1_FZ      DBG_TIM5_STOP           LL_DBGMCU_APB1_GRP1_FreezePeriph\n
 864:Drivers/STM32L1xx_HAL_Driver/Inc/stm32l1xx_ll_system.h ****   *         APB1_FZ      DBG_TIM6_STOP           LL_DBGMCU_APB1_GRP1_FreezePeriph\n
 865:Drivers/STM32L1xx_HAL_Driver/Inc/stm32l1xx_ll_system.h ****   *         APB1_FZ      DBG_TIM7_STOP           LL_DBGMCU_APB1_GRP1_FreezePeriph\n
 866:Drivers/STM32L1xx_HAL_Driver/Inc/stm32l1xx_ll_system.h ****   *         APB1_FZ      DBG_RTC_STOP            LL_DBGMCU_APB1_GRP1_FreezePeriph\n
 867:Drivers/STM32L1xx_HAL_Driver/Inc/stm32l1xx_ll_system.h ****   *         APB1_FZ      DBG_WWDG_STOP           LL_DBGMCU_APB1_GRP1_FreezePeriph\n
 868:Drivers/STM32L1xx_HAL_Driver/Inc/stm32l1xx_ll_system.h ****   *         APB1_FZ      DBG_IWDG_STOP           LL_DBGMCU_APB1_GRP1_FreezePeriph\n
 869:Drivers/STM32L1xx_HAL_Driver/Inc/stm32l1xx_ll_system.h ****   *         APB1_FZ      DBG_I2C1_SMBUS_TIMEOUT  LL_DBGMCU_APB1_GRP1_FreezePeriph\n
 870:Drivers/STM32L1xx_HAL_Driver/Inc/stm32l1xx_ll_system.h ****   *         APB1_FZ      DBG_I2C2_SMBUS_TIMEOUT  LL_DBGMCU_APB1_GRP1_FreezePeriph
 871:Drivers/STM32L1xx_HAL_Driver/Inc/stm32l1xx_ll_system.h ****   * @param  Periphs This parameter can be a combination of the following values:
 872:Drivers/STM32L1xx_HAL_Driver/Inc/stm32l1xx_ll_system.h ****   *         @arg @ref LL_DBGMCU_APB1_GRP1_TIM2_STOP
 873:Drivers/STM32L1xx_HAL_Driver/Inc/stm32l1xx_ll_system.h ****   *         @arg @ref LL_DBGMCU_APB1_GRP1_TIM3_STOP
 874:Drivers/STM32L1xx_HAL_Driver/Inc/stm32l1xx_ll_system.h ****   *         @arg @ref LL_DBGMCU_APB1_GRP1_TIM4_STOP
 875:Drivers/STM32L1xx_HAL_Driver/Inc/stm32l1xx_ll_system.h ****   *         @arg @ref LL_DBGMCU_APB1_GRP1_TIM5_STOP (*)
 876:Drivers/STM32L1xx_HAL_Driver/Inc/stm32l1xx_ll_system.h ****   *         @arg @ref LL_DBGMCU_APB1_GRP1_TIM6_STOP
 877:Drivers/STM32L1xx_HAL_Driver/Inc/stm32l1xx_ll_system.h ****   *         @arg @ref LL_DBGMCU_APB1_GRP1_TIM7_STOP
 878:Drivers/STM32L1xx_HAL_Driver/Inc/stm32l1xx_ll_system.h ****   *         @arg @ref LL_DBGMCU_APB1_GRP1_RTC_STOP (*)
 879:Drivers/STM32L1xx_HAL_Driver/Inc/stm32l1xx_ll_system.h ****   *         @arg @ref LL_DBGMCU_APB1_GRP1_WWDG_STOP
 880:Drivers/STM32L1xx_HAL_Driver/Inc/stm32l1xx_ll_system.h ****   *         @arg @ref LL_DBGMCU_APB1_GRP1_IWDG_STOP
 881:Drivers/STM32L1xx_HAL_Driver/Inc/stm32l1xx_ll_system.h ****   *         @arg @ref LL_DBGMCU_APB1_GRP1_I2C1_STOP
 882:Drivers/STM32L1xx_HAL_Driver/Inc/stm32l1xx_ll_system.h ****   *         @arg @ref LL_DBGMCU_APB1_GRP1_I2C2_STOP
 883:Drivers/STM32L1xx_HAL_Driver/Inc/stm32l1xx_ll_system.h ****   *         (*) value not defined in all devices.
 884:Drivers/STM32L1xx_HAL_Driver/Inc/stm32l1xx_ll_system.h ****   * @retval None
 885:Drivers/STM32L1xx_HAL_Driver/Inc/stm32l1xx_ll_system.h ****   */
 886:Drivers/STM32L1xx_HAL_Driver/Inc/stm32l1xx_ll_system.h **** __STATIC_INLINE void LL_DBGMCU_APB1_GRP1_FreezePeriph(uint32_t Periphs)
 887:Drivers/STM32L1xx_HAL_Driver/Inc/stm32l1xx_ll_system.h **** {
 888:Drivers/STM32L1xx_HAL_Driver/Inc/stm32l1xx_ll_system.h ****   SET_BIT(DBGMCU->APB1FZ, Periphs);
 889:Drivers/STM32L1xx_HAL_Driver/Inc/stm32l1xx_ll_system.h **** }
 890:Drivers/STM32L1xx_HAL_Driver/Inc/stm32l1xx_ll_system.h **** 
 891:Drivers/STM32L1xx_HAL_Driver/Inc/stm32l1xx_ll_system.h **** /**
 892:Drivers/STM32L1xx_HAL_Driver/Inc/stm32l1xx_ll_system.h ****   * @brief  Unfreeze APB1 peripherals (group1 peripherals)
 893:Drivers/STM32L1xx_HAL_Driver/Inc/stm32l1xx_ll_system.h ****   * @rmtoll APB1_FZ      DBG_TIM2_STOP           LL_DBGMCU_APB1_GRP1_UnFreezePeriph\n
 894:Drivers/STM32L1xx_HAL_Driver/Inc/stm32l1xx_ll_system.h ****   *         APB1_FZ      DBG_TIM3_STOP           LL_DBGMCU_APB1_GRP1_UnFreezePeriph\n
ARM GAS  /tmp/ccCpqwiQ.s 			page 25


 895:Drivers/STM32L1xx_HAL_Driver/Inc/stm32l1xx_ll_system.h ****   *         APB1_FZ      DBG_TIM4_STOP           LL_DBGMCU_APB1_GRP1_UnFreezePeriph\n
 896:Drivers/STM32L1xx_HAL_Driver/Inc/stm32l1xx_ll_system.h ****   *         APB1_FZ      DBG_TIM5_STOP           LL_DBGMCU_APB1_GRP1_UnFreezePeriph\n
 897:Drivers/STM32L1xx_HAL_Driver/Inc/stm32l1xx_ll_system.h ****   *         APB1_FZ      DBG_TIM6_STOP           LL_DBGMCU_APB1_GRP1_UnFreezePeriph\n
 898:Drivers/STM32L1xx_HAL_Driver/Inc/stm32l1xx_ll_system.h ****   *         APB1_FZ      DBG_TIM7_STOP           LL_DBGMCU_APB1_GRP1_UnFreezePeriph\n
 899:Drivers/STM32L1xx_HAL_Driver/Inc/stm32l1xx_ll_system.h ****   *         APB1_FZ      DBG_RTC_STOP            LL_DBGMCU_APB1_GRP1_UnFreezePeriph\n
 900:Drivers/STM32L1xx_HAL_Driver/Inc/stm32l1xx_ll_system.h ****   *         APB1_FZ      DBG_WWDG_STOP           LL_DBGMCU_APB1_GRP1_UnFreezePeriph\n
 901:Drivers/STM32L1xx_HAL_Driver/Inc/stm32l1xx_ll_system.h ****   *         APB1_FZ      DBG_IWDG_STOP           LL_DBGMCU_APB1_GRP1_UnFreezePeriph\n
 902:Drivers/STM32L1xx_HAL_Driver/Inc/stm32l1xx_ll_system.h ****   *         APB1_FZ      DBG_I2C1_SMBUS_TIMEOUT  LL_DBGMCU_APB1_GRP1_UnFreezePeriph\n
 903:Drivers/STM32L1xx_HAL_Driver/Inc/stm32l1xx_ll_system.h ****   *         APB1_FZ      DBG_I2C2_SMBUS_TIMEOUT  LL_DBGMCU_APB1_GRP1_UnFreezePeriph
 904:Drivers/STM32L1xx_HAL_Driver/Inc/stm32l1xx_ll_system.h ****   * @param  Periphs This parameter can be a combination of the following values:
 905:Drivers/STM32L1xx_HAL_Driver/Inc/stm32l1xx_ll_system.h ****   *         @arg @ref LL_DBGMCU_APB1_GRP1_TIM2_STOP
 906:Drivers/STM32L1xx_HAL_Driver/Inc/stm32l1xx_ll_system.h ****   *         @arg @ref LL_DBGMCU_APB1_GRP1_TIM3_STOP
 907:Drivers/STM32L1xx_HAL_Driver/Inc/stm32l1xx_ll_system.h ****   *         @arg @ref LL_DBGMCU_APB1_GRP1_TIM4_STOP
 908:Drivers/STM32L1xx_HAL_Driver/Inc/stm32l1xx_ll_system.h ****   *         @arg @ref LL_DBGMCU_APB1_GRP1_TIM5_STOP (*)
 909:Drivers/STM32L1xx_HAL_Driver/Inc/stm32l1xx_ll_system.h ****   *         @arg @ref LL_DBGMCU_APB1_GRP1_TIM6_STOP
 910:Drivers/STM32L1xx_HAL_Driver/Inc/stm32l1xx_ll_system.h ****   *         @arg @ref LL_DBGMCU_APB1_GRP1_TIM7_STOP
 911:Drivers/STM32L1xx_HAL_Driver/Inc/stm32l1xx_ll_system.h ****   *         @arg @ref LL_DBGMCU_APB1_GRP1_RTC_STOP (*)
 912:Drivers/STM32L1xx_HAL_Driver/Inc/stm32l1xx_ll_system.h ****   *         @arg @ref LL_DBGMCU_APB1_GRP1_WWDG_STOP
 913:Drivers/STM32L1xx_HAL_Driver/Inc/stm32l1xx_ll_system.h ****   *         @arg @ref LL_DBGMCU_APB1_GRP1_IWDG_STOP
 914:Drivers/STM32L1xx_HAL_Driver/Inc/stm32l1xx_ll_system.h ****   *         @arg @ref LL_DBGMCU_APB1_GRP1_I2C1_STOP
 915:Drivers/STM32L1xx_HAL_Driver/Inc/stm32l1xx_ll_system.h ****   *         @arg @ref LL_DBGMCU_APB1_GRP1_I2C2_STOP
 916:Drivers/STM32L1xx_HAL_Driver/Inc/stm32l1xx_ll_system.h ****   *         (*) value not defined in all devices.
 917:Drivers/STM32L1xx_HAL_Driver/Inc/stm32l1xx_ll_system.h ****   * @retval None
 918:Drivers/STM32L1xx_HAL_Driver/Inc/stm32l1xx_ll_system.h ****   */
 919:Drivers/STM32L1xx_HAL_Driver/Inc/stm32l1xx_ll_system.h **** __STATIC_INLINE void LL_DBGMCU_APB1_GRP1_UnFreezePeriph(uint32_t Periphs)
 920:Drivers/STM32L1xx_HAL_Driver/Inc/stm32l1xx_ll_system.h **** {
 921:Drivers/STM32L1xx_HAL_Driver/Inc/stm32l1xx_ll_system.h ****   CLEAR_BIT(DBGMCU->APB1FZ, Periphs);
 922:Drivers/STM32L1xx_HAL_Driver/Inc/stm32l1xx_ll_system.h **** }
 923:Drivers/STM32L1xx_HAL_Driver/Inc/stm32l1xx_ll_system.h **** 
 924:Drivers/STM32L1xx_HAL_Driver/Inc/stm32l1xx_ll_system.h **** /**
 925:Drivers/STM32L1xx_HAL_Driver/Inc/stm32l1xx_ll_system.h ****   * @brief  Freeze APB2 peripherals
 926:Drivers/STM32L1xx_HAL_Driver/Inc/stm32l1xx_ll_system.h ****   * @rmtoll APB2_FZ      DBG_TIM9_STOP   LL_DBGMCU_APB2_GRP1_FreezePeriph\n
 927:Drivers/STM32L1xx_HAL_Driver/Inc/stm32l1xx_ll_system.h ****   *         APB2_FZ      DBG_TIM10_STOP  LL_DBGMCU_APB2_GRP1_FreezePeriph\n
 928:Drivers/STM32L1xx_HAL_Driver/Inc/stm32l1xx_ll_system.h ****   *         APB2_FZ      DBG_TIM11_STOP  LL_DBGMCU_APB2_GRP1_FreezePeriph
 929:Drivers/STM32L1xx_HAL_Driver/Inc/stm32l1xx_ll_system.h ****   * @param  Periphs This parameter can be a combination of the following values:
 930:Drivers/STM32L1xx_HAL_Driver/Inc/stm32l1xx_ll_system.h ****   *         @arg @ref LL_DBGMCU_APB2_GRP1_TIM9_STOP
 931:Drivers/STM32L1xx_HAL_Driver/Inc/stm32l1xx_ll_system.h ****   *         @arg @ref LL_DBGMCU_APB2_GRP1_TIM10_STOP
 932:Drivers/STM32L1xx_HAL_Driver/Inc/stm32l1xx_ll_system.h ****   *         @arg @ref LL_DBGMCU_APB2_GRP1_TIM11_STOP
 933:Drivers/STM32L1xx_HAL_Driver/Inc/stm32l1xx_ll_system.h ****   * @retval None
 934:Drivers/STM32L1xx_HAL_Driver/Inc/stm32l1xx_ll_system.h ****   */
 935:Drivers/STM32L1xx_HAL_Driver/Inc/stm32l1xx_ll_system.h **** __STATIC_INLINE void LL_DBGMCU_APB2_GRP1_FreezePeriph(uint32_t Periphs)
 936:Drivers/STM32L1xx_HAL_Driver/Inc/stm32l1xx_ll_system.h **** {
 937:Drivers/STM32L1xx_HAL_Driver/Inc/stm32l1xx_ll_system.h ****   SET_BIT(DBGMCU->APB2FZ, Periphs);
 938:Drivers/STM32L1xx_HAL_Driver/Inc/stm32l1xx_ll_system.h **** }
 939:Drivers/STM32L1xx_HAL_Driver/Inc/stm32l1xx_ll_system.h **** 
 940:Drivers/STM32L1xx_HAL_Driver/Inc/stm32l1xx_ll_system.h **** /**
 941:Drivers/STM32L1xx_HAL_Driver/Inc/stm32l1xx_ll_system.h ****   * @brief  Unfreeze APB2 peripherals
 942:Drivers/STM32L1xx_HAL_Driver/Inc/stm32l1xx_ll_system.h ****   * @rmtoll APB2_FZ      DBG_TIM9_STOP   LL_DBGMCU_APB2_GRP1_UnFreezePeriph\n
 943:Drivers/STM32L1xx_HAL_Driver/Inc/stm32l1xx_ll_system.h ****   *         APB2_FZ      DBG_TIM10_STOP  LL_DBGMCU_APB2_GRP1_UnFreezePeriph\n
 944:Drivers/STM32L1xx_HAL_Driver/Inc/stm32l1xx_ll_system.h ****   *         APB2_FZ      DBG_TIM11_STOP  LL_DBGMCU_APB2_GRP1_UnFreezePeriph
 945:Drivers/STM32L1xx_HAL_Driver/Inc/stm32l1xx_ll_system.h ****   * @param  Periphs This parameter can be a combination of the following values:
 946:Drivers/STM32L1xx_HAL_Driver/Inc/stm32l1xx_ll_system.h ****   *         @arg @ref LL_DBGMCU_APB2_GRP1_TIM9_STOP
 947:Drivers/STM32L1xx_HAL_Driver/Inc/stm32l1xx_ll_system.h ****   *         @arg @ref LL_DBGMCU_APB2_GRP1_TIM10_STOP
 948:Drivers/STM32L1xx_HAL_Driver/Inc/stm32l1xx_ll_system.h ****   *         @arg @ref LL_DBGMCU_APB2_GRP1_TIM11_STOP
 949:Drivers/STM32L1xx_HAL_Driver/Inc/stm32l1xx_ll_system.h ****   * @retval None
 950:Drivers/STM32L1xx_HAL_Driver/Inc/stm32l1xx_ll_system.h ****   */
 951:Drivers/STM32L1xx_HAL_Driver/Inc/stm32l1xx_ll_system.h **** __STATIC_INLINE void LL_DBGMCU_APB2_GRP1_UnFreezePeriph(uint32_t Periphs)
ARM GAS  /tmp/ccCpqwiQ.s 			page 26


 952:Drivers/STM32L1xx_HAL_Driver/Inc/stm32l1xx_ll_system.h **** {
 953:Drivers/STM32L1xx_HAL_Driver/Inc/stm32l1xx_ll_system.h ****   CLEAR_BIT(DBGMCU->APB2FZ, Periphs);
 954:Drivers/STM32L1xx_HAL_Driver/Inc/stm32l1xx_ll_system.h **** }
 955:Drivers/STM32L1xx_HAL_Driver/Inc/stm32l1xx_ll_system.h **** 
 956:Drivers/STM32L1xx_HAL_Driver/Inc/stm32l1xx_ll_system.h **** /**
 957:Drivers/STM32L1xx_HAL_Driver/Inc/stm32l1xx_ll_system.h ****   * @}
 958:Drivers/STM32L1xx_HAL_Driver/Inc/stm32l1xx_ll_system.h ****   */
 959:Drivers/STM32L1xx_HAL_Driver/Inc/stm32l1xx_ll_system.h **** 
 960:Drivers/STM32L1xx_HAL_Driver/Inc/stm32l1xx_ll_system.h **** #if defined(COMP_CSR_VREFOUTEN)
 961:Drivers/STM32L1xx_HAL_Driver/Inc/stm32l1xx_ll_system.h **** /** @defgroup SYSTEM_LL_EF_VREFOUT VREFOUT
 962:Drivers/STM32L1xx_HAL_Driver/Inc/stm32l1xx_ll_system.h ****   * @{
 963:Drivers/STM32L1xx_HAL_Driver/Inc/stm32l1xx_ll_system.h ****   */
 964:Drivers/STM32L1xx_HAL_Driver/Inc/stm32l1xx_ll_system.h **** 
 965:Drivers/STM32L1xx_HAL_Driver/Inc/stm32l1xx_ll_system.h **** /**
 966:Drivers/STM32L1xx_HAL_Driver/Inc/stm32l1xx_ll_system.h ****   * @brief  Enable the output of internal reference voltage (VrefInt) on I/O pin.
 967:Drivers/STM32L1xx_HAL_Driver/Inc/stm32l1xx_ll_system.h ****   * @note   The VrefInt output can be routed to any I/O in group 3:
 968:Drivers/STM32L1xx_HAL_Driver/Inc/stm32l1xx_ll_system.h ****   *          - For Cat.1 and Cat.2 devices: CH8 (PB0) or CH9 (PB1).
 969:Drivers/STM32L1xx_HAL_Driver/Inc/stm32l1xx_ll_system.h ****   *          - For Cat.3 devices: CH8 (PB0), CH9 (PB1) or CH0b (PB2).
 970:Drivers/STM32L1xx_HAL_Driver/Inc/stm32l1xx_ll_system.h ****   *          - For Cat.4 and Cat.5 devices: CH8 (PB0), CH9 (PB1), CH0b (PB2),
 971:Drivers/STM32L1xx_HAL_Driver/Inc/stm32l1xx_ll_system.h ****   *            CH1b (PF11) or CH2b (PF12).
 972:Drivers/STM32L1xx_HAL_Driver/Inc/stm32l1xx_ll_system.h ****   *         Note: Comparator peripheral clock must be preliminarily enabled.
 973:Drivers/STM32L1xx_HAL_Driver/Inc/stm32l1xx_ll_system.h ****   *               Refer to function "LL_APB1_GRP1_EnableClock(LL_APB1_GRP1_PERIPH_COMP)".
 974:Drivers/STM32L1xx_HAL_Driver/Inc/stm32l1xx_ll_system.h ****   *         Note: In addition with this macro, VrefInt output buffer must be
 975:Drivers/STM32L1xx_HAL_Driver/Inc/stm32l1xx_ll_system.h ****   *               connected to the selected I/O pin. Refer to functions
 976:Drivers/STM32L1xx_HAL_Driver/Inc/stm32l1xx_ll_system.h ****   *               "LL_RI_EnableSwitchControlMode()" and "LL_RI_CloseIOSwitchLinkedToADC()".
 977:Drivers/STM32L1xx_HAL_Driver/Inc/stm32l1xx_ll_system.h ****   * @note  VrefInt output enable: Internal reference voltage connected to I/O group 3
 978:Drivers/STM32L1xx_HAL_Driver/Inc/stm32l1xx_ll_system.h ****   *        VrefInt output disable: Internal reference voltage disconnected from I/O group 3
 979:Drivers/STM32L1xx_HAL_Driver/Inc/stm32l1xx_ll_system.h ****   * @rmtoll COMP_CSR     VREFOUTEN     LL_VREFOUT_Enable
 980:Drivers/STM32L1xx_HAL_Driver/Inc/stm32l1xx_ll_system.h ****   * @retval None
 981:Drivers/STM32L1xx_HAL_Driver/Inc/stm32l1xx_ll_system.h ****   */
 982:Drivers/STM32L1xx_HAL_Driver/Inc/stm32l1xx_ll_system.h **** __STATIC_INLINE void LL_VREFOUT_Enable(void)
 983:Drivers/STM32L1xx_HAL_Driver/Inc/stm32l1xx_ll_system.h **** {
 984:Drivers/STM32L1xx_HAL_Driver/Inc/stm32l1xx_ll_system.h ****   SET_BIT(COMP->CSR, COMP_CSR_VREFOUTEN);
 985:Drivers/STM32L1xx_HAL_Driver/Inc/stm32l1xx_ll_system.h **** }
 986:Drivers/STM32L1xx_HAL_Driver/Inc/stm32l1xx_ll_system.h **** 
 987:Drivers/STM32L1xx_HAL_Driver/Inc/stm32l1xx_ll_system.h **** /**
 988:Drivers/STM32L1xx_HAL_Driver/Inc/stm32l1xx_ll_system.h ****   * @brief  Disable the output of internal reference voltage (VrefInt) on I/O pin.
 989:Drivers/STM32L1xx_HAL_Driver/Inc/stm32l1xx_ll_system.h ****   * @rmtoll COMP_CSR     VREFOUTEN     LL_VREFOUT_Disable
 990:Drivers/STM32L1xx_HAL_Driver/Inc/stm32l1xx_ll_system.h ****   * @retval None
 991:Drivers/STM32L1xx_HAL_Driver/Inc/stm32l1xx_ll_system.h ****   */
 992:Drivers/STM32L1xx_HAL_Driver/Inc/stm32l1xx_ll_system.h **** __STATIC_INLINE void LL_VREFOUT_Disable(void)
 993:Drivers/STM32L1xx_HAL_Driver/Inc/stm32l1xx_ll_system.h **** {
 994:Drivers/STM32L1xx_HAL_Driver/Inc/stm32l1xx_ll_system.h ****   CLEAR_BIT(COMP->CSR, COMP_CSR_VREFOUTEN);
 995:Drivers/STM32L1xx_HAL_Driver/Inc/stm32l1xx_ll_system.h **** }
 996:Drivers/STM32L1xx_HAL_Driver/Inc/stm32l1xx_ll_system.h **** 
 997:Drivers/STM32L1xx_HAL_Driver/Inc/stm32l1xx_ll_system.h **** /**
 998:Drivers/STM32L1xx_HAL_Driver/Inc/stm32l1xx_ll_system.h ****   * @brief  Check if output of internal reference voltage (VrefInt) is connected to I/O pin.
 999:Drivers/STM32L1xx_HAL_Driver/Inc/stm32l1xx_ll_system.h ****   * @rmtoll COMP_CSR     VREFOUTEN     LL_VREFOUT_IsEnabled
1000:Drivers/STM32L1xx_HAL_Driver/Inc/stm32l1xx_ll_system.h ****   * @retval State of bit (1 or 0).
1001:Drivers/STM32L1xx_HAL_Driver/Inc/stm32l1xx_ll_system.h ****   */
1002:Drivers/STM32L1xx_HAL_Driver/Inc/stm32l1xx_ll_system.h **** __STATIC_INLINE uint32_t LL_VREFOUT_IsEnabled(void)
1003:Drivers/STM32L1xx_HAL_Driver/Inc/stm32l1xx_ll_system.h **** {
1004:Drivers/STM32L1xx_HAL_Driver/Inc/stm32l1xx_ll_system.h ****   return ((READ_BIT(COMP->CSR, COMP_CSR_VREFOUTEN) == COMP_CSR_VREFOUTEN) ? 1UL : 0UL);
1005:Drivers/STM32L1xx_HAL_Driver/Inc/stm32l1xx_ll_system.h **** }
1006:Drivers/STM32L1xx_HAL_Driver/Inc/stm32l1xx_ll_system.h **** 
1007:Drivers/STM32L1xx_HAL_Driver/Inc/stm32l1xx_ll_system.h **** /**
1008:Drivers/STM32L1xx_HAL_Driver/Inc/stm32l1xx_ll_system.h ****   * @}
ARM GAS  /tmp/ccCpqwiQ.s 			page 27


1009:Drivers/STM32L1xx_HAL_Driver/Inc/stm32l1xx_ll_system.h ****   */
1010:Drivers/STM32L1xx_HAL_Driver/Inc/stm32l1xx_ll_system.h **** #endif /* COMP_CSR_VREFOUTEN */
1011:Drivers/STM32L1xx_HAL_Driver/Inc/stm32l1xx_ll_system.h **** 
1012:Drivers/STM32L1xx_HAL_Driver/Inc/stm32l1xx_ll_system.h **** /** @defgroup SYSTEM_LL_EF_RI RI
1013:Drivers/STM32L1xx_HAL_Driver/Inc/stm32l1xx_ll_system.h ****   * @{
1014:Drivers/STM32L1xx_HAL_Driver/Inc/stm32l1xx_ll_system.h ****   */
1015:Drivers/STM32L1xx_HAL_Driver/Inc/stm32l1xx_ll_system.h **** 
1016:Drivers/STM32L1xx_HAL_Driver/Inc/stm32l1xx_ll_system.h **** /**
1017:Drivers/STM32L1xx_HAL_Driver/Inc/stm32l1xx_ll_system.h ****   * @brief  Configures the routing interface to map Input Capture x of TIMx to a selected I/O pin.
1018:Drivers/STM32L1xx_HAL_Driver/Inc/stm32l1xx_ll_system.h ****   * @rmtoll RI_ICR       IC1OS         LL_RI_SetRemapInputCapture_TIM\n
1019:Drivers/STM32L1xx_HAL_Driver/Inc/stm32l1xx_ll_system.h ****   *         RI_ICR       IC2OS         LL_RI_SetRemapInputCapture_TIM\n
1020:Drivers/STM32L1xx_HAL_Driver/Inc/stm32l1xx_ll_system.h ****   *         RI_ICR       IC3OS         LL_RI_SetRemapInputCapture_TIM\n
1021:Drivers/STM32L1xx_HAL_Driver/Inc/stm32l1xx_ll_system.h ****   *         RI_ICR       IC4OS         LL_RI_SetRemapInputCapture_TIM\n
1022:Drivers/STM32L1xx_HAL_Driver/Inc/stm32l1xx_ll_system.h ****   *         RI_ICR       TIM           LL_RI_SetRemapInputCapture_TIM\n
1023:Drivers/STM32L1xx_HAL_Driver/Inc/stm32l1xx_ll_system.h ****   *         RI_ICR       IC1           LL_RI_SetRemapInputCapture_TIM\n
1024:Drivers/STM32L1xx_HAL_Driver/Inc/stm32l1xx_ll_system.h ****   *         RI_ICR       IC2           LL_RI_SetRemapInputCapture_TIM\n
1025:Drivers/STM32L1xx_HAL_Driver/Inc/stm32l1xx_ll_system.h ****   *         RI_ICR       IC3           LL_RI_SetRemapInputCapture_TIM\n
1026:Drivers/STM32L1xx_HAL_Driver/Inc/stm32l1xx_ll_system.h ****   *         RI_ICR       IC4           LL_RI_SetRemapInputCapture_TIM
1027:Drivers/STM32L1xx_HAL_Driver/Inc/stm32l1xx_ll_system.h ****   * @param  TIM_Select This parameter can be one of the following values:
1028:Drivers/STM32L1xx_HAL_Driver/Inc/stm32l1xx_ll_system.h ****   *         @arg @ref LL_RI_TIM_SELECT_NONE
1029:Drivers/STM32L1xx_HAL_Driver/Inc/stm32l1xx_ll_system.h ****   *         @arg @ref LL_RI_TIM_SELECT_TIM2
1030:Drivers/STM32L1xx_HAL_Driver/Inc/stm32l1xx_ll_system.h ****   *         @arg @ref LL_RI_TIM_SELECT_TIM3
1031:Drivers/STM32L1xx_HAL_Driver/Inc/stm32l1xx_ll_system.h ****   *         @arg @ref LL_RI_TIM_SELECT_TIM4
1032:Drivers/STM32L1xx_HAL_Driver/Inc/stm32l1xx_ll_system.h ****   * @param  InputCaptureChannel This parameter can be one of the following values:
1033:Drivers/STM32L1xx_HAL_Driver/Inc/stm32l1xx_ll_system.h ****   *         @arg @ref LL_RI_INPUTCAPTURE_1
1034:Drivers/STM32L1xx_HAL_Driver/Inc/stm32l1xx_ll_system.h ****   *         @arg @ref LL_RI_INPUTCAPTURE_2
1035:Drivers/STM32L1xx_HAL_Driver/Inc/stm32l1xx_ll_system.h ****   *         @arg @ref LL_RI_INPUTCAPTURE_3
1036:Drivers/STM32L1xx_HAL_Driver/Inc/stm32l1xx_ll_system.h ****   *         @arg @ref LL_RI_INPUTCAPTURE_4
1037:Drivers/STM32L1xx_HAL_Driver/Inc/stm32l1xx_ll_system.h ****   * @param  Input This parameter can be one of the following values:
1038:Drivers/STM32L1xx_HAL_Driver/Inc/stm32l1xx_ll_system.h ****   *         @arg @ref LL_RI_INPUTCAPTUREROUTING_0
1039:Drivers/STM32L1xx_HAL_Driver/Inc/stm32l1xx_ll_system.h ****   *         @arg @ref LL_RI_INPUTCAPTUREROUTING_1
1040:Drivers/STM32L1xx_HAL_Driver/Inc/stm32l1xx_ll_system.h ****   *         @arg @ref LL_RI_INPUTCAPTUREROUTING_2
1041:Drivers/STM32L1xx_HAL_Driver/Inc/stm32l1xx_ll_system.h ****   *         @arg @ref LL_RI_INPUTCAPTUREROUTING_3
1042:Drivers/STM32L1xx_HAL_Driver/Inc/stm32l1xx_ll_system.h ****   *         @arg @ref LL_RI_INPUTCAPTUREROUTING_4
1043:Drivers/STM32L1xx_HAL_Driver/Inc/stm32l1xx_ll_system.h ****   *         @arg @ref LL_RI_INPUTCAPTUREROUTING_5
1044:Drivers/STM32L1xx_HAL_Driver/Inc/stm32l1xx_ll_system.h ****   *         @arg @ref LL_RI_INPUTCAPTUREROUTING_6
1045:Drivers/STM32L1xx_HAL_Driver/Inc/stm32l1xx_ll_system.h ****   *         @arg @ref LL_RI_INPUTCAPTUREROUTING_7
1046:Drivers/STM32L1xx_HAL_Driver/Inc/stm32l1xx_ll_system.h ****   *         @arg @ref LL_RI_INPUTCAPTUREROUTING_8
1047:Drivers/STM32L1xx_HAL_Driver/Inc/stm32l1xx_ll_system.h ****   *         @arg @ref LL_RI_INPUTCAPTUREROUTING_9
1048:Drivers/STM32L1xx_HAL_Driver/Inc/stm32l1xx_ll_system.h ****   *         @arg @ref LL_RI_INPUTCAPTUREROUTING_10
1049:Drivers/STM32L1xx_HAL_Driver/Inc/stm32l1xx_ll_system.h ****   *         @arg @ref LL_RI_INPUTCAPTUREROUTING_11
1050:Drivers/STM32L1xx_HAL_Driver/Inc/stm32l1xx_ll_system.h ****   *         @arg @ref LL_RI_INPUTCAPTUREROUTING_12 (*)
1051:Drivers/STM32L1xx_HAL_Driver/Inc/stm32l1xx_ll_system.h ****   *         @arg @ref LL_RI_INPUTCAPTUREROUTING_13 (*)
1052:Drivers/STM32L1xx_HAL_Driver/Inc/stm32l1xx_ll_system.h ****   *         @arg @ref LL_RI_INPUTCAPTUREROUTING_14 (*)
1053:Drivers/STM32L1xx_HAL_Driver/Inc/stm32l1xx_ll_system.h ****   *         @arg @ref LL_RI_INPUTCAPTUREROUTING_15 (*)
1054:Drivers/STM32L1xx_HAL_Driver/Inc/stm32l1xx_ll_system.h ****   *
1055:Drivers/STM32L1xx_HAL_Driver/Inc/stm32l1xx_ll_system.h ****   *         (*) value not defined in all devices.
1056:Drivers/STM32L1xx_HAL_Driver/Inc/stm32l1xx_ll_system.h ****   * @retval None
1057:Drivers/STM32L1xx_HAL_Driver/Inc/stm32l1xx_ll_system.h ****   */
1058:Drivers/STM32L1xx_HAL_Driver/Inc/stm32l1xx_ll_system.h **** __STATIC_INLINE void LL_RI_SetRemapInputCapture_TIM(uint32_t TIM_Select, uint32_t InputCaptureChann
1059:Drivers/STM32L1xx_HAL_Driver/Inc/stm32l1xx_ll_system.h **** {
1060:Drivers/STM32L1xx_HAL_Driver/Inc/stm32l1xx_ll_system.h ****   MODIFY_REG(RI->ICR,
1061:Drivers/STM32L1xx_HAL_Driver/Inc/stm32l1xx_ll_system.h ****              RI_ICR_TIM | (InputCaptureChannel & (RI_ICR_IC4 | RI_ICR_IC3 | RI_ICR_IC2 | RI_ICR_IC1
1062:Drivers/STM32L1xx_HAL_Driver/Inc/stm32l1xx_ll_system.h ****              TIM_Select | (InputCaptureChannel & (RI_ICR_IC4 | RI_ICR_IC3 | RI_ICR_IC2 | RI_ICR_IC1
1063:Drivers/STM32L1xx_HAL_Driver/Inc/stm32l1xx_ll_system.h **** }
1064:Drivers/STM32L1xx_HAL_Driver/Inc/stm32l1xx_ll_system.h **** 
1065:Drivers/STM32L1xx_HAL_Driver/Inc/stm32l1xx_ll_system.h **** /**
ARM GAS  /tmp/ccCpqwiQ.s 			page 28


1066:Drivers/STM32L1xx_HAL_Driver/Inc/stm32l1xx_ll_system.h ****   * @brief  Disable the TIM Input capture remap (select the standard AF)
1067:Drivers/STM32L1xx_HAL_Driver/Inc/stm32l1xx_ll_system.h ****   * @rmtoll RI_ICR       IC1           LL_RI_DisableRemapInputCapture_TIM\n
1068:Drivers/STM32L1xx_HAL_Driver/Inc/stm32l1xx_ll_system.h ****   *         RI_ICR       IC2           LL_RI_DisableRemapInputCapture_TIM\n
1069:Drivers/STM32L1xx_HAL_Driver/Inc/stm32l1xx_ll_system.h ****   *         RI_ICR       IC3           LL_RI_DisableRemapInputCapture_TIM\n
1070:Drivers/STM32L1xx_HAL_Driver/Inc/stm32l1xx_ll_system.h ****   *         RI_ICR       IC4           LL_RI_DisableRemapInputCapture_TIM
1071:Drivers/STM32L1xx_HAL_Driver/Inc/stm32l1xx_ll_system.h ****   * @param  InputCaptureChannel This parameter can be a combination of the following values:
1072:Drivers/STM32L1xx_HAL_Driver/Inc/stm32l1xx_ll_system.h ****   *         @arg @ref LL_RI_INPUTCAPTURE_1
1073:Drivers/STM32L1xx_HAL_Driver/Inc/stm32l1xx_ll_system.h ****   *         @arg @ref LL_RI_INPUTCAPTURE_2
1074:Drivers/STM32L1xx_HAL_Driver/Inc/stm32l1xx_ll_system.h ****   *         @arg @ref LL_RI_INPUTCAPTURE_3
1075:Drivers/STM32L1xx_HAL_Driver/Inc/stm32l1xx_ll_system.h ****   *         @arg @ref LL_RI_INPUTCAPTURE_4
1076:Drivers/STM32L1xx_HAL_Driver/Inc/stm32l1xx_ll_system.h ****   * @retval None
1077:Drivers/STM32L1xx_HAL_Driver/Inc/stm32l1xx_ll_system.h ****   */
1078:Drivers/STM32L1xx_HAL_Driver/Inc/stm32l1xx_ll_system.h **** __STATIC_INLINE void LL_RI_DisableRemapInputCapture_TIM(uint32_t InputCaptureChannel)
1079:Drivers/STM32L1xx_HAL_Driver/Inc/stm32l1xx_ll_system.h **** {
1080:Drivers/STM32L1xx_HAL_Driver/Inc/stm32l1xx_ll_system.h ****   CLEAR_BIT(RI->ICR, (InputCaptureChannel & (RI_ICR_IC4 | RI_ICR_IC3 | RI_ICR_IC2 | RI_ICR_IC1)));
1081:Drivers/STM32L1xx_HAL_Driver/Inc/stm32l1xx_ll_system.h **** }
1082:Drivers/STM32L1xx_HAL_Driver/Inc/stm32l1xx_ll_system.h **** 
1083:Drivers/STM32L1xx_HAL_Driver/Inc/stm32l1xx_ll_system.h **** /**
1084:Drivers/STM32L1xx_HAL_Driver/Inc/stm32l1xx_ll_system.h ****   * @brief  Close the routing interface Input Output switches linked to ADC.
1085:Drivers/STM32L1xx_HAL_Driver/Inc/stm32l1xx_ll_system.h ****   * @rmtoll RI_ASCR1     CH            LL_RI_CloseIOSwitchLinkedToADC\n
1086:Drivers/STM32L1xx_HAL_Driver/Inc/stm32l1xx_ll_system.h ****   *         RI_ASCR1     VCOMP         LL_RI_CloseIOSwitchLinkedToADC
1087:Drivers/STM32L1xx_HAL_Driver/Inc/stm32l1xx_ll_system.h ****   * @param  IOSwitch This parameter can be a combination of the following values:
1088:Drivers/STM32L1xx_HAL_Driver/Inc/stm32l1xx_ll_system.h ****   *         @arg @ref LL_RI_IOSWITCH_CH0
1089:Drivers/STM32L1xx_HAL_Driver/Inc/stm32l1xx_ll_system.h ****   *         @arg @ref LL_RI_IOSWITCH_CH1
1090:Drivers/STM32L1xx_HAL_Driver/Inc/stm32l1xx_ll_system.h ****   *         @arg @ref LL_RI_IOSWITCH_CH2
1091:Drivers/STM32L1xx_HAL_Driver/Inc/stm32l1xx_ll_system.h ****   *         @arg @ref LL_RI_IOSWITCH_CH3
1092:Drivers/STM32L1xx_HAL_Driver/Inc/stm32l1xx_ll_system.h ****   *         @arg @ref LL_RI_IOSWITCH_CH4
1093:Drivers/STM32L1xx_HAL_Driver/Inc/stm32l1xx_ll_system.h ****   *         @arg @ref LL_RI_IOSWITCH_CH5
1094:Drivers/STM32L1xx_HAL_Driver/Inc/stm32l1xx_ll_system.h ****   *         @arg @ref LL_RI_IOSWITCH_CH6
1095:Drivers/STM32L1xx_HAL_Driver/Inc/stm32l1xx_ll_system.h ****   *         @arg @ref LL_RI_IOSWITCH_CH7
1096:Drivers/STM32L1xx_HAL_Driver/Inc/stm32l1xx_ll_system.h ****   *         @arg @ref LL_RI_IOSWITCH_CH8
1097:Drivers/STM32L1xx_HAL_Driver/Inc/stm32l1xx_ll_system.h ****   *         @arg @ref LL_RI_IOSWITCH_CH9
1098:Drivers/STM32L1xx_HAL_Driver/Inc/stm32l1xx_ll_system.h ****   *         @arg @ref LL_RI_IOSWITCH_CH10
1099:Drivers/STM32L1xx_HAL_Driver/Inc/stm32l1xx_ll_system.h ****   *         @arg @ref LL_RI_IOSWITCH_CH11
1100:Drivers/STM32L1xx_HAL_Driver/Inc/stm32l1xx_ll_system.h ****   *         @arg @ref LL_RI_IOSWITCH_CH12
1101:Drivers/STM32L1xx_HAL_Driver/Inc/stm32l1xx_ll_system.h ****   *         @arg @ref LL_RI_IOSWITCH_CH13
1102:Drivers/STM32L1xx_HAL_Driver/Inc/stm32l1xx_ll_system.h ****   *         @arg @ref LL_RI_IOSWITCH_CH14
1103:Drivers/STM32L1xx_HAL_Driver/Inc/stm32l1xx_ll_system.h ****   *         @arg @ref LL_RI_IOSWITCH_CH15
1104:Drivers/STM32L1xx_HAL_Driver/Inc/stm32l1xx_ll_system.h ****   *         @arg @ref LL_RI_IOSWITCH_CH18
1105:Drivers/STM32L1xx_HAL_Driver/Inc/stm32l1xx_ll_system.h ****   *         @arg @ref LL_RI_IOSWITCH_CH19
1106:Drivers/STM32L1xx_HAL_Driver/Inc/stm32l1xx_ll_system.h ****   *         @arg @ref LL_RI_IOSWITCH_CH20
1107:Drivers/STM32L1xx_HAL_Driver/Inc/stm32l1xx_ll_system.h ****   *         @arg @ref LL_RI_IOSWITCH_CH21
1108:Drivers/STM32L1xx_HAL_Driver/Inc/stm32l1xx_ll_system.h ****   *         @arg @ref LL_RI_IOSWITCH_CH22
1109:Drivers/STM32L1xx_HAL_Driver/Inc/stm32l1xx_ll_system.h ****   *         @arg @ref LL_RI_IOSWITCH_CH23
1110:Drivers/STM32L1xx_HAL_Driver/Inc/stm32l1xx_ll_system.h ****   *         @arg @ref LL_RI_IOSWITCH_CH24
1111:Drivers/STM32L1xx_HAL_Driver/Inc/stm32l1xx_ll_system.h ****   *         @arg @ref LL_RI_IOSWITCH_CH25
1112:Drivers/STM32L1xx_HAL_Driver/Inc/stm32l1xx_ll_system.h ****   *         @arg @ref LL_RI_IOSWITCH_VCOMP
1113:Drivers/STM32L1xx_HAL_Driver/Inc/stm32l1xx_ll_system.h ****   *         @arg @ref LL_RI_IOSWITCH_CH27 (*)
1114:Drivers/STM32L1xx_HAL_Driver/Inc/stm32l1xx_ll_system.h ****   *         @arg @ref LL_RI_IOSWITCH_CH28 (*)
1115:Drivers/STM32L1xx_HAL_Driver/Inc/stm32l1xx_ll_system.h ****   *         @arg @ref LL_RI_IOSWITCH_CH29 (*)
1116:Drivers/STM32L1xx_HAL_Driver/Inc/stm32l1xx_ll_system.h ****   *         @arg @ref LL_RI_IOSWITCH_CH30 (*)
1117:Drivers/STM32L1xx_HAL_Driver/Inc/stm32l1xx_ll_system.h ****   *         @arg @ref LL_RI_IOSWITCH_CH31 (*)
1118:Drivers/STM32L1xx_HAL_Driver/Inc/stm32l1xx_ll_system.h ****   *
1119:Drivers/STM32L1xx_HAL_Driver/Inc/stm32l1xx_ll_system.h ****   *         (*) value not defined in all devices.
1120:Drivers/STM32L1xx_HAL_Driver/Inc/stm32l1xx_ll_system.h ****   * @retval None
1121:Drivers/STM32L1xx_HAL_Driver/Inc/stm32l1xx_ll_system.h ****   */
1122:Drivers/STM32L1xx_HAL_Driver/Inc/stm32l1xx_ll_system.h **** __STATIC_INLINE void LL_RI_CloseIOSwitchLinkedToADC(uint32_t IOSwitch)
ARM GAS  /tmp/ccCpqwiQ.s 			page 29


1123:Drivers/STM32L1xx_HAL_Driver/Inc/stm32l1xx_ll_system.h **** {
1124:Drivers/STM32L1xx_HAL_Driver/Inc/stm32l1xx_ll_system.h ****   SET_BIT(RI->ASCR1, IOSwitch);
1125:Drivers/STM32L1xx_HAL_Driver/Inc/stm32l1xx_ll_system.h **** }
1126:Drivers/STM32L1xx_HAL_Driver/Inc/stm32l1xx_ll_system.h **** 
1127:Drivers/STM32L1xx_HAL_Driver/Inc/stm32l1xx_ll_system.h **** /**
1128:Drivers/STM32L1xx_HAL_Driver/Inc/stm32l1xx_ll_system.h ****   * @brief  Open the routing interface Input Output switches linked to ADC.
1129:Drivers/STM32L1xx_HAL_Driver/Inc/stm32l1xx_ll_system.h ****   * @rmtoll RI_ASCR1     CH            LL_RI_OpenIOSwitchLinkedToADC\n
1130:Drivers/STM32L1xx_HAL_Driver/Inc/stm32l1xx_ll_system.h ****   *         RI_ASCR1     VCOMP         LL_RI_OpenIOSwitchLinkedToADC
1131:Drivers/STM32L1xx_HAL_Driver/Inc/stm32l1xx_ll_system.h ****   * @param  IOSwitch This parameter can be a combination of the following values:
1132:Drivers/STM32L1xx_HAL_Driver/Inc/stm32l1xx_ll_system.h ****   *         @arg @ref LL_RI_IOSWITCH_CH0
1133:Drivers/STM32L1xx_HAL_Driver/Inc/stm32l1xx_ll_system.h ****   *         @arg @ref LL_RI_IOSWITCH_CH1
1134:Drivers/STM32L1xx_HAL_Driver/Inc/stm32l1xx_ll_system.h ****   *         @arg @ref LL_RI_IOSWITCH_CH2
1135:Drivers/STM32L1xx_HAL_Driver/Inc/stm32l1xx_ll_system.h ****   *         @arg @ref LL_RI_IOSWITCH_CH3
1136:Drivers/STM32L1xx_HAL_Driver/Inc/stm32l1xx_ll_system.h ****   *         @arg @ref LL_RI_IOSWITCH_CH4
1137:Drivers/STM32L1xx_HAL_Driver/Inc/stm32l1xx_ll_system.h ****   *         @arg @ref LL_RI_IOSWITCH_CH5
1138:Drivers/STM32L1xx_HAL_Driver/Inc/stm32l1xx_ll_system.h ****   *         @arg @ref LL_RI_IOSWITCH_CH6
1139:Drivers/STM32L1xx_HAL_Driver/Inc/stm32l1xx_ll_system.h ****   *         @arg @ref LL_RI_IOSWITCH_CH7
1140:Drivers/STM32L1xx_HAL_Driver/Inc/stm32l1xx_ll_system.h ****   *         @arg @ref LL_RI_IOSWITCH_CH8
1141:Drivers/STM32L1xx_HAL_Driver/Inc/stm32l1xx_ll_system.h ****   *         @arg @ref LL_RI_IOSWITCH_CH9
1142:Drivers/STM32L1xx_HAL_Driver/Inc/stm32l1xx_ll_system.h ****   *         @arg @ref LL_RI_IOSWITCH_CH10
1143:Drivers/STM32L1xx_HAL_Driver/Inc/stm32l1xx_ll_system.h ****   *         @arg @ref LL_RI_IOSWITCH_CH11
1144:Drivers/STM32L1xx_HAL_Driver/Inc/stm32l1xx_ll_system.h ****   *         @arg @ref LL_RI_IOSWITCH_CH12
1145:Drivers/STM32L1xx_HAL_Driver/Inc/stm32l1xx_ll_system.h ****   *         @arg @ref LL_RI_IOSWITCH_CH13
1146:Drivers/STM32L1xx_HAL_Driver/Inc/stm32l1xx_ll_system.h ****   *         @arg @ref LL_RI_IOSWITCH_CH14
1147:Drivers/STM32L1xx_HAL_Driver/Inc/stm32l1xx_ll_system.h ****   *         @arg @ref LL_RI_IOSWITCH_CH15
1148:Drivers/STM32L1xx_HAL_Driver/Inc/stm32l1xx_ll_system.h ****   *         @arg @ref LL_RI_IOSWITCH_CH18
1149:Drivers/STM32L1xx_HAL_Driver/Inc/stm32l1xx_ll_system.h ****   *         @arg @ref LL_RI_IOSWITCH_CH19
1150:Drivers/STM32L1xx_HAL_Driver/Inc/stm32l1xx_ll_system.h ****   *         @arg @ref LL_RI_IOSWITCH_CH20
1151:Drivers/STM32L1xx_HAL_Driver/Inc/stm32l1xx_ll_system.h ****   *         @arg @ref LL_RI_IOSWITCH_CH21
1152:Drivers/STM32L1xx_HAL_Driver/Inc/stm32l1xx_ll_system.h ****   *         @arg @ref LL_RI_IOSWITCH_CH22
1153:Drivers/STM32L1xx_HAL_Driver/Inc/stm32l1xx_ll_system.h ****   *         @arg @ref LL_RI_IOSWITCH_CH23
1154:Drivers/STM32L1xx_HAL_Driver/Inc/stm32l1xx_ll_system.h ****   *         @arg @ref LL_RI_IOSWITCH_CH24
1155:Drivers/STM32L1xx_HAL_Driver/Inc/stm32l1xx_ll_system.h ****   *         @arg @ref LL_RI_IOSWITCH_CH25
1156:Drivers/STM32L1xx_HAL_Driver/Inc/stm32l1xx_ll_system.h ****   *         @arg @ref LL_RI_IOSWITCH_VCOMP
1157:Drivers/STM32L1xx_HAL_Driver/Inc/stm32l1xx_ll_system.h ****   *         @arg @ref LL_RI_IOSWITCH_CH27 (*)
1158:Drivers/STM32L1xx_HAL_Driver/Inc/stm32l1xx_ll_system.h ****   *         @arg @ref LL_RI_IOSWITCH_CH28 (*)
1159:Drivers/STM32L1xx_HAL_Driver/Inc/stm32l1xx_ll_system.h ****   *         @arg @ref LL_RI_IOSWITCH_CH29 (*)
1160:Drivers/STM32L1xx_HAL_Driver/Inc/stm32l1xx_ll_system.h ****   *         @arg @ref LL_RI_IOSWITCH_CH30 (*)
1161:Drivers/STM32L1xx_HAL_Driver/Inc/stm32l1xx_ll_system.h ****   *         @arg @ref LL_RI_IOSWITCH_CH31 (*)
1162:Drivers/STM32L1xx_HAL_Driver/Inc/stm32l1xx_ll_system.h ****   *
1163:Drivers/STM32L1xx_HAL_Driver/Inc/stm32l1xx_ll_system.h ****   *         (*) value not defined in all devices.
1164:Drivers/STM32L1xx_HAL_Driver/Inc/stm32l1xx_ll_system.h ****   * @retval None
1165:Drivers/STM32L1xx_HAL_Driver/Inc/stm32l1xx_ll_system.h ****   */
1166:Drivers/STM32L1xx_HAL_Driver/Inc/stm32l1xx_ll_system.h **** __STATIC_INLINE void LL_RI_OpenIOSwitchLinkedToADC(uint32_t IOSwitch)
1167:Drivers/STM32L1xx_HAL_Driver/Inc/stm32l1xx_ll_system.h **** {
1168:Drivers/STM32L1xx_HAL_Driver/Inc/stm32l1xx_ll_system.h ****   CLEAR_BIT(RI->ASCR1, IOSwitch);
1169:Drivers/STM32L1xx_HAL_Driver/Inc/stm32l1xx_ll_system.h **** }
1170:Drivers/STM32L1xx_HAL_Driver/Inc/stm32l1xx_ll_system.h **** 
1171:Drivers/STM32L1xx_HAL_Driver/Inc/stm32l1xx_ll_system.h **** /**
1172:Drivers/STM32L1xx_HAL_Driver/Inc/stm32l1xx_ll_system.h ****   * @brief  Enable the switch control mode.
1173:Drivers/STM32L1xx_HAL_Driver/Inc/stm32l1xx_ll_system.h ****   * @rmtoll RI_ASCR1     SCM           LL_RI_EnableSwitchControlMode
1174:Drivers/STM32L1xx_HAL_Driver/Inc/stm32l1xx_ll_system.h ****   * @retval None
1175:Drivers/STM32L1xx_HAL_Driver/Inc/stm32l1xx_ll_system.h ****   */
1176:Drivers/STM32L1xx_HAL_Driver/Inc/stm32l1xx_ll_system.h **** __STATIC_INLINE void LL_RI_EnableSwitchControlMode(void)
1177:Drivers/STM32L1xx_HAL_Driver/Inc/stm32l1xx_ll_system.h **** {
1178:Drivers/STM32L1xx_HAL_Driver/Inc/stm32l1xx_ll_system.h ****   SET_BIT(RI->ASCR1, RI_ASCR1_SCM);
1179:Drivers/STM32L1xx_HAL_Driver/Inc/stm32l1xx_ll_system.h **** }
ARM GAS  /tmp/ccCpqwiQ.s 			page 30


1180:Drivers/STM32L1xx_HAL_Driver/Inc/stm32l1xx_ll_system.h **** 
1181:Drivers/STM32L1xx_HAL_Driver/Inc/stm32l1xx_ll_system.h **** /**
1182:Drivers/STM32L1xx_HAL_Driver/Inc/stm32l1xx_ll_system.h ****   * @brief  Disable the switch control mode.
1183:Drivers/STM32L1xx_HAL_Driver/Inc/stm32l1xx_ll_system.h ****   * @rmtoll RI_ASCR1     SCM           LL_RI_DisableSwitchControlMode
1184:Drivers/STM32L1xx_HAL_Driver/Inc/stm32l1xx_ll_system.h ****   * @retval None
1185:Drivers/STM32L1xx_HAL_Driver/Inc/stm32l1xx_ll_system.h ****   */
1186:Drivers/STM32L1xx_HAL_Driver/Inc/stm32l1xx_ll_system.h **** __STATIC_INLINE void LL_RI_DisableSwitchControlMode(void)
1187:Drivers/STM32L1xx_HAL_Driver/Inc/stm32l1xx_ll_system.h **** {
1188:Drivers/STM32L1xx_HAL_Driver/Inc/stm32l1xx_ll_system.h ****   CLEAR_BIT(RI->ASCR1, RI_ASCR1_SCM);
1189:Drivers/STM32L1xx_HAL_Driver/Inc/stm32l1xx_ll_system.h **** }
1190:Drivers/STM32L1xx_HAL_Driver/Inc/stm32l1xx_ll_system.h **** 
1191:Drivers/STM32L1xx_HAL_Driver/Inc/stm32l1xx_ll_system.h **** /**
1192:Drivers/STM32L1xx_HAL_Driver/Inc/stm32l1xx_ll_system.h ****   * @brief  Close the routing interface Input Output switches not linked to ADC.
1193:Drivers/STM32L1xx_HAL_Driver/Inc/stm32l1xx_ll_system.h ****   * @rmtoll RI_ASCR2     GR10_1        LL_RI_CloseIOSwitchNotLinkedToADC\n
1194:Drivers/STM32L1xx_HAL_Driver/Inc/stm32l1xx_ll_system.h ****   *         RI_ASCR2     GR10_2        LL_RI_CloseIOSwitchNotLinkedToADC\n
1195:Drivers/STM32L1xx_HAL_Driver/Inc/stm32l1xx_ll_system.h ****   *         RI_ASCR2     GR10_3        LL_RI_CloseIOSwitchNotLinkedToADC\n
1196:Drivers/STM32L1xx_HAL_Driver/Inc/stm32l1xx_ll_system.h ****   *         RI_ASCR2     GR10_4        LL_RI_CloseIOSwitchNotLinkedToADC\n
1197:Drivers/STM32L1xx_HAL_Driver/Inc/stm32l1xx_ll_system.h ****   *         RI_ASCR2     GR6_1         LL_RI_CloseIOSwitchNotLinkedToADC\n
1198:Drivers/STM32L1xx_HAL_Driver/Inc/stm32l1xx_ll_system.h ****   *         RI_ASCR2     GR6_2         LL_RI_CloseIOSwitchNotLinkedToADC\n
1199:Drivers/STM32L1xx_HAL_Driver/Inc/stm32l1xx_ll_system.h ****   *         RI_ASCR2     GR5_1         LL_RI_CloseIOSwitchNotLinkedToADC\n
1200:Drivers/STM32L1xx_HAL_Driver/Inc/stm32l1xx_ll_system.h ****   *         RI_ASCR2     GR5_2         LL_RI_CloseIOSwitchNotLinkedToADC\n
1201:Drivers/STM32L1xx_HAL_Driver/Inc/stm32l1xx_ll_system.h ****   *         RI_ASCR2     GR5_3         LL_RI_CloseIOSwitchNotLinkedToADC\n
1202:Drivers/STM32L1xx_HAL_Driver/Inc/stm32l1xx_ll_system.h ****   *         RI_ASCR2     GR4_1         LL_RI_CloseIOSwitchNotLinkedToADC\n
1203:Drivers/STM32L1xx_HAL_Driver/Inc/stm32l1xx_ll_system.h ****   *         RI_ASCR2     GR4_2         LL_RI_CloseIOSwitchNotLinkedToADC\n
1204:Drivers/STM32L1xx_HAL_Driver/Inc/stm32l1xx_ll_system.h ****   *         RI_ASCR2     GR4_3         LL_RI_CloseIOSwitchNotLinkedToADC\n
1205:Drivers/STM32L1xx_HAL_Driver/Inc/stm32l1xx_ll_system.h ****   *         RI_ASCR2     GR4_4         LL_RI_CloseIOSwitchNotLinkedToADC\n
1206:Drivers/STM32L1xx_HAL_Driver/Inc/stm32l1xx_ll_system.h ****   *         RI_ASCR2     CH0b          LL_RI_CloseIOSwitchNotLinkedToADC\n
1207:Drivers/STM32L1xx_HAL_Driver/Inc/stm32l1xx_ll_system.h ****   *         RI_ASCR2     CH1b          LL_RI_CloseIOSwitchNotLinkedToADC\n
1208:Drivers/STM32L1xx_HAL_Driver/Inc/stm32l1xx_ll_system.h ****   *         RI_ASCR2     CH2b          LL_RI_CloseIOSwitchNotLinkedToADC\n
1209:Drivers/STM32L1xx_HAL_Driver/Inc/stm32l1xx_ll_system.h ****   *         RI_ASCR2     CH3b          LL_RI_CloseIOSwitchNotLinkedToADC\n
1210:Drivers/STM32L1xx_HAL_Driver/Inc/stm32l1xx_ll_system.h ****   *         RI_ASCR2     CH6b          LL_RI_CloseIOSwitchNotLinkedToADC\n
1211:Drivers/STM32L1xx_HAL_Driver/Inc/stm32l1xx_ll_system.h ****   *         RI_ASCR2     CH7b          LL_RI_CloseIOSwitchNotLinkedToADC\n
1212:Drivers/STM32L1xx_HAL_Driver/Inc/stm32l1xx_ll_system.h ****   *         RI_ASCR2     CH8b          LL_RI_CloseIOSwitchNotLinkedToADC\n
1213:Drivers/STM32L1xx_HAL_Driver/Inc/stm32l1xx_ll_system.h ****   *         RI_ASCR2     CH9b          LL_RI_CloseIOSwitchNotLinkedToADC\n
1214:Drivers/STM32L1xx_HAL_Driver/Inc/stm32l1xx_ll_system.h ****   *         RI_ASCR2     CH10b         LL_RI_CloseIOSwitchNotLinkedToADC\n
1215:Drivers/STM32L1xx_HAL_Driver/Inc/stm32l1xx_ll_system.h ****   *         RI_ASCR2     CH11b         LL_RI_CloseIOSwitchNotLinkedToADC\n
1216:Drivers/STM32L1xx_HAL_Driver/Inc/stm32l1xx_ll_system.h ****   *         RI_ASCR2     CH12b         LL_RI_CloseIOSwitchNotLinkedToADC\n
1217:Drivers/STM32L1xx_HAL_Driver/Inc/stm32l1xx_ll_system.h ****   *         RI_ASCR2     GR6_3         LL_RI_CloseIOSwitchNotLinkedToADC\n
1218:Drivers/STM32L1xx_HAL_Driver/Inc/stm32l1xx_ll_system.h ****   *         RI_ASCR2     GR6_4         LL_RI_CloseIOSwitchNotLinkedToADC
1219:Drivers/STM32L1xx_HAL_Driver/Inc/stm32l1xx_ll_system.h ****   * @param  IOSwitch This parameter can be a combination of the following values:
1220:Drivers/STM32L1xx_HAL_Driver/Inc/stm32l1xx_ll_system.h ****   *         @arg @ref LL_RI_IOSWITCH_GR10_1
1221:Drivers/STM32L1xx_HAL_Driver/Inc/stm32l1xx_ll_system.h ****   *         @arg @ref LL_RI_IOSWITCH_GR10_2
1222:Drivers/STM32L1xx_HAL_Driver/Inc/stm32l1xx_ll_system.h ****   *         @arg @ref LL_RI_IOSWITCH_GR10_3
1223:Drivers/STM32L1xx_HAL_Driver/Inc/stm32l1xx_ll_system.h ****   *         @arg @ref LL_RI_IOSWITCH_GR10_4
1224:Drivers/STM32L1xx_HAL_Driver/Inc/stm32l1xx_ll_system.h ****   *         @arg @ref LL_RI_IOSWITCH_GR6_1
1225:Drivers/STM32L1xx_HAL_Driver/Inc/stm32l1xx_ll_system.h ****   *         @arg @ref LL_RI_IOSWITCH_GR6_2
1226:Drivers/STM32L1xx_HAL_Driver/Inc/stm32l1xx_ll_system.h ****   *         @arg @ref LL_RI_IOSWITCH_GR5_1
1227:Drivers/STM32L1xx_HAL_Driver/Inc/stm32l1xx_ll_system.h ****   *         @arg @ref LL_RI_IOSWITCH_GR5_2
1228:Drivers/STM32L1xx_HAL_Driver/Inc/stm32l1xx_ll_system.h ****   *         @arg @ref LL_RI_IOSWITCH_GR5_3
1229:Drivers/STM32L1xx_HAL_Driver/Inc/stm32l1xx_ll_system.h ****   *         @arg @ref LL_RI_IOSWITCH_GR4_1
1230:Drivers/STM32L1xx_HAL_Driver/Inc/stm32l1xx_ll_system.h ****   *         @arg @ref LL_RI_IOSWITCH_GR4_2
1231:Drivers/STM32L1xx_HAL_Driver/Inc/stm32l1xx_ll_system.h ****   *         @arg @ref LL_RI_IOSWITCH_GR4_3
1232:Drivers/STM32L1xx_HAL_Driver/Inc/stm32l1xx_ll_system.h ****   *         @arg @ref LL_RI_IOSWITCH_CH0b (*)
1233:Drivers/STM32L1xx_HAL_Driver/Inc/stm32l1xx_ll_system.h ****   *         @arg @ref LL_RI_IOSWITCH_CH1b (*)
1234:Drivers/STM32L1xx_HAL_Driver/Inc/stm32l1xx_ll_system.h ****   *         @arg @ref LL_RI_IOSWITCH_CH2b (*)
1235:Drivers/STM32L1xx_HAL_Driver/Inc/stm32l1xx_ll_system.h ****   *         @arg @ref LL_RI_IOSWITCH_CH3b (*)
1236:Drivers/STM32L1xx_HAL_Driver/Inc/stm32l1xx_ll_system.h ****   *         @arg @ref LL_RI_IOSWITCH_CH6b (*)
ARM GAS  /tmp/ccCpqwiQ.s 			page 31


1237:Drivers/STM32L1xx_HAL_Driver/Inc/stm32l1xx_ll_system.h ****   *         @arg @ref LL_RI_IOSWITCH_CH7b (*)
1238:Drivers/STM32L1xx_HAL_Driver/Inc/stm32l1xx_ll_system.h ****   *         @arg @ref LL_RI_IOSWITCH_CH8b (*)
1239:Drivers/STM32L1xx_HAL_Driver/Inc/stm32l1xx_ll_system.h ****   *         @arg @ref LL_RI_IOSWITCH_CH9b (*)
1240:Drivers/STM32L1xx_HAL_Driver/Inc/stm32l1xx_ll_system.h ****   *         @arg @ref LL_RI_IOSWITCH_CH10b (*)
1241:Drivers/STM32L1xx_HAL_Driver/Inc/stm32l1xx_ll_system.h ****   *         @arg @ref LL_RI_IOSWITCH_CH11b (*)
1242:Drivers/STM32L1xx_HAL_Driver/Inc/stm32l1xx_ll_system.h ****   *         @arg @ref LL_RI_IOSWITCH_CH12b (*)
1243:Drivers/STM32L1xx_HAL_Driver/Inc/stm32l1xx_ll_system.h ****   *         @arg @ref LL_RI_IOSWITCH_GR6_3
1244:Drivers/STM32L1xx_HAL_Driver/Inc/stm32l1xx_ll_system.h ****   *         @arg @ref LL_RI_IOSWITCH_GR6_4
1245:Drivers/STM32L1xx_HAL_Driver/Inc/stm32l1xx_ll_system.h ****   *
1246:Drivers/STM32L1xx_HAL_Driver/Inc/stm32l1xx_ll_system.h ****   *         (*) value not defined in all devices.
1247:Drivers/STM32L1xx_HAL_Driver/Inc/stm32l1xx_ll_system.h ****   * @retval None
1248:Drivers/STM32L1xx_HAL_Driver/Inc/stm32l1xx_ll_system.h ****   */
1249:Drivers/STM32L1xx_HAL_Driver/Inc/stm32l1xx_ll_system.h **** __STATIC_INLINE void LL_RI_CloseIOSwitchNotLinkedToADC(uint32_t IOSwitch)
1250:Drivers/STM32L1xx_HAL_Driver/Inc/stm32l1xx_ll_system.h **** {
1251:Drivers/STM32L1xx_HAL_Driver/Inc/stm32l1xx_ll_system.h ****   SET_BIT(RI->ASCR2, IOSwitch);
1252:Drivers/STM32L1xx_HAL_Driver/Inc/stm32l1xx_ll_system.h **** }
1253:Drivers/STM32L1xx_HAL_Driver/Inc/stm32l1xx_ll_system.h **** 
1254:Drivers/STM32L1xx_HAL_Driver/Inc/stm32l1xx_ll_system.h **** /**
1255:Drivers/STM32L1xx_HAL_Driver/Inc/stm32l1xx_ll_system.h ****   * @brief  Open the routing interface Input Output switches not linked to ADC.
1256:Drivers/STM32L1xx_HAL_Driver/Inc/stm32l1xx_ll_system.h ****   * @rmtoll RI_ASCR2     GR10_1        LL_RI_OpenIOSwitchNotLinkedToADC\n
1257:Drivers/STM32L1xx_HAL_Driver/Inc/stm32l1xx_ll_system.h ****   *         RI_ASCR2     GR10_2        LL_RI_OpenIOSwitchNotLinkedToADC\n
1258:Drivers/STM32L1xx_HAL_Driver/Inc/stm32l1xx_ll_system.h ****   *         RI_ASCR2     GR10_3        LL_RI_OpenIOSwitchNotLinkedToADC\n
1259:Drivers/STM32L1xx_HAL_Driver/Inc/stm32l1xx_ll_system.h ****   *         RI_ASCR2     GR10_4        LL_RI_OpenIOSwitchNotLinkedToADC\n
1260:Drivers/STM32L1xx_HAL_Driver/Inc/stm32l1xx_ll_system.h ****   *         RI_ASCR2     GR6_1         LL_RI_OpenIOSwitchNotLinkedToADC\n
1261:Drivers/STM32L1xx_HAL_Driver/Inc/stm32l1xx_ll_system.h ****   *         RI_ASCR2     GR6_2         LL_RI_OpenIOSwitchNotLinkedToADC\n
1262:Drivers/STM32L1xx_HAL_Driver/Inc/stm32l1xx_ll_system.h ****   *         RI_ASCR2     GR5_1         LL_RI_OpenIOSwitchNotLinkedToADC\n
1263:Drivers/STM32L1xx_HAL_Driver/Inc/stm32l1xx_ll_system.h ****   *         RI_ASCR2     GR5_2         LL_RI_OpenIOSwitchNotLinkedToADC\n
1264:Drivers/STM32L1xx_HAL_Driver/Inc/stm32l1xx_ll_system.h ****   *         RI_ASCR2     GR5_3         LL_RI_OpenIOSwitchNotLinkedToADC\n
1265:Drivers/STM32L1xx_HAL_Driver/Inc/stm32l1xx_ll_system.h ****   *         RI_ASCR2     GR4_1         LL_RI_OpenIOSwitchNotLinkedToADC\n
1266:Drivers/STM32L1xx_HAL_Driver/Inc/stm32l1xx_ll_system.h ****   *         RI_ASCR2     GR4_2         LL_RI_OpenIOSwitchNotLinkedToADC\n
1267:Drivers/STM32L1xx_HAL_Driver/Inc/stm32l1xx_ll_system.h ****   *         RI_ASCR2     GR4_3         LL_RI_OpenIOSwitchNotLinkedToADC\n
1268:Drivers/STM32L1xx_HAL_Driver/Inc/stm32l1xx_ll_system.h ****   *         RI_ASCR2     GR4_4         LL_RI_OpenIOSwitchNotLinkedToADC\n
1269:Drivers/STM32L1xx_HAL_Driver/Inc/stm32l1xx_ll_system.h ****   *         RI_ASCR2     CH0b          LL_RI_OpenIOSwitchNotLinkedToADC\n
1270:Drivers/STM32L1xx_HAL_Driver/Inc/stm32l1xx_ll_system.h ****   *         RI_ASCR2     CH1b          LL_RI_OpenIOSwitchNotLinkedToADC\n
1271:Drivers/STM32L1xx_HAL_Driver/Inc/stm32l1xx_ll_system.h ****   *         RI_ASCR2     CH2b          LL_RI_OpenIOSwitchNotLinkedToADC\n
1272:Drivers/STM32L1xx_HAL_Driver/Inc/stm32l1xx_ll_system.h ****   *         RI_ASCR2     CH3b          LL_RI_OpenIOSwitchNotLinkedToADC\n
1273:Drivers/STM32L1xx_HAL_Driver/Inc/stm32l1xx_ll_system.h ****   *         RI_ASCR2     CH6b          LL_RI_OpenIOSwitchNotLinkedToADC\n
1274:Drivers/STM32L1xx_HAL_Driver/Inc/stm32l1xx_ll_system.h ****   *         RI_ASCR2     CH7b          LL_RI_OpenIOSwitchNotLinkedToADC\n
1275:Drivers/STM32L1xx_HAL_Driver/Inc/stm32l1xx_ll_system.h ****   *         RI_ASCR2     CH8b          LL_RI_OpenIOSwitchNotLinkedToADC\n
1276:Drivers/STM32L1xx_HAL_Driver/Inc/stm32l1xx_ll_system.h ****   *         RI_ASCR2     CH9b          LL_RI_OpenIOSwitchNotLinkedToADC\n
1277:Drivers/STM32L1xx_HAL_Driver/Inc/stm32l1xx_ll_system.h ****   *         RI_ASCR2     CH10b         LL_RI_OpenIOSwitchNotLinkedToADC\n
1278:Drivers/STM32L1xx_HAL_Driver/Inc/stm32l1xx_ll_system.h ****   *         RI_ASCR2     CH11b         LL_RI_OpenIOSwitchNotLinkedToADC\n
1279:Drivers/STM32L1xx_HAL_Driver/Inc/stm32l1xx_ll_system.h ****   *         RI_ASCR2     CH12b         LL_RI_OpenIOSwitchNotLinkedToADC\n
1280:Drivers/STM32L1xx_HAL_Driver/Inc/stm32l1xx_ll_system.h ****   *         RI_ASCR2     GR6_3         LL_RI_OpenIOSwitchNotLinkedToADC\n
1281:Drivers/STM32L1xx_HAL_Driver/Inc/stm32l1xx_ll_system.h ****   *         RI_ASCR2     GR6_4         LL_RI_OpenIOSwitchNotLinkedToADC
1282:Drivers/STM32L1xx_HAL_Driver/Inc/stm32l1xx_ll_system.h ****   * @param  IOSwitch This parameter can be a combination of the following values:
1283:Drivers/STM32L1xx_HAL_Driver/Inc/stm32l1xx_ll_system.h ****   *         @arg @ref LL_RI_IOSWITCH_GR10_1
1284:Drivers/STM32L1xx_HAL_Driver/Inc/stm32l1xx_ll_system.h ****   *         @arg @ref LL_RI_IOSWITCH_GR10_2
1285:Drivers/STM32L1xx_HAL_Driver/Inc/stm32l1xx_ll_system.h ****   *         @arg @ref LL_RI_IOSWITCH_GR10_3
1286:Drivers/STM32L1xx_HAL_Driver/Inc/stm32l1xx_ll_system.h ****   *         @arg @ref LL_RI_IOSWITCH_GR10_4
1287:Drivers/STM32L1xx_HAL_Driver/Inc/stm32l1xx_ll_system.h ****   *         @arg @ref LL_RI_IOSWITCH_GR6_1
1288:Drivers/STM32L1xx_HAL_Driver/Inc/stm32l1xx_ll_system.h ****   *         @arg @ref LL_RI_IOSWITCH_GR6_2
1289:Drivers/STM32L1xx_HAL_Driver/Inc/stm32l1xx_ll_system.h ****   *         @arg @ref LL_RI_IOSWITCH_GR5_1
1290:Drivers/STM32L1xx_HAL_Driver/Inc/stm32l1xx_ll_system.h ****   *         @arg @ref LL_RI_IOSWITCH_GR5_2
1291:Drivers/STM32L1xx_HAL_Driver/Inc/stm32l1xx_ll_system.h ****   *         @arg @ref LL_RI_IOSWITCH_GR5_3
1292:Drivers/STM32L1xx_HAL_Driver/Inc/stm32l1xx_ll_system.h ****   *         @arg @ref LL_RI_IOSWITCH_GR4_1
1293:Drivers/STM32L1xx_HAL_Driver/Inc/stm32l1xx_ll_system.h ****   *         @arg @ref LL_RI_IOSWITCH_GR4_2
ARM GAS  /tmp/ccCpqwiQ.s 			page 32


1294:Drivers/STM32L1xx_HAL_Driver/Inc/stm32l1xx_ll_system.h ****   *         @arg @ref LL_RI_IOSWITCH_GR4_3
1295:Drivers/STM32L1xx_HAL_Driver/Inc/stm32l1xx_ll_system.h ****   *         @arg @ref LL_RI_IOSWITCH_CH0b (*)
1296:Drivers/STM32L1xx_HAL_Driver/Inc/stm32l1xx_ll_system.h ****   *         @arg @ref LL_RI_IOSWITCH_CH1b (*)
1297:Drivers/STM32L1xx_HAL_Driver/Inc/stm32l1xx_ll_system.h ****   *         @arg @ref LL_RI_IOSWITCH_CH2b (*)
1298:Drivers/STM32L1xx_HAL_Driver/Inc/stm32l1xx_ll_system.h ****   *         @arg @ref LL_RI_IOSWITCH_CH3b (*)
1299:Drivers/STM32L1xx_HAL_Driver/Inc/stm32l1xx_ll_system.h ****   *         @arg @ref LL_RI_IOSWITCH_CH6b (*)
1300:Drivers/STM32L1xx_HAL_Driver/Inc/stm32l1xx_ll_system.h ****   *         @arg @ref LL_RI_IOSWITCH_CH7b (*)
1301:Drivers/STM32L1xx_HAL_Driver/Inc/stm32l1xx_ll_system.h ****   *         @arg @ref LL_RI_IOSWITCH_CH8b (*)
1302:Drivers/STM32L1xx_HAL_Driver/Inc/stm32l1xx_ll_system.h ****   *         @arg @ref LL_RI_IOSWITCH_CH9b (*)
1303:Drivers/STM32L1xx_HAL_Driver/Inc/stm32l1xx_ll_system.h ****   *         @arg @ref LL_RI_IOSWITCH_CH10b (*)
1304:Drivers/STM32L1xx_HAL_Driver/Inc/stm32l1xx_ll_system.h ****   *         @arg @ref LL_RI_IOSWITCH_CH11b (*)
1305:Drivers/STM32L1xx_HAL_Driver/Inc/stm32l1xx_ll_system.h ****   *         @arg @ref LL_RI_IOSWITCH_CH12b (*)
1306:Drivers/STM32L1xx_HAL_Driver/Inc/stm32l1xx_ll_system.h ****   *         @arg @ref LL_RI_IOSWITCH_GR6_3
1307:Drivers/STM32L1xx_HAL_Driver/Inc/stm32l1xx_ll_system.h ****   *         @arg @ref LL_RI_IOSWITCH_GR6_4
1308:Drivers/STM32L1xx_HAL_Driver/Inc/stm32l1xx_ll_system.h ****   *
1309:Drivers/STM32L1xx_HAL_Driver/Inc/stm32l1xx_ll_system.h ****   *         (*) value not defined in all devices.
1310:Drivers/STM32L1xx_HAL_Driver/Inc/stm32l1xx_ll_system.h ****   * @retval None
1311:Drivers/STM32L1xx_HAL_Driver/Inc/stm32l1xx_ll_system.h ****   */
1312:Drivers/STM32L1xx_HAL_Driver/Inc/stm32l1xx_ll_system.h **** __STATIC_INLINE void LL_RI_OpenIOSwitchNotLinkedToADC(uint32_t IOSwitch)
1313:Drivers/STM32L1xx_HAL_Driver/Inc/stm32l1xx_ll_system.h **** {
1314:Drivers/STM32L1xx_HAL_Driver/Inc/stm32l1xx_ll_system.h ****   CLEAR_BIT(RI->ASCR2, IOSwitch);
1315:Drivers/STM32L1xx_HAL_Driver/Inc/stm32l1xx_ll_system.h **** }
1316:Drivers/STM32L1xx_HAL_Driver/Inc/stm32l1xx_ll_system.h **** 
1317:Drivers/STM32L1xx_HAL_Driver/Inc/stm32l1xx_ll_system.h **** /**
1318:Drivers/STM32L1xx_HAL_Driver/Inc/stm32l1xx_ll_system.h ****   * @brief  Enable Hysteresis of the input schmitt trigger of the port X
1319:Drivers/STM32L1xx_HAL_Driver/Inc/stm32l1xx_ll_system.h ****   * @rmtoll RI_HYSCR1    PA            LL_RI_EnableHysteresis\n
1320:Drivers/STM32L1xx_HAL_Driver/Inc/stm32l1xx_ll_system.h ****   *         RI_HYSCR1    PB            LL_RI_EnableHysteresis\n
1321:Drivers/STM32L1xx_HAL_Driver/Inc/stm32l1xx_ll_system.h ****   *         RI_HYSCR1    PC            LL_RI_EnableHysteresis\n
1322:Drivers/STM32L1xx_HAL_Driver/Inc/stm32l1xx_ll_system.h ****   *         RI_HYSCR1    PD            LL_RI_EnableHysteresis\n
1323:Drivers/STM32L1xx_HAL_Driver/Inc/stm32l1xx_ll_system.h ****   *         RI_HYSCR1    PE            LL_RI_EnableHysteresis\n
1324:Drivers/STM32L1xx_HAL_Driver/Inc/stm32l1xx_ll_system.h ****   *         RI_HYSCR1    PF            LL_RI_EnableHysteresis\n
1325:Drivers/STM32L1xx_HAL_Driver/Inc/stm32l1xx_ll_system.h ****   *         RI_HYSCR1    PG            LL_RI_EnableHysteresis\n
1326:Drivers/STM32L1xx_HAL_Driver/Inc/stm32l1xx_ll_system.h ****   *         RI_HYSCR2    PA            LL_RI_EnableHysteresis\n
1327:Drivers/STM32L1xx_HAL_Driver/Inc/stm32l1xx_ll_system.h ****   *         RI_HYSCR2    PB            LL_RI_EnableHysteresis\n
1328:Drivers/STM32L1xx_HAL_Driver/Inc/stm32l1xx_ll_system.h ****   *         RI_HYSCR2    PC            LL_RI_EnableHysteresis\n
1329:Drivers/STM32L1xx_HAL_Driver/Inc/stm32l1xx_ll_system.h ****   *         RI_HYSCR2    PD            LL_RI_EnableHysteresis\n
1330:Drivers/STM32L1xx_HAL_Driver/Inc/stm32l1xx_ll_system.h ****   *         RI_HYSCR2    PE            LL_RI_EnableHysteresis\n
1331:Drivers/STM32L1xx_HAL_Driver/Inc/stm32l1xx_ll_system.h ****   *         RI_HYSCR2    PF            LL_RI_EnableHysteresis\n
1332:Drivers/STM32L1xx_HAL_Driver/Inc/stm32l1xx_ll_system.h ****   *         RI_HYSCR2    PG            LL_RI_EnableHysteresis\n
1333:Drivers/STM32L1xx_HAL_Driver/Inc/stm32l1xx_ll_system.h ****   *         RI_HYSCR3    PA            LL_RI_EnableHysteresis\n
1334:Drivers/STM32L1xx_HAL_Driver/Inc/stm32l1xx_ll_system.h ****   *         RI_HYSCR3    PB            LL_RI_EnableHysteresis\n
1335:Drivers/STM32L1xx_HAL_Driver/Inc/stm32l1xx_ll_system.h ****   *         RI_HYSCR3    PC            LL_RI_EnableHysteresis\n
1336:Drivers/STM32L1xx_HAL_Driver/Inc/stm32l1xx_ll_system.h ****   *         RI_HYSCR3    PD            LL_RI_EnableHysteresis\n
1337:Drivers/STM32L1xx_HAL_Driver/Inc/stm32l1xx_ll_system.h ****   *         RI_HYSCR3    PE            LL_RI_EnableHysteresis\n
1338:Drivers/STM32L1xx_HAL_Driver/Inc/stm32l1xx_ll_system.h ****   *         RI_HYSCR3    PF            LL_RI_EnableHysteresis\n
1339:Drivers/STM32L1xx_HAL_Driver/Inc/stm32l1xx_ll_system.h ****   *         RI_HYSCR3    PG            LL_RI_EnableHysteresis\n
1340:Drivers/STM32L1xx_HAL_Driver/Inc/stm32l1xx_ll_system.h ****   *         RI_HYSCR4    PA            LL_RI_EnableHysteresis\n
1341:Drivers/STM32L1xx_HAL_Driver/Inc/stm32l1xx_ll_system.h ****   *         RI_HYSCR4    PB            LL_RI_EnableHysteresis\n
1342:Drivers/STM32L1xx_HAL_Driver/Inc/stm32l1xx_ll_system.h ****   *         RI_HYSCR4    PC            LL_RI_EnableHysteresis\n
1343:Drivers/STM32L1xx_HAL_Driver/Inc/stm32l1xx_ll_system.h ****   *         RI_HYSCR4    PD            LL_RI_EnableHysteresis\n
1344:Drivers/STM32L1xx_HAL_Driver/Inc/stm32l1xx_ll_system.h ****   *         RI_HYSCR4    PE            LL_RI_EnableHysteresis\n
1345:Drivers/STM32L1xx_HAL_Driver/Inc/stm32l1xx_ll_system.h ****   *         RI_HYSCR4    PF            LL_RI_EnableHysteresis\n
1346:Drivers/STM32L1xx_HAL_Driver/Inc/stm32l1xx_ll_system.h ****   *         RI_HYSCR4    PG            LL_RI_EnableHysteresis
1347:Drivers/STM32L1xx_HAL_Driver/Inc/stm32l1xx_ll_system.h ****   * @param  Port This parameter can be one of the following values:
1348:Drivers/STM32L1xx_HAL_Driver/Inc/stm32l1xx_ll_system.h ****   *         @arg @ref LL_RI_HSYTERESIS_PORT_A
1349:Drivers/STM32L1xx_HAL_Driver/Inc/stm32l1xx_ll_system.h ****   *         @arg @ref LL_RI_HSYTERESIS_PORT_B
1350:Drivers/STM32L1xx_HAL_Driver/Inc/stm32l1xx_ll_system.h ****   *         @arg @ref LL_RI_HSYTERESIS_PORT_C
ARM GAS  /tmp/ccCpqwiQ.s 			page 33


1351:Drivers/STM32L1xx_HAL_Driver/Inc/stm32l1xx_ll_system.h ****   *         @arg @ref LL_RI_HSYTERESIS_PORT_D
1352:Drivers/STM32L1xx_HAL_Driver/Inc/stm32l1xx_ll_system.h ****   *         @arg @ref LL_RI_HSYTERESIS_PORT_E (*)
1353:Drivers/STM32L1xx_HAL_Driver/Inc/stm32l1xx_ll_system.h ****   *         @arg @ref LL_RI_HSYTERESIS_PORT_F (*)
1354:Drivers/STM32L1xx_HAL_Driver/Inc/stm32l1xx_ll_system.h ****   *         @arg @ref LL_RI_HSYTERESIS_PORT_G (*)
1355:Drivers/STM32L1xx_HAL_Driver/Inc/stm32l1xx_ll_system.h ****   *
1356:Drivers/STM32L1xx_HAL_Driver/Inc/stm32l1xx_ll_system.h ****   *         (*) value not defined in all devices.
1357:Drivers/STM32L1xx_HAL_Driver/Inc/stm32l1xx_ll_system.h ****   * @param  Pin This parameter can be a combination of the following values:
1358:Drivers/STM32L1xx_HAL_Driver/Inc/stm32l1xx_ll_system.h ****   *         @arg @ref LL_RI_PIN_0
1359:Drivers/STM32L1xx_HAL_Driver/Inc/stm32l1xx_ll_system.h ****   *         @arg @ref LL_RI_PIN_1
1360:Drivers/STM32L1xx_HAL_Driver/Inc/stm32l1xx_ll_system.h ****   *         @arg @ref LL_RI_PIN_2
1361:Drivers/STM32L1xx_HAL_Driver/Inc/stm32l1xx_ll_system.h ****   *         @arg @ref LL_RI_PIN_3
1362:Drivers/STM32L1xx_HAL_Driver/Inc/stm32l1xx_ll_system.h ****   *         @arg @ref LL_RI_PIN_4
1363:Drivers/STM32L1xx_HAL_Driver/Inc/stm32l1xx_ll_system.h ****   *         @arg @ref LL_RI_PIN_5
1364:Drivers/STM32L1xx_HAL_Driver/Inc/stm32l1xx_ll_system.h ****   *         @arg @ref LL_RI_PIN_6
1365:Drivers/STM32L1xx_HAL_Driver/Inc/stm32l1xx_ll_system.h ****   *         @arg @ref LL_RI_PIN_7
1366:Drivers/STM32L1xx_HAL_Driver/Inc/stm32l1xx_ll_system.h ****   *         @arg @ref LL_RI_PIN_8
1367:Drivers/STM32L1xx_HAL_Driver/Inc/stm32l1xx_ll_system.h ****   *         @arg @ref LL_RI_PIN_9
1368:Drivers/STM32L1xx_HAL_Driver/Inc/stm32l1xx_ll_system.h ****   *         @arg @ref LL_RI_PIN_10
1369:Drivers/STM32L1xx_HAL_Driver/Inc/stm32l1xx_ll_system.h ****   *         @arg @ref LL_RI_PIN_11
1370:Drivers/STM32L1xx_HAL_Driver/Inc/stm32l1xx_ll_system.h ****   *         @arg @ref LL_RI_PIN_12
1371:Drivers/STM32L1xx_HAL_Driver/Inc/stm32l1xx_ll_system.h ****   *         @arg @ref LL_RI_PIN_13
1372:Drivers/STM32L1xx_HAL_Driver/Inc/stm32l1xx_ll_system.h ****   *         @arg @ref LL_RI_PIN_14
1373:Drivers/STM32L1xx_HAL_Driver/Inc/stm32l1xx_ll_system.h ****   *         @arg @ref LL_RI_PIN_15
1374:Drivers/STM32L1xx_HAL_Driver/Inc/stm32l1xx_ll_system.h ****   *         @arg @ref LL_RI_PIN_ALL
1375:Drivers/STM32L1xx_HAL_Driver/Inc/stm32l1xx_ll_system.h ****   * @retval None
1376:Drivers/STM32L1xx_HAL_Driver/Inc/stm32l1xx_ll_system.h ****   */
1377:Drivers/STM32L1xx_HAL_Driver/Inc/stm32l1xx_ll_system.h **** __STATIC_INLINE void LL_RI_EnableHysteresis(uint32_t Port, uint32_t Pin)
1378:Drivers/STM32L1xx_HAL_Driver/Inc/stm32l1xx_ll_system.h **** {
1379:Drivers/STM32L1xx_HAL_Driver/Inc/stm32l1xx_ll_system.h ****   __IO uint32_t *reg = (__IO uint32_t *)(uint32_t)((uint32_t)(&RI->HYSCR1) + (Port >> 1U));
1380:Drivers/STM32L1xx_HAL_Driver/Inc/stm32l1xx_ll_system.h ****   CLEAR_BIT(*reg, Pin << (16U * (Port & 1U)));
1381:Drivers/STM32L1xx_HAL_Driver/Inc/stm32l1xx_ll_system.h **** }
1382:Drivers/STM32L1xx_HAL_Driver/Inc/stm32l1xx_ll_system.h **** 
1383:Drivers/STM32L1xx_HAL_Driver/Inc/stm32l1xx_ll_system.h **** /**
1384:Drivers/STM32L1xx_HAL_Driver/Inc/stm32l1xx_ll_system.h ****   * @brief  Disable Hysteresis of the input schmitt trigger of the port X
1385:Drivers/STM32L1xx_HAL_Driver/Inc/stm32l1xx_ll_system.h ****   * @rmtoll RI_HYSCR1    PA            LL_RI_DisableHysteresis\n
1386:Drivers/STM32L1xx_HAL_Driver/Inc/stm32l1xx_ll_system.h ****   *         RI_HYSCR1    PB            LL_RI_DisableHysteresis\n
1387:Drivers/STM32L1xx_HAL_Driver/Inc/stm32l1xx_ll_system.h ****   *         RI_HYSCR1    PC            LL_RI_DisableHysteresis\n
1388:Drivers/STM32L1xx_HAL_Driver/Inc/stm32l1xx_ll_system.h ****   *         RI_HYSCR1    PD            LL_RI_DisableHysteresis\n
1389:Drivers/STM32L1xx_HAL_Driver/Inc/stm32l1xx_ll_system.h ****   *         RI_HYSCR1    PE            LL_RI_DisableHysteresis\n
1390:Drivers/STM32L1xx_HAL_Driver/Inc/stm32l1xx_ll_system.h ****   *         RI_HYSCR1    PF            LL_RI_DisableHysteresis\n
1391:Drivers/STM32L1xx_HAL_Driver/Inc/stm32l1xx_ll_system.h ****   *         RI_HYSCR1    PG            LL_RI_DisableHysteresis\n
1392:Drivers/STM32L1xx_HAL_Driver/Inc/stm32l1xx_ll_system.h ****   *         RI_HYSCR2    PA            LL_RI_DisableHysteresis\n
1393:Drivers/STM32L1xx_HAL_Driver/Inc/stm32l1xx_ll_system.h ****   *         RI_HYSCR2    PB            LL_RI_DisableHysteresis\n
1394:Drivers/STM32L1xx_HAL_Driver/Inc/stm32l1xx_ll_system.h ****   *         RI_HYSCR2    PC            LL_RI_DisableHysteresis\n
1395:Drivers/STM32L1xx_HAL_Driver/Inc/stm32l1xx_ll_system.h ****   *         RI_HYSCR2    PD            LL_RI_DisableHysteresis\n
1396:Drivers/STM32L1xx_HAL_Driver/Inc/stm32l1xx_ll_system.h ****   *         RI_HYSCR2    PE            LL_RI_DisableHysteresis\n
1397:Drivers/STM32L1xx_HAL_Driver/Inc/stm32l1xx_ll_system.h ****   *         RI_HYSCR2    PF            LL_RI_DisableHysteresis\n
1398:Drivers/STM32L1xx_HAL_Driver/Inc/stm32l1xx_ll_system.h ****   *         RI_HYSCR2    PG            LL_RI_DisableHysteresis\n
1399:Drivers/STM32L1xx_HAL_Driver/Inc/stm32l1xx_ll_system.h ****   *         RI_HYSCR3    PA            LL_RI_DisableHysteresis\n
1400:Drivers/STM32L1xx_HAL_Driver/Inc/stm32l1xx_ll_system.h ****   *         RI_HYSCR3    PB            LL_RI_DisableHysteresis\n
1401:Drivers/STM32L1xx_HAL_Driver/Inc/stm32l1xx_ll_system.h ****   *         RI_HYSCR3    PC            LL_RI_DisableHysteresis\n
1402:Drivers/STM32L1xx_HAL_Driver/Inc/stm32l1xx_ll_system.h ****   *         RI_HYSCR3    PD            LL_RI_DisableHysteresis\n
1403:Drivers/STM32L1xx_HAL_Driver/Inc/stm32l1xx_ll_system.h ****   *         RI_HYSCR3    PE            LL_RI_DisableHysteresis\n
1404:Drivers/STM32L1xx_HAL_Driver/Inc/stm32l1xx_ll_system.h ****   *         RI_HYSCR3    PF            LL_RI_DisableHysteresis\n
1405:Drivers/STM32L1xx_HAL_Driver/Inc/stm32l1xx_ll_system.h ****   *         RI_HYSCR3    PG            LL_RI_DisableHysteresis\n
1406:Drivers/STM32L1xx_HAL_Driver/Inc/stm32l1xx_ll_system.h ****   *         RI_HYSCR4    PA            LL_RI_DisableHysteresis\n
1407:Drivers/STM32L1xx_HAL_Driver/Inc/stm32l1xx_ll_system.h ****   *         RI_HYSCR4    PB            LL_RI_DisableHysteresis\n
ARM GAS  /tmp/ccCpqwiQ.s 			page 34


1408:Drivers/STM32L1xx_HAL_Driver/Inc/stm32l1xx_ll_system.h ****   *         RI_HYSCR4    PC            LL_RI_DisableHysteresis\n
1409:Drivers/STM32L1xx_HAL_Driver/Inc/stm32l1xx_ll_system.h ****   *         RI_HYSCR4    PD            LL_RI_DisableHysteresis\n
1410:Drivers/STM32L1xx_HAL_Driver/Inc/stm32l1xx_ll_system.h ****   *         RI_HYSCR4    PE            LL_RI_DisableHysteresis\n
1411:Drivers/STM32L1xx_HAL_Driver/Inc/stm32l1xx_ll_system.h ****   *         RI_HYSCR4    PF            LL_RI_DisableHysteresis\n
1412:Drivers/STM32L1xx_HAL_Driver/Inc/stm32l1xx_ll_system.h ****   *         RI_HYSCR4    PG            LL_RI_DisableHysteresis
1413:Drivers/STM32L1xx_HAL_Driver/Inc/stm32l1xx_ll_system.h ****   * @param  Port This parameter can be one of the following values:
1414:Drivers/STM32L1xx_HAL_Driver/Inc/stm32l1xx_ll_system.h ****   *         @arg @ref LL_RI_HSYTERESIS_PORT_A
1415:Drivers/STM32L1xx_HAL_Driver/Inc/stm32l1xx_ll_system.h ****   *         @arg @ref LL_RI_HSYTERESIS_PORT_B
1416:Drivers/STM32L1xx_HAL_Driver/Inc/stm32l1xx_ll_system.h ****   *         @arg @ref LL_RI_HSYTERESIS_PORT_C
1417:Drivers/STM32L1xx_HAL_Driver/Inc/stm32l1xx_ll_system.h ****   *         @arg @ref LL_RI_HSYTERESIS_PORT_D
1418:Drivers/STM32L1xx_HAL_Driver/Inc/stm32l1xx_ll_system.h ****   *         @arg @ref LL_RI_HSYTERESIS_PORT_E (*)
1419:Drivers/STM32L1xx_HAL_Driver/Inc/stm32l1xx_ll_system.h ****   *         @arg @ref LL_RI_HSYTERESIS_PORT_F (*)
1420:Drivers/STM32L1xx_HAL_Driver/Inc/stm32l1xx_ll_system.h ****   *         @arg @ref LL_RI_HSYTERESIS_PORT_G (*)
1421:Drivers/STM32L1xx_HAL_Driver/Inc/stm32l1xx_ll_system.h ****   *
1422:Drivers/STM32L1xx_HAL_Driver/Inc/stm32l1xx_ll_system.h ****   *         (*) value not defined in all devices.
1423:Drivers/STM32L1xx_HAL_Driver/Inc/stm32l1xx_ll_system.h ****   * @param  Pin This parameter can be a combination of the following values:
1424:Drivers/STM32L1xx_HAL_Driver/Inc/stm32l1xx_ll_system.h ****   *         @arg @ref LL_RI_PIN_0
1425:Drivers/STM32L1xx_HAL_Driver/Inc/stm32l1xx_ll_system.h ****   *         @arg @ref LL_RI_PIN_1
1426:Drivers/STM32L1xx_HAL_Driver/Inc/stm32l1xx_ll_system.h ****   *         @arg @ref LL_RI_PIN_2
1427:Drivers/STM32L1xx_HAL_Driver/Inc/stm32l1xx_ll_system.h ****   *         @arg @ref LL_RI_PIN_3
1428:Drivers/STM32L1xx_HAL_Driver/Inc/stm32l1xx_ll_system.h ****   *         @arg @ref LL_RI_PIN_4
1429:Drivers/STM32L1xx_HAL_Driver/Inc/stm32l1xx_ll_system.h ****   *         @arg @ref LL_RI_PIN_5
1430:Drivers/STM32L1xx_HAL_Driver/Inc/stm32l1xx_ll_system.h ****   *         @arg @ref LL_RI_PIN_6
1431:Drivers/STM32L1xx_HAL_Driver/Inc/stm32l1xx_ll_system.h ****   *         @arg @ref LL_RI_PIN_7
1432:Drivers/STM32L1xx_HAL_Driver/Inc/stm32l1xx_ll_system.h ****   *         @arg @ref LL_RI_PIN_8
1433:Drivers/STM32L1xx_HAL_Driver/Inc/stm32l1xx_ll_system.h ****   *         @arg @ref LL_RI_PIN_9
1434:Drivers/STM32L1xx_HAL_Driver/Inc/stm32l1xx_ll_system.h ****   *         @arg @ref LL_RI_PIN_10
1435:Drivers/STM32L1xx_HAL_Driver/Inc/stm32l1xx_ll_system.h ****   *         @arg @ref LL_RI_PIN_11
1436:Drivers/STM32L1xx_HAL_Driver/Inc/stm32l1xx_ll_system.h ****   *         @arg @ref LL_RI_PIN_12
1437:Drivers/STM32L1xx_HAL_Driver/Inc/stm32l1xx_ll_system.h ****   *         @arg @ref LL_RI_PIN_13
1438:Drivers/STM32L1xx_HAL_Driver/Inc/stm32l1xx_ll_system.h ****   *         @arg @ref LL_RI_PIN_14
1439:Drivers/STM32L1xx_HAL_Driver/Inc/stm32l1xx_ll_system.h ****   *         @arg @ref LL_RI_PIN_15
1440:Drivers/STM32L1xx_HAL_Driver/Inc/stm32l1xx_ll_system.h ****   *         @arg @ref LL_RI_PIN_ALL
1441:Drivers/STM32L1xx_HAL_Driver/Inc/stm32l1xx_ll_system.h ****   * @retval None
1442:Drivers/STM32L1xx_HAL_Driver/Inc/stm32l1xx_ll_system.h ****   */
1443:Drivers/STM32L1xx_HAL_Driver/Inc/stm32l1xx_ll_system.h **** __STATIC_INLINE void LL_RI_DisableHysteresis(uint32_t Port, uint32_t Pin)
1444:Drivers/STM32L1xx_HAL_Driver/Inc/stm32l1xx_ll_system.h **** {
1445:Drivers/STM32L1xx_HAL_Driver/Inc/stm32l1xx_ll_system.h ****   __IO uint32_t *reg = (__IO uint32_t *)(uint32_t)((uint32_t)(&RI->HYSCR1) + ((Port >> 1U) << 2U));
1446:Drivers/STM32L1xx_HAL_Driver/Inc/stm32l1xx_ll_system.h ****   SET_BIT(*reg, Pin << (16U * (Port & 1U)));
1447:Drivers/STM32L1xx_HAL_Driver/Inc/stm32l1xx_ll_system.h **** }
1448:Drivers/STM32L1xx_HAL_Driver/Inc/stm32l1xx_ll_system.h **** 
1449:Drivers/STM32L1xx_HAL_Driver/Inc/stm32l1xx_ll_system.h **** #if defined(RI_ASMR1_PA)
1450:Drivers/STM32L1xx_HAL_Driver/Inc/stm32l1xx_ll_system.h **** /**
1451:Drivers/STM32L1xx_HAL_Driver/Inc/stm32l1xx_ll_system.h ****   * @brief  Control analog switches of port X through the ADC interface or RI_ASCRx registers.
1452:Drivers/STM32L1xx_HAL_Driver/Inc/stm32l1xx_ll_system.h ****   * @rmtoll RI_ASMR1     PA            LL_RI_ControlSwitchByADC\n
1453:Drivers/STM32L1xx_HAL_Driver/Inc/stm32l1xx_ll_system.h ****   *         RI_ASMR1     PB            LL_RI_ControlSwitchByADC\n
1454:Drivers/STM32L1xx_HAL_Driver/Inc/stm32l1xx_ll_system.h ****   *         RI_ASMR1     PC            LL_RI_ControlSwitchByADC\n
1455:Drivers/STM32L1xx_HAL_Driver/Inc/stm32l1xx_ll_system.h ****   *         RI_ASMR1     PF            LL_RI_ControlSwitchByADC\n
1456:Drivers/STM32L1xx_HAL_Driver/Inc/stm32l1xx_ll_system.h ****   *         RI_ASMR1     PG            LL_RI_ControlSwitchByADC\n
1457:Drivers/STM32L1xx_HAL_Driver/Inc/stm32l1xx_ll_system.h ****   *         RI_ASMR2     PA            LL_RI_ControlSwitchByADC\n
1458:Drivers/STM32L1xx_HAL_Driver/Inc/stm32l1xx_ll_system.h ****   *         RI_ASMR2     PB            LL_RI_ControlSwitchByADC\n
1459:Drivers/STM32L1xx_HAL_Driver/Inc/stm32l1xx_ll_system.h ****   *         RI_ASMR2     PC            LL_RI_ControlSwitchByADC\n
1460:Drivers/STM32L1xx_HAL_Driver/Inc/stm32l1xx_ll_system.h ****   *         RI_ASMR2     PF            LL_RI_ControlSwitchByADC\n
1461:Drivers/STM32L1xx_HAL_Driver/Inc/stm32l1xx_ll_system.h ****   *         RI_ASMR2     PG            LL_RI_ControlSwitchByADC\n
1462:Drivers/STM32L1xx_HAL_Driver/Inc/stm32l1xx_ll_system.h ****   *         RI_ASMR3     PA            LL_RI_ControlSwitchByADC\n
1463:Drivers/STM32L1xx_HAL_Driver/Inc/stm32l1xx_ll_system.h ****   *         RI_ASMR3     PB            LL_RI_ControlSwitchByADC\n
1464:Drivers/STM32L1xx_HAL_Driver/Inc/stm32l1xx_ll_system.h ****   *         RI_ASMR3     PC            LL_RI_ControlSwitchByADC\n
ARM GAS  /tmp/ccCpqwiQ.s 			page 35


1465:Drivers/STM32L1xx_HAL_Driver/Inc/stm32l1xx_ll_system.h ****   *         RI_ASMR3     PF            LL_RI_ControlSwitchByADC\n
1466:Drivers/STM32L1xx_HAL_Driver/Inc/stm32l1xx_ll_system.h ****   *         RI_ASMR3     PG            LL_RI_ControlSwitchByADC\n
1467:Drivers/STM32L1xx_HAL_Driver/Inc/stm32l1xx_ll_system.h ****   *         RI_ASMR4     PA            LL_RI_ControlSwitchByADC\n
1468:Drivers/STM32L1xx_HAL_Driver/Inc/stm32l1xx_ll_system.h ****   *         RI_ASMR4     PB            LL_RI_ControlSwitchByADC\n
1469:Drivers/STM32L1xx_HAL_Driver/Inc/stm32l1xx_ll_system.h ****   *         RI_ASMR4     PC            LL_RI_ControlSwitchByADC\n
1470:Drivers/STM32L1xx_HAL_Driver/Inc/stm32l1xx_ll_system.h ****   *         RI_ASMR4     PF            LL_RI_ControlSwitchByADC\n
1471:Drivers/STM32L1xx_HAL_Driver/Inc/stm32l1xx_ll_system.h ****   *         RI_ASMR4     PG            LL_RI_ControlSwitchByADC\n
1472:Drivers/STM32L1xx_HAL_Driver/Inc/stm32l1xx_ll_system.h ****   *         RI_ASMR5     PA            LL_RI_ControlSwitchByADC\n
1473:Drivers/STM32L1xx_HAL_Driver/Inc/stm32l1xx_ll_system.h ****   *         RI_ASMR5     PB            LL_RI_ControlSwitchByADC\n
1474:Drivers/STM32L1xx_HAL_Driver/Inc/stm32l1xx_ll_system.h ****   *         RI_ASMR5     PC            LL_RI_ControlSwitchByADC\n
1475:Drivers/STM32L1xx_HAL_Driver/Inc/stm32l1xx_ll_system.h ****   *         RI_ASMR5     PF            LL_RI_ControlSwitchByADC\n
1476:Drivers/STM32L1xx_HAL_Driver/Inc/stm32l1xx_ll_system.h ****   *         RI_ASMR5     PG            LL_RI_ControlSwitchByADC
1477:Drivers/STM32L1xx_HAL_Driver/Inc/stm32l1xx_ll_system.h ****   * @param  Port This parameter can be one of the following values:
1478:Drivers/STM32L1xx_HAL_Driver/Inc/stm32l1xx_ll_system.h ****   *         @arg @ref LL_RI_PORT_A
1479:Drivers/STM32L1xx_HAL_Driver/Inc/stm32l1xx_ll_system.h ****   *         @arg @ref LL_RI_PORT_B
1480:Drivers/STM32L1xx_HAL_Driver/Inc/stm32l1xx_ll_system.h ****   *         @arg @ref LL_RI_PORT_C
1481:Drivers/STM32L1xx_HAL_Driver/Inc/stm32l1xx_ll_system.h ****   *         @arg @ref LL_RI_PORT_F (*)
1482:Drivers/STM32L1xx_HAL_Driver/Inc/stm32l1xx_ll_system.h ****   *         @arg @ref LL_RI_PORT_G (*)
1483:Drivers/STM32L1xx_HAL_Driver/Inc/stm32l1xx_ll_system.h ****   *
1484:Drivers/STM32L1xx_HAL_Driver/Inc/stm32l1xx_ll_system.h ****   *         (*) value not defined in all devices.
1485:Drivers/STM32L1xx_HAL_Driver/Inc/stm32l1xx_ll_system.h ****   * @param  Pin This parameter can be a combination of the following values:
1486:Drivers/STM32L1xx_HAL_Driver/Inc/stm32l1xx_ll_system.h ****   *         @arg @ref LL_RI_PIN_0
1487:Drivers/STM32L1xx_HAL_Driver/Inc/stm32l1xx_ll_system.h ****   *         @arg @ref LL_RI_PIN_1
1488:Drivers/STM32L1xx_HAL_Driver/Inc/stm32l1xx_ll_system.h ****   *         @arg @ref LL_RI_PIN_2
1489:Drivers/STM32L1xx_HAL_Driver/Inc/stm32l1xx_ll_system.h ****   *         @arg @ref LL_RI_PIN_3
1490:Drivers/STM32L1xx_HAL_Driver/Inc/stm32l1xx_ll_system.h ****   *         @arg @ref LL_RI_PIN_4
1491:Drivers/STM32L1xx_HAL_Driver/Inc/stm32l1xx_ll_system.h ****   *         @arg @ref LL_RI_PIN_5
1492:Drivers/STM32L1xx_HAL_Driver/Inc/stm32l1xx_ll_system.h ****   *         @arg @ref LL_RI_PIN_6
1493:Drivers/STM32L1xx_HAL_Driver/Inc/stm32l1xx_ll_system.h ****   *         @arg @ref LL_RI_PIN_7
1494:Drivers/STM32L1xx_HAL_Driver/Inc/stm32l1xx_ll_system.h ****   *         @arg @ref LL_RI_PIN_8
1495:Drivers/STM32L1xx_HAL_Driver/Inc/stm32l1xx_ll_system.h ****   *         @arg @ref LL_RI_PIN_9
1496:Drivers/STM32L1xx_HAL_Driver/Inc/stm32l1xx_ll_system.h ****   *         @arg @ref LL_RI_PIN_10
1497:Drivers/STM32L1xx_HAL_Driver/Inc/stm32l1xx_ll_system.h ****   *         @arg @ref LL_RI_PIN_11
1498:Drivers/STM32L1xx_HAL_Driver/Inc/stm32l1xx_ll_system.h ****   *         @arg @ref LL_RI_PIN_12
1499:Drivers/STM32L1xx_HAL_Driver/Inc/stm32l1xx_ll_system.h ****   *         @arg @ref LL_RI_PIN_13
1500:Drivers/STM32L1xx_HAL_Driver/Inc/stm32l1xx_ll_system.h ****   *         @arg @ref LL_RI_PIN_14
1501:Drivers/STM32L1xx_HAL_Driver/Inc/stm32l1xx_ll_system.h ****   *         @arg @ref LL_RI_PIN_15
1502:Drivers/STM32L1xx_HAL_Driver/Inc/stm32l1xx_ll_system.h ****   *         @arg @ref LL_RI_PIN_ALL
1503:Drivers/STM32L1xx_HAL_Driver/Inc/stm32l1xx_ll_system.h ****   * @retval None
1504:Drivers/STM32L1xx_HAL_Driver/Inc/stm32l1xx_ll_system.h ****   */
1505:Drivers/STM32L1xx_HAL_Driver/Inc/stm32l1xx_ll_system.h **** __STATIC_INLINE void LL_RI_ControlSwitchByADC(uint32_t Port, uint32_t Pin)
1506:Drivers/STM32L1xx_HAL_Driver/Inc/stm32l1xx_ll_system.h **** {
1507:Drivers/STM32L1xx_HAL_Driver/Inc/stm32l1xx_ll_system.h ****   __IO uint32_t *reg = (__IO uint32_t *)(uint32_t)((uint32_t)(&RI->ASMR1) + ((Port * 3U) << 2));
1508:Drivers/STM32L1xx_HAL_Driver/Inc/stm32l1xx_ll_system.h ****   CLEAR_BIT(*reg, Pin);
1509:Drivers/STM32L1xx_HAL_Driver/Inc/stm32l1xx_ll_system.h **** }
1510:Drivers/STM32L1xx_HAL_Driver/Inc/stm32l1xx_ll_system.h **** #endif /* RI_ASMR1_PA */
1511:Drivers/STM32L1xx_HAL_Driver/Inc/stm32l1xx_ll_system.h **** 
1512:Drivers/STM32L1xx_HAL_Driver/Inc/stm32l1xx_ll_system.h **** #if defined(RI_ASMR1_PA)
1513:Drivers/STM32L1xx_HAL_Driver/Inc/stm32l1xx_ll_system.h **** /**
1514:Drivers/STM32L1xx_HAL_Driver/Inc/stm32l1xx_ll_system.h ****   * @brief  Control analog switches of port X by the timer OC.
1515:Drivers/STM32L1xx_HAL_Driver/Inc/stm32l1xx_ll_system.h ****   * @rmtoll RI_ASMR1     PA            LL_RI_ControlSwitchByTIM\n
1516:Drivers/STM32L1xx_HAL_Driver/Inc/stm32l1xx_ll_system.h ****   *         RI_ASMR1     PB            LL_RI_ControlSwitchByTIM\n
1517:Drivers/STM32L1xx_HAL_Driver/Inc/stm32l1xx_ll_system.h ****   *         RI_ASMR1     PC            LL_RI_ControlSwitchByTIM\n
1518:Drivers/STM32L1xx_HAL_Driver/Inc/stm32l1xx_ll_system.h ****   *         RI_ASMR1     PF            LL_RI_ControlSwitchByTIM\n
1519:Drivers/STM32L1xx_HAL_Driver/Inc/stm32l1xx_ll_system.h ****   *         RI_ASMR1     PG            LL_RI_ControlSwitchByTIM\n
1520:Drivers/STM32L1xx_HAL_Driver/Inc/stm32l1xx_ll_system.h ****   *         RI_ASMR2     PA            LL_RI_ControlSwitchByTIM\n
1521:Drivers/STM32L1xx_HAL_Driver/Inc/stm32l1xx_ll_system.h ****   *         RI_ASMR2     PB            LL_RI_ControlSwitchByTIM\n
ARM GAS  /tmp/ccCpqwiQ.s 			page 36


1522:Drivers/STM32L1xx_HAL_Driver/Inc/stm32l1xx_ll_system.h ****   *         RI_ASMR2     PC            LL_RI_ControlSwitchByTIM\n
1523:Drivers/STM32L1xx_HAL_Driver/Inc/stm32l1xx_ll_system.h ****   *         RI_ASMR2     PF            LL_RI_ControlSwitchByTIM\n
1524:Drivers/STM32L1xx_HAL_Driver/Inc/stm32l1xx_ll_system.h ****   *         RI_ASMR2     PG            LL_RI_ControlSwitchByTIM\n
1525:Drivers/STM32L1xx_HAL_Driver/Inc/stm32l1xx_ll_system.h ****   *         RI_ASMR3     PA            LL_RI_ControlSwitchByTIM\n
1526:Drivers/STM32L1xx_HAL_Driver/Inc/stm32l1xx_ll_system.h ****   *         RI_ASMR3     PB            LL_RI_ControlSwitchByTIM\n
1527:Drivers/STM32L1xx_HAL_Driver/Inc/stm32l1xx_ll_system.h ****   *         RI_ASMR3     PC            LL_RI_ControlSwitchByTIM\n
1528:Drivers/STM32L1xx_HAL_Driver/Inc/stm32l1xx_ll_system.h ****   *         RI_ASMR3     PF            LL_RI_ControlSwitchByTIM\n
1529:Drivers/STM32L1xx_HAL_Driver/Inc/stm32l1xx_ll_system.h ****   *         RI_ASMR3     PG            LL_RI_ControlSwitchByTIM\n
1530:Drivers/STM32L1xx_HAL_Driver/Inc/stm32l1xx_ll_system.h ****   *         RI_ASMR4     PA            LL_RI_ControlSwitchByTIM\n
1531:Drivers/STM32L1xx_HAL_Driver/Inc/stm32l1xx_ll_system.h ****   *         RI_ASMR4     PB            LL_RI_ControlSwitchByTIM\n
1532:Drivers/STM32L1xx_HAL_Driver/Inc/stm32l1xx_ll_system.h ****   *         RI_ASMR4     PC            LL_RI_ControlSwitchByTIM\n
1533:Drivers/STM32L1xx_HAL_Driver/Inc/stm32l1xx_ll_system.h ****   *         RI_ASMR4     PF            LL_RI_ControlSwitchByTIM\n
1534:Drivers/STM32L1xx_HAL_Driver/Inc/stm32l1xx_ll_system.h ****   *         RI_ASMR4     PG            LL_RI_ControlSwitchByTIM\n
1535:Drivers/STM32L1xx_HAL_Driver/Inc/stm32l1xx_ll_system.h ****   *         RI_ASMR5     PA            LL_RI_ControlSwitchByTIM\n
1536:Drivers/STM32L1xx_HAL_Driver/Inc/stm32l1xx_ll_system.h ****   *         RI_ASMR5     PB            LL_RI_ControlSwitchByTIM\n
1537:Drivers/STM32L1xx_HAL_Driver/Inc/stm32l1xx_ll_system.h ****   *         RI_ASMR5     PC            LL_RI_ControlSwitchByTIM\n
1538:Drivers/STM32L1xx_HAL_Driver/Inc/stm32l1xx_ll_system.h ****   *         RI_ASMR5     PF            LL_RI_ControlSwitchByTIM\n
1539:Drivers/STM32L1xx_HAL_Driver/Inc/stm32l1xx_ll_system.h ****   *         RI_ASMR5     PG            LL_RI_ControlSwitchByTIM
1540:Drivers/STM32L1xx_HAL_Driver/Inc/stm32l1xx_ll_system.h ****   * @param  Port This parameter can be one of the following values:
1541:Drivers/STM32L1xx_HAL_Driver/Inc/stm32l1xx_ll_system.h ****   *         @arg @ref LL_RI_PORT_A
1542:Drivers/STM32L1xx_HAL_Driver/Inc/stm32l1xx_ll_system.h ****   *         @arg @ref LL_RI_PORT_B
1543:Drivers/STM32L1xx_HAL_Driver/Inc/stm32l1xx_ll_system.h ****   *         @arg @ref LL_RI_PORT_C
1544:Drivers/STM32L1xx_HAL_Driver/Inc/stm32l1xx_ll_system.h ****   *         @arg @ref LL_RI_PORT_F (*)
1545:Drivers/STM32L1xx_HAL_Driver/Inc/stm32l1xx_ll_system.h ****   *         @arg @ref LL_RI_PORT_G (*)
1546:Drivers/STM32L1xx_HAL_Driver/Inc/stm32l1xx_ll_system.h ****   *
1547:Drivers/STM32L1xx_HAL_Driver/Inc/stm32l1xx_ll_system.h ****   *         (*) value not defined in all devices.
1548:Drivers/STM32L1xx_HAL_Driver/Inc/stm32l1xx_ll_system.h ****   * @param  Pin This parameter can be a combination of the following values:
1549:Drivers/STM32L1xx_HAL_Driver/Inc/stm32l1xx_ll_system.h ****   *         @arg @ref LL_RI_PIN_0
1550:Drivers/STM32L1xx_HAL_Driver/Inc/stm32l1xx_ll_system.h ****   *         @arg @ref LL_RI_PIN_1
1551:Drivers/STM32L1xx_HAL_Driver/Inc/stm32l1xx_ll_system.h ****   *         @arg @ref LL_RI_PIN_2
1552:Drivers/STM32L1xx_HAL_Driver/Inc/stm32l1xx_ll_system.h ****   *         @arg @ref LL_RI_PIN_3
1553:Drivers/STM32L1xx_HAL_Driver/Inc/stm32l1xx_ll_system.h ****   *         @arg @ref LL_RI_PIN_4
1554:Drivers/STM32L1xx_HAL_Driver/Inc/stm32l1xx_ll_system.h ****   *         @arg @ref LL_RI_PIN_5
1555:Drivers/STM32L1xx_HAL_Driver/Inc/stm32l1xx_ll_system.h ****   *         @arg @ref LL_RI_PIN_6
1556:Drivers/STM32L1xx_HAL_Driver/Inc/stm32l1xx_ll_system.h ****   *         @arg @ref LL_RI_PIN_7
1557:Drivers/STM32L1xx_HAL_Driver/Inc/stm32l1xx_ll_system.h ****   *         @arg @ref LL_RI_PIN_8
1558:Drivers/STM32L1xx_HAL_Driver/Inc/stm32l1xx_ll_system.h ****   *         @arg @ref LL_RI_PIN_9
1559:Drivers/STM32L1xx_HAL_Driver/Inc/stm32l1xx_ll_system.h ****   *         @arg @ref LL_RI_PIN_10
1560:Drivers/STM32L1xx_HAL_Driver/Inc/stm32l1xx_ll_system.h ****   *         @arg @ref LL_RI_PIN_11
1561:Drivers/STM32L1xx_HAL_Driver/Inc/stm32l1xx_ll_system.h ****   *         @arg @ref LL_RI_PIN_12
1562:Drivers/STM32L1xx_HAL_Driver/Inc/stm32l1xx_ll_system.h ****   *         @arg @ref LL_RI_PIN_13
1563:Drivers/STM32L1xx_HAL_Driver/Inc/stm32l1xx_ll_system.h ****   *         @arg @ref LL_RI_PIN_14
1564:Drivers/STM32L1xx_HAL_Driver/Inc/stm32l1xx_ll_system.h ****   *         @arg @ref LL_RI_PIN_15
1565:Drivers/STM32L1xx_HAL_Driver/Inc/stm32l1xx_ll_system.h ****   *         @arg @ref LL_RI_PIN_ALL
1566:Drivers/STM32L1xx_HAL_Driver/Inc/stm32l1xx_ll_system.h ****   * @retval None
1567:Drivers/STM32L1xx_HAL_Driver/Inc/stm32l1xx_ll_system.h ****   */
1568:Drivers/STM32L1xx_HAL_Driver/Inc/stm32l1xx_ll_system.h **** __STATIC_INLINE void LL_RI_ControlSwitchByTIM(uint32_t Port, uint32_t Pin)
1569:Drivers/STM32L1xx_HAL_Driver/Inc/stm32l1xx_ll_system.h **** {
1570:Drivers/STM32L1xx_HAL_Driver/Inc/stm32l1xx_ll_system.h ****   __IO uint32_t *reg = (__IO uint32_t *)(uint32_t)((uint32_t)(&RI->ASMR1) + ((Port * 3U) << 2));
1571:Drivers/STM32L1xx_HAL_Driver/Inc/stm32l1xx_ll_system.h ****   SET_BIT(*reg, Pin);
1572:Drivers/STM32L1xx_HAL_Driver/Inc/stm32l1xx_ll_system.h **** }
1573:Drivers/STM32L1xx_HAL_Driver/Inc/stm32l1xx_ll_system.h **** #endif /* RI_ASMR1_PA */
1574:Drivers/STM32L1xx_HAL_Driver/Inc/stm32l1xx_ll_system.h **** 
1575:Drivers/STM32L1xx_HAL_Driver/Inc/stm32l1xx_ll_system.h **** #if defined(RI_CMR1_PA)
1576:Drivers/STM32L1xx_HAL_Driver/Inc/stm32l1xx_ll_system.h **** /**
1577:Drivers/STM32L1xx_HAL_Driver/Inc/stm32l1xx_ll_system.h ****   * @brief  Mask the input of port X during the capacitive sensing acquisition.
1578:Drivers/STM32L1xx_HAL_Driver/Inc/stm32l1xx_ll_system.h ****   * @rmtoll RI_CMR1      PA            LL_RI_MaskChannelDuringAcquisition\n
ARM GAS  /tmp/ccCpqwiQ.s 			page 37


1579:Drivers/STM32L1xx_HAL_Driver/Inc/stm32l1xx_ll_system.h ****   *         RI_CMR1      PB            LL_RI_MaskChannelDuringAcquisition\n
1580:Drivers/STM32L1xx_HAL_Driver/Inc/stm32l1xx_ll_system.h ****   *         RI_CMR1      PC            LL_RI_MaskChannelDuringAcquisition\n
1581:Drivers/STM32L1xx_HAL_Driver/Inc/stm32l1xx_ll_system.h ****   *         RI_CMR1      PF            LL_RI_MaskChannelDuringAcquisition\n
1582:Drivers/STM32L1xx_HAL_Driver/Inc/stm32l1xx_ll_system.h ****   *         RI_CMR1      PG            LL_RI_MaskChannelDuringAcquisition\n
1583:Drivers/STM32L1xx_HAL_Driver/Inc/stm32l1xx_ll_system.h ****   *         RI_CMR2      PA            LL_RI_MaskChannelDuringAcquisition\n
1584:Drivers/STM32L1xx_HAL_Driver/Inc/stm32l1xx_ll_system.h ****   *         RI_CMR2      PB            LL_RI_MaskChannelDuringAcquisition\n
1585:Drivers/STM32L1xx_HAL_Driver/Inc/stm32l1xx_ll_system.h ****   *         RI_CMR2      PC            LL_RI_MaskChannelDuringAcquisition\n
1586:Drivers/STM32L1xx_HAL_Driver/Inc/stm32l1xx_ll_system.h ****   *         RI_CMR2      PF            LL_RI_MaskChannelDuringAcquisition\n
1587:Drivers/STM32L1xx_HAL_Driver/Inc/stm32l1xx_ll_system.h ****   *         RI_CMR2      PG            LL_RI_MaskChannelDuringAcquisition\n
1588:Drivers/STM32L1xx_HAL_Driver/Inc/stm32l1xx_ll_system.h ****   *         RI_CMR3      PA            LL_RI_MaskChannelDuringAcquisition\n
1589:Drivers/STM32L1xx_HAL_Driver/Inc/stm32l1xx_ll_system.h ****   *         RI_CMR3      PB            LL_RI_MaskChannelDuringAcquisition\n
1590:Drivers/STM32L1xx_HAL_Driver/Inc/stm32l1xx_ll_system.h ****   *         RI_CMR3      PC            LL_RI_MaskChannelDuringAcquisition\n
1591:Drivers/STM32L1xx_HAL_Driver/Inc/stm32l1xx_ll_system.h ****   *         RI_CMR3      PF            LL_RI_MaskChannelDuringAcquisition\n
1592:Drivers/STM32L1xx_HAL_Driver/Inc/stm32l1xx_ll_system.h ****   *         RI_CMR3      PG            LL_RI_MaskChannelDuringAcquisition\n
1593:Drivers/STM32L1xx_HAL_Driver/Inc/stm32l1xx_ll_system.h ****   *         RI_CMR4      PA            LL_RI_MaskChannelDuringAcquisition\n
1594:Drivers/STM32L1xx_HAL_Driver/Inc/stm32l1xx_ll_system.h ****   *         RI_CMR4      PB            LL_RI_MaskChannelDuringAcquisition\n
1595:Drivers/STM32L1xx_HAL_Driver/Inc/stm32l1xx_ll_system.h ****   *         RI_CMR4      PC            LL_RI_MaskChannelDuringAcquisition\n
1596:Drivers/STM32L1xx_HAL_Driver/Inc/stm32l1xx_ll_system.h ****   *         RI_CMR4      PF            LL_RI_MaskChannelDuringAcquisition\n
1597:Drivers/STM32L1xx_HAL_Driver/Inc/stm32l1xx_ll_system.h ****   *         RI_CMR4      PG            LL_RI_MaskChannelDuringAcquisition\n
1598:Drivers/STM32L1xx_HAL_Driver/Inc/stm32l1xx_ll_system.h ****   *         RI_CMR5      PA            LL_RI_MaskChannelDuringAcquisition\n
1599:Drivers/STM32L1xx_HAL_Driver/Inc/stm32l1xx_ll_system.h ****   *         RI_CMR5      PB            LL_RI_MaskChannelDuringAcquisition\n
1600:Drivers/STM32L1xx_HAL_Driver/Inc/stm32l1xx_ll_system.h ****   *         RI_CMR5      PC            LL_RI_MaskChannelDuringAcquisition\n
1601:Drivers/STM32L1xx_HAL_Driver/Inc/stm32l1xx_ll_system.h ****   *         RI_CMR5      PF            LL_RI_MaskChannelDuringAcquisition\n
1602:Drivers/STM32L1xx_HAL_Driver/Inc/stm32l1xx_ll_system.h ****   *         RI_CMR5      PG            LL_RI_MaskChannelDuringAcquisition
1603:Drivers/STM32L1xx_HAL_Driver/Inc/stm32l1xx_ll_system.h ****   * @param  Port This parameter can be one of the following values:
1604:Drivers/STM32L1xx_HAL_Driver/Inc/stm32l1xx_ll_system.h ****   *         @arg @ref LL_RI_PORT_A
1605:Drivers/STM32L1xx_HAL_Driver/Inc/stm32l1xx_ll_system.h ****   *         @arg @ref LL_RI_PORT_B
1606:Drivers/STM32L1xx_HAL_Driver/Inc/stm32l1xx_ll_system.h ****   *         @arg @ref LL_RI_PORT_C
1607:Drivers/STM32L1xx_HAL_Driver/Inc/stm32l1xx_ll_system.h ****   *         @arg @ref LL_RI_PORT_F (*)
1608:Drivers/STM32L1xx_HAL_Driver/Inc/stm32l1xx_ll_system.h ****   *         @arg @ref LL_RI_PORT_G (*)
1609:Drivers/STM32L1xx_HAL_Driver/Inc/stm32l1xx_ll_system.h ****   *
1610:Drivers/STM32L1xx_HAL_Driver/Inc/stm32l1xx_ll_system.h ****   *         (*) value not defined in all devices.
1611:Drivers/STM32L1xx_HAL_Driver/Inc/stm32l1xx_ll_system.h ****   * @param  Pin This parameter can be a combination of the following values:
1612:Drivers/STM32L1xx_HAL_Driver/Inc/stm32l1xx_ll_system.h ****   *         @arg @ref LL_RI_PIN_0
1613:Drivers/STM32L1xx_HAL_Driver/Inc/stm32l1xx_ll_system.h ****   *         @arg @ref LL_RI_PIN_1
1614:Drivers/STM32L1xx_HAL_Driver/Inc/stm32l1xx_ll_system.h ****   *         @arg @ref LL_RI_PIN_2
1615:Drivers/STM32L1xx_HAL_Driver/Inc/stm32l1xx_ll_system.h ****   *         @arg @ref LL_RI_PIN_3
1616:Drivers/STM32L1xx_HAL_Driver/Inc/stm32l1xx_ll_system.h ****   *         @arg @ref LL_RI_PIN_4
1617:Drivers/STM32L1xx_HAL_Driver/Inc/stm32l1xx_ll_system.h ****   *         @arg @ref LL_RI_PIN_5
1618:Drivers/STM32L1xx_HAL_Driver/Inc/stm32l1xx_ll_system.h ****   *         @arg @ref LL_RI_PIN_6
1619:Drivers/STM32L1xx_HAL_Driver/Inc/stm32l1xx_ll_system.h ****   *         @arg @ref LL_RI_PIN_7
1620:Drivers/STM32L1xx_HAL_Driver/Inc/stm32l1xx_ll_system.h ****   *         @arg @ref LL_RI_PIN_8
1621:Drivers/STM32L1xx_HAL_Driver/Inc/stm32l1xx_ll_system.h ****   *         @arg @ref LL_RI_PIN_9
1622:Drivers/STM32L1xx_HAL_Driver/Inc/stm32l1xx_ll_system.h ****   *         @arg @ref LL_RI_PIN_10
1623:Drivers/STM32L1xx_HAL_Driver/Inc/stm32l1xx_ll_system.h ****   *         @arg @ref LL_RI_PIN_11
1624:Drivers/STM32L1xx_HAL_Driver/Inc/stm32l1xx_ll_system.h ****   *         @arg @ref LL_RI_PIN_12
1625:Drivers/STM32L1xx_HAL_Driver/Inc/stm32l1xx_ll_system.h ****   *         @arg @ref LL_RI_PIN_13
1626:Drivers/STM32L1xx_HAL_Driver/Inc/stm32l1xx_ll_system.h ****   *         @arg @ref LL_RI_PIN_14
1627:Drivers/STM32L1xx_HAL_Driver/Inc/stm32l1xx_ll_system.h ****   *         @arg @ref LL_RI_PIN_15
1628:Drivers/STM32L1xx_HAL_Driver/Inc/stm32l1xx_ll_system.h ****   *         @arg @ref LL_RI_PIN_ALL
1629:Drivers/STM32L1xx_HAL_Driver/Inc/stm32l1xx_ll_system.h ****   * @retval None
1630:Drivers/STM32L1xx_HAL_Driver/Inc/stm32l1xx_ll_system.h ****   */
1631:Drivers/STM32L1xx_HAL_Driver/Inc/stm32l1xx_ll_system.h **** __STATIC_INLINE void LL_RI_MaskChannelDuringAcquisition(uint32_t Port, uint32_t Pin)
1632:Drivers/STM32L1xx_HAL_Driver/Inc/stm32l1xx_ll_system.h **** {
1633:Drivers/STM32L1xx_HAL_Driver/Inc/stm32l1xx_ll_system.h ****   __IO uint32_t *reg = (__IO uint32_t *)(uint32_t)((uint32_t)(&RI->CMR1) + ((Port * 3U) << 2));
1634:Drivers/STM32L1xx_HAL_Driver/Inc/stm32l1xx_ll_system.h ****   CLEAR_BIT(*reg, Pin);
1635:Drivers/STM32L1xx_HAL_Driver/Inc/stm32l1xx_ll_system.h **** }
ARM GAS  /tmp/ccCpqwiQ.s 			page 38


1636:Drivers/STM32L1xx_HAL_Driver/Inc/stm32l1xx_ll_system.h **** #endif /* RI_CMR1_PA */
1637:Drivers/STM32L1xx_HAL_Driver/Inc/stm32l1xx_ll_system.h **** 
1638:Drivers/STM32L1xx_HAL_Driver/Inc/stm32l1xx_ll_system.h **** #if defined(RI_CMR1_PA)
1639:Drivers/STM32L1xx_HAL_Driver/Inc/stm32l1xx_ll_system.h **** /**
1640:Drivers/STM32L1xx_HAL_Driver/Inc/stm32l1xx_ll_system.h ****   * @brief  Unmask the input of port X during the capacitive sensing acquisition.
1641:Drivers/STM32L1xx_HAL_Driver/Inc/stm32l1xx_ll_system.h ****   * @rmtoll RI_CMR1      PA            LL_RI_UnmaskChannelDuringAcquisition\n
1642:Drivers/STM32L1xx_HAL_Driver/Inc/stm32l1xx_ll_system.h ****   *         RI_CMR1      PB            LL_RI_UnmaskChannelDuringAcquisition\n
1643:Drivers/STM32L1xx_HAL_Driver/Inc/stm32l1xx_ll_system.h ****   *         RI_CMR1      PC            LL_RI_UnmaskChannelDuringAcquisition\n
1644:Drivers/STM32L1xx_HAL_Driver/Inc/stm32l1xx_ll_system.h ****   *         RI_CMR1      PF            LL_RI_UnmaskChannelDuringAcquisition\n
1645:Drivers/STM32L1xx_HAL_Driver/Inc/stm32l1xx_ll_system.h ****   *         RI_CMR1      PG            LL_RI_UnmaskChannelDuringAcquisition\n
1646:Drivers/STM32L1xx_HAL_Driver/Inc/stm32l1xx_ll_system.h ****   *         RI_CMR2      PA            LL_RI_UnmaskChannelDuringAcquisition\n
1647:Drivers/STM32L1xx_HAL_Driver/Inc/stm32l1xx_ll_system.h ****   *         RI_CMR2      PB            LL_RI_UnmaskChannelDuringAcquisition\n
1648:Drivers/STM32L1xx_HAL_Driver/Inc/stm32l1xx_ll_system.h ****   *         RI_CMR2      PC            LL_RI_UnmaskChannelDuringAcquisition\n
1649:Drivers/STM32L1xx_HAL_Driver/Inc/stm32l1xx_ll_system.h ****   *         RI_CMR2      PF            LL_RI_UnmaskChannelDuringAcquisition\n
1650:Drivers/STM32L1xx_HAL_Driver/Inc/stm32l1xx_ll_system.h ****   *         RI_CMR2      PG            LL_RI_UnmaskChannelDuringAcquisition\n
1651:Drivers/STM32L1xx_HAL_Driver/Inc/stm32l1xx_ll_system.h ****   *         RI_CMR3      PA            LL_RI_UnmaskChannelDuringAcquisition\n
1652:Drivers/STM32L1xx_HAL_Driver/Inc/stm32l1xx_ll_system.h ****   *         RI_CMR3      PB            LL_RI_UnmaskChannelDuringAcquisition\n
1653:Drivers/STM32L1xx_HAL_Driver/Inc/stm32l1xx_ll_system.h ****   *         RI_CMR3      PC            LL_RI_UnmaskChannelDuringAcquisition\n
1654:Drivers/STM32L1xx_HAL_Driver/Inc/stm32l1xx_ll_system.h ****   *         RI_CMR3      PF            LL_RI_UnmaskChannelDuringAcquisition\n
1655:Drivers/STM32L1xx_HAL_Driver/Inc/stm32l1xx_ll_system.h ****   *         RI_CMR3      PG            LL_RI_UnmaskChannelDuringAcquisition\n
1656:Drivers/STM32L1xx_HAL_Driver/Inc/stm32l1xx_ll_system.h ****   *         RI_CMR4      PA            LL_RI_UnmaskChannelDuringAcquisition\n
1657:Drivers/STM32L1xx_HAL_Driver/Inc/stm32l1xx_ll_system.h ****   *         RI_CMR4      PB            LL_RI_UnmaskChannelDuringAcquisition\n
1658:Drivers/STM32L1xx_HAL_Driver/Inc/stm32l1xx_ll_system.h ****   *         RI_CMR4      PC            LL_RI_UnmaskChannelDuringAcquisition\n
1659:Drivers/STM32L1xx_HAL_Driver/Inc/stm32l1xx_ll_system.h ****   *         RI_CMR4      PF            LL_RI_UnmaskChannelDuringAcquisition\n
1660:Drivers/STM32L1xx_HAL_Driver/Inc/stm32l1xx_ll_system.h ****   *         RI_CMR4      PG            LL_RI_UnmaskChannelDuringAcquisition\n
1661:Drivers/STM32L1xx_HAL_Driver/Inc/stm32l1xx_ll_system.h ****   *         RI_CMR5      PA            LL_RI_UnmaskChannelDuringAcquisition\n
1662:Drivers/STM32L1xx_HAL_Driver/Inc/stm32l1xx_ll_system.h ****   *         RI_CMR5      PB            LL_RI_UnmaskChannelDuringAcquisition\n
1663:Drivers/STM32L1xx_HAL_Driver/Inc/stm32l1xx_ll_system.h ****   *         RI_CMR5      PC            LL_RI_UnmaskChannelDuringAcquisition\n
1664:Drivers/STM32L1xx_HAL_Driver/Inc/stm32l1xx_ll_system.h ****   *         RI_CMR5      PF            LL_RI_UnmaskChannelDuringAcquisition\n
1665:Drivers/STM32L1xx_HAL_Driver/Inc/stm32l1xx_ll_system.h ****   *         RI_CMR5      PG            LL_RI_UnmaskChannelDuringAcquisition
1666:Drivers/STM32L1xx_HAL_Driver/Inc/stm32l1xx_ll_system.h ****   * @param  Port This parameter can be one of the following values:
1667:Drivers/STM32L1xx_HAL_Driver/Inc/stm32l1xx_ll_system.h ****   *         @arg @ref LL_RI_PORT_A
1668:Drivers/STM32L1xx_HAL_Driver/Inc/stm32l1xx_ll_system.h ****   *         @arg @ref LL_RI_PORT_B
1669:Drivers/STM32L1xx_HAL_Driver/Inc/stm32l1xx_ll_system.h ****   *         @arg @ref LL_RI_PORT_C
1670:Drivers/STM32L1xx_HAL_Driver/Inc/stm32l1xx_ll_system.h ****   *         @arg @ref LL_RI_PORT_F (*)
1671:Drivers/STM32L1xx_HAL_Driver/Inc/stm32l1xx_ll_system.h ****   *         @arg @ref LL_RI_PORT_G (*)
1672:Drivers/STM32L1xx_HAL_Driver/Inc/stm32l1xx_ll_system.h ****   *
1673:Drivers/STM32L1xx_HAL_Driver/Inc/stm32l1xx_ll_system.h ****   *         (*) value not defined in all devices.
1674:Drivers/STM32L1xx_HAL_Driver/Inc/stm32l1xx_ll_system.h ****   * @param  Pin This parameter can be a combination of the following values:
1675:Drivers/STM32L1xx_HAL_Driver/Inc/stm32l1xx_ll_system.h ****   *         @arg @ref LL_RI_PIN_0
1676:Drivers/STM32L1xx_HAL_Driver/Inc/stm32l1xx_ll_system.h ****   *         @arg @ref LL_RI_PIN_1
1677:Drivers/STM32L1xx_HAL_Driver/Inc/stm32l1xx_ll_system.h ****   *         @arg @ref LL_RI_PIN_2
1678:Drivers/STM32L1xx_HAL_Driver/Inc/stm32l1xx_ll_system.h ****   *         @arg @ref LL_RI_PIN_3
1679:Drivers/STM32L1xx_HAL_Driver/Inc/stm32l1xx_ll_system.h ****   *         @arg @ref LL_RI_PIN_4
1680:Drivers/STM32L1xx_HAL_Driver/Inc/stm32l1xx_ll_system.h ****   *         @arg @ref LL_RI_PIN_5
1681:Drivers/STM32L1xx_HAL_Driver/Inc/stm32l1xx_ll_system.h ****   *         @arg @ref LL_RI_PIN_6
1682:Drivers/STM32L1xx_HAL_Driver/Inc/stm32l1xx_ll_system.h ****   *         @arg @ref LL_RI_PIN_7
1683:Drivers/STM32L1xx_HAL_Driver/Inc/stm32l1xx_ll_system.h ****   *         @arg @ref LL_RI_PIN_8
1684:Drivers/STM32L1xx_HAL_Driver/Inc/stm32l1xx_ll_system.h ****   *         @arg @ref LL_RI_PIN_9
1685:Drivers/STM32L1xx_HAL_Driver/Inc/stm32l1xx_ll_system.h ****   *         @arg @ref LL_RI_PIN_10
1686:Drivers/STM32L1xx_HAL_Driver/Inc/stm32l1xx_ll_system.h ****   *         @arg @ref LL_RI_PIN_11
1687:Drivers/STM32L1xx_HAL_Driver/Inc/stm32l1xx_ll_system.h ****   *         @arg @ref LL_RI_PIN_12
1688:Drivers/STM32L1xx_HAL_Driver/Inc/stm32l1xx_ll_system.h ****   *         @arg @ref LL_RI_PIN_13
1689:Drivers/STM32L1xx_HAL_Driver/Inc/stm32l1xx_ll_system.h ****   *         @arg @ref LL_RI_PIN_14
1690:Drivers/STM32L1xx_HAL_Driver/Inc/stm32l1xx_ll_system.h ****   *         @arg @ref LL_RI_PIN_15
1691:Drivers/STM32L1xx_HAL_Driver/Inc/stm32l1xx_ll_system.h ****   *         @arg @ref LL_RI_PIN_ALL
1692:Drivers/STM32L1xx_HAL_Driver/Inc/stm32l1xx_ll_system.h ****   * @retval None
ARM GAS  /tmp/ccCpqwiQ.s 			page 39


1693:Drivers/STM32L1xx_HAL_Driver/Inc/stm32l1xx_ll_system.h ****   */
1694:Drivers/STM32L1xx_HAL_Driver/Inc/stm32l1xx_ll_system.h **** __STATIC_INLINE void LL_RI_UnmaskChannelDuringAcquisition(uint32_t Port, uint32_t Pin)
1695:Drivers/STM32L1xx_HAL_Driver/Inc/stm32l1xx_ll_system.h **** {
1696:Drivers/STM32L1xx_HAL_Driver/Inc/stm32l1xx_ll_system.h ****   __IO uint32_t *reg = (__IO uint32_t *)(uint32_t)((uint32_t)(&RI->CMR1) + ((Port * 3U) << 2));
1697:Drivers/STM32L1xx_HAL_Driver/Inc/stm32l1xx_ll_system.h ****   SET_BIT(*reg, Pin);
1698:Drivers/STM32L1xx_HAL_Driver/Inc/stm32l1xx_ll_system.h **** }
1699:Drivers/STM32L1xx_HAL_Driver/Inc/stm32l1xx_ll_system.h **** #endif /* RI_CMR1_PA */
1700:Drivers/STM32L1xx_HAL_Driver/Inc/stm32l1xx_ll_system.h **** 
1701:Drivers/STM32L1xx_HAL_Driver/Inc/stm32l1xx_ll_system.h **** #if defined(RI_CICR1_PA)
1702:Drivers/STM32L1xx_HAL_Driver/Inc/stm32l1xx_ll_system.h **** /**
1703:Drivers/STM32L1xx_HAL_Driver/Inc/stm32l1xx_ll_system.h ****   * @brief  Identify channel for timer input capture
1704:Drivers/STM32L1xx_HAL_Driver/Inc/stm32l1xx_ll_system.h ****   * @rmtoll RI_CICR1     PA            LL_RI_IdentifyChannelIO\n
1705:Drivers/STM32L1xx_HAL_Driver/Inc/stm32l1xx_ll_system.h ****   *         RI_CICR1     PB            LL_RI_IdentifyChannelIO\n
1706:Drivers/STM32L1xx_HAL_Driver/Inc/stm32l1xx_ll_system.h ****   *         RI_CICR1     PC            LL_RI_IdentifyChannelIO\n
1707:Drivers/STM32L1xx_HAL_Driver/Inc/stm32l1xx_ll_system.h ****   *         RI_CICR1     PF            LL_RI_IdentifyChannelIO\n
1708:Drivers/STM32L1xx_HAL_Driver/Inc/stm32l1xx_ll_system.h ****   *         RI_CICR1     PG            LL_RI_IdentifyChannelIO\n
1709:Drivers/STM32L1xx_HAL_Driver/Inc/stm32l1xx_ll_system.h ****   *         RI_CICR2     PA            LL_RI_IdentifyChannelIO\n
1710:Drivers/STM32L1xx_HAL_Driver/Inc/stm32l1xx_ll_system.h ****   *         RI_CICR2     PB            LL_RI_IdentifyChannelIO\n
1711:Drivers/STM32L1xx_HAL_Driver/Inc/stm32l1xx_ll_system.h ****   *         RI_CICR2     PC            LL_RI_IdentifyChannelIO\n
1712:Drivers/STM32L1xx_HAL_Driver/Inc/stm32l1xx_ll_system.h ****   *         RI_CICR2     PF            LL_RI_IdentifyChannelIO\n
1713:Drivers/STM32L1xx_HAL_Driver/Inc/stm32l1xx_ll_system.h ****   *         RI_CICR2     PG            LL_RI_IdentifyChannelIO\n
1714:Drivers/STM32L1xx_HAL_Driver/Inc/stm32l1xx_ll_system.h ****   *         RI_CICR3     PA            LL_RI_IdentifyChannelIO\n
1715:Drivers/STM32L1xx_HAL_Driver/Inc/stm32l1xx_ll_system.h ****   *         RI_CICR3     PB            LL_RI_IdentifyChannelIO\n
1716:Drivers/STM32L1xx_HAL_Driver/Inc/stm32l1xx_ll_system.h ****   *         RI_CICR3     PC            LL_RI_IdentifyChannelIO\n
1717:Drivers/STM32L1xx_HAL_Driver/Inc/stm32l1xx_ll_system.h ****   *         RI_CICR3     PF            LL_RI_IdentifyChannelIO\n
1718:Drivers/STM32L1xx_HAL_Driver/Inc/stm32l1xx_ll_system.h ****   *         RI_CICR3     PG            LL_RI_IdentifyChannelIO\n
1719:Drivers/STM32L1xx_HAL_Driver/Inc/stm32l1xx_ll_system.h ****   *         RI_CICR4     PA            LL_RI_IdentifyChannelIO\n
1720:Drivers/STM32L1xx_HAL_Driver/Inc/stm32l1xx_ll_system.h ****   *         RI_CICR4     PB            LL_RI_IdentifyChannelIO\n
1721:Drivers/STM32L1xx_HAL_Driver/Inc/stm32l1xx_ll_system.h ****   *         RI_CICR4     PC            LL_RI_IdentifyChannelIO\n
1722:Drivers/STM32L1xx_HAL_Driver/Inc/stm32l1xx_ll_system.h ****   *         RI_CICR4     PF            LL_RI_IdentifyChannelIO\n
1723:Drivers/STM32L1xx_HAL_Driver/Inc/stm32l1xx_ll_system.h ****   *         RI_CICR4     PG            LL_RI_IdentifyChannelIO\n
1724:Drivers/STM32L1xx_HAL_Driver/Inc/stm32l1xx_ll_system.h ****   *         RI_CICR5     PA            LL_RI_IdentifyChannelIO\n
1725:Drivers/STM32L1xx_HAL_Driver/Inc/stm32l1xx_ll_system.h ****   *         RI_CICR5     PB            LL_RI_IdentifyChannelIO\n
1726:Drivers/STM32L1xx_HAL_Driver/Inc/stm32l1xx_ll_system.h ****   *         RI_CICR5     PC            LL_RI_IdentifyChannelIO\n
1727:Drivers/STM32L1xx_HAL_Driver/Inc/stm32l1xx_ll_system.h ****   *         RI_CICR5     PF            LL_RI_IdentifyChannelIO\n
1728:Drivers/STM32L1xx_HAL_Driver/Inc/stm32l1xx_ll_system.h ****   *         RI_CICR5     PG            LL_RI_IdentifyChannelIO
1729:Drivers/STM32L1xx_HAL_Driver/Inc/stm32l1xx_ll_system.h ****   * @param  Port This parameter can be one of the following values:
1730:Drivers/STM32L1xx_HAL_Driver/Inc/stm32l1xx_ll_system.h ****   *         @arg @ref LL_RI_PORT_A
1731:Drivers/STM32L1xx_HAL_Driver/Inc/stm32l1xx_ll_system.h ****   *         @arg @ref LL_RI_PORT_B
1732:Drivers/STM32L1xx_HAL_Driver/Inc/stm32l1xx_ll_system.h ****   *         @arg @ref LL_RI_PORT_C
1733:Drivers/STM32L1xx_HAL_Driver/Inc/stm32l1xx_ll_system.h ****   *         @arg @ref LL_RI_PORT_F (*)
1734:Drivers/STM32L1xx_HAL_Driver/Inc/stm32l1xx_ll_system.h ****   *         @arg @ref LL_RI_PORT_G (*)
1735:Drivers/STM32L1xx_HAL_Driver/Inc/stm32l1xx_ll_system.h ****   *
1736:Drivers/STM32L1xx_HAL_Driver/Inc/stm32l1xx_ll_system.h ****   *         (*) value not defined in all devices.
1737:Drivers/STM32L1xx_HAL_Driver/Inc/stm32l1xx_ll_system.h ****   * @param  Pin This parameter can be a combination of the following values:
1738:Drivers/STM32L1xx_HAL_Driver/Inc/stm32l1xx_ll_system.h ****   *         @arg @ref LL_RI_PIN_0
1739:Drivers/STM32L1xx_HAL_Driver/Inc/stm32l1xx_ll_system.h ****   *         @arg @ref LL_RI_PIN_1
1740:Drivers/STM32L1xx_HAL_Driver/Inc/stm32l1xx_ll_system.h ****   *         @arg @ref LL_RI_PIN_2
1741:Drivers/STM32L1xx_HAL_Driver/Inc/stm32l1xx_ll_system.h ****   *         @arg @ref LL_RI_PIN_3
1742:Drivers/STM32L1xx_HAL_Driver/Inc/stm32l1xx_ll_system.h ****   *         @arg @ref LL_RI_PIN_4
1743:Drivers/STM32L1xx_HAL_Driver/Inc/stm32l1xx_ll_system.h ****   *         @arg @ref LL_RI_PIN_5
1744:Drivers/STM32L1xx_HAL_Driver/Inc/stm32l1xx_ll_system.h ****   *         @arg @ref LL_RI_PIN_6
1745:Drivers/STM32L1xx_HAL_Driver/Inc/stm32l1xx_ll_system.h ****   *         @arg @ref LL_RI_PIN_7
1746:Drivers/STM32L1xx_HAL_Driver/Inc/stm32l1xx_ll_system.h ****   *         @arg @ref LL_RI_PIN_8
1747:Drivers/STM32L1xx_HAL_Driver/Inc/stm32l1xx_ll_system.h ****   *         @arg @ref LL_RI_PIN_9
1748:Drivers/STM32L1xx_HAL_Driver/Inc/stm32l1xx_ll_system.h ****   *         @arg @ref LL_RI_PIN_10
1749:Drivers/STM32L1xx_HAL_Driver/Inc/stm32l1xx_ll_system.h ****   *         @arg @ref LL_RI_PIN_11
ARM GAS  /tmp/ccCpqwiQ.s 			page 40


1750:Drivers/STM32L1xx_HAL_Driver/Inc/stm32l1xx_ll_system.h ****   *         @arg @ref LL_RI_PIN_12
1751:Drivers/STM32L1xx_HAL_Driver/Inc/stm32l1xx_ll_system.h ****   *         @arg @ref LL_RI_PIN_13
1752:Drivers/STM32L1xx_HAL_Driver/Inc/stm32l1xx_ll_system.h ****   *         @arg @ref LL_RI_PIN_14
1753:Drivers/STM32L1xx_HAL_Driver/Inc/stm32l1xx_ll_system.h ****   *         @arg @ref LL_RI_PIN_15
1754:Drivers/STM32L1xx_HAL_Driver/Inc/stm32l1xx_ll_system.h ****   *         @arg @ref LL_RI_PIN_ALL
1755:Drivers/STM32L1xx_HAL_Driver/Inc/stm32l1xx_ll_system.h ****   * @retval None
1756:Drivers/STM32L1xx_HAL_Driver/Inc/stm32l1xx_ll_system.h ****   */
1757:Drivers/STM32L1xx_HAL_Driver/Inc/stm32l1xx_ll_system.h **** __STATIC_INLINE void LL_RI_IdentifyChannelIO(uint32_t Port, uint32_t Pin)
1758:Drivers/STM32L1xx_HAL_Driver/Inc/stm32l1xx_ll_system.h **** {
1759:Drivers/STM32L1xx_HAL_Driver/Inc/stm32l1xx_ll_system.h ****   __IO uint32_t *reg = (__IO uint32_t *)(uint32_t)((uint32_t)(&RI->CICR1) + ((Port * 3U) << 2));
1760:Drivers/STM32L1xx_HAL_Driver/Inc/stm32l1xx_ll_system.h ****   CLEAR_BIT(*reg, Pin);
1761:Drivers/STM32L1xx_HAL_Driver/Inc/stm32l1xx_ll_system.h **** }
1762:Drivers/STM32L1xx_HAL_Driver/Inc/stm32l1xx_ll_system.h **** #endif /* RI_CICR1_PA */
1763:Drivers/STM32L1xx_HAL_Driver/Inc/stm32l1xx_ll_system.h **** 
1764:Drivers/STM32L1xx_HAL_Driver/Inc/stm32l1xx_ll_system.h **** #if defined(RI_CICR1_PA)
1765:Drivers/STM32L1xx_HAL_Driver/Inc/stm32l1xx_ll_system.h **** /**
1766:Drivers/STM32L1xx_HAL_Driver/Inc/stm32l1xx_ll_system.h ****   * @brief  Identify sampling capacitor for timer input capture
1767:Drivers/STM32L1xx_HAL_Driver/Inc/stm32l1xx_ll_system.h ****   * @rmtoll RI_CICR1     PA            LL_RI_IdentifySamplingCapacitorIO\n
1768:Drivers/STM32L1xx_HAL_Driver/Inc/stm32l1xx_ll_system.h ****   *         RI_CICR1     PB            LL_RI_IdentifySamplingCapacitorIO\n
1769:Drivers/STM32L1xx_HAL_Driver/Inc/stm32l1xx_ll_system.h ****   *         RI_CICR1     PC            LL_RI_IdentifySamplingCapacitorIO\n
1770:Drivers/STM32L1xx_HAL_Driver/Inc/stm32l1xx_ll_system.h ****   *         RI_CICR1     PF            LL_RI_IdentifySamplingCapacitorIO\n
1771:Drivers/STM32L1xx_HAL_Driver/Inc/stm32l1xx_ll_system.h ****   *         RI_CICR1     PG            LL_RI_IdentifySamplingCapacitorIO\n
1772:Drivers/STM32L1xx_HAL_Driver/Inc/stm32l1xx_ll_system.h ****   *         RI_CICR2     PA            LL_RI_IdentifySamplingCapacitorIO\n
1773:Drivers/STM32L1xx_HAL_Driver/Inc/stm32l1xx_ll_system.h ****   *         RI_CICR2     PB            LL_RI_IdentifySamplingCapacitorIO\n
1774:Drivers/STM32L1xx_HAL_Driver/Inc/stm32l1xx_ll_system.h ****   *         RI_CICR2     PC            LL_RI_IdentifySamplingCapacitorIO\n
1775:Drivers/STM32L1xx_HAL_Driver/Inc/stm32l1xx_ll_system.h ****   *         RI_CICR2     PF            LL_RI_IdentifySamplingCapacitorIO\n
1776:Drivers/STM32L1xx_HAL_Driver/Inc/stm32l1xx_ll_system.h ****   *         RI_CICR2     PG            LL_RI_IdentifySamplingCapacitorIO\n
1777:Drivers/STM32L1xx_HAL_Driver/Inc/stm32l1xx_ll_system.h ****   *         RI_CICR3     PA            LL_RI_IdentifySamplingCapacitorIO\n
1778:Drivers/STM32L1xx_HAL_Driver/Inc/stm32l1xx_ll_system.h ****   *         RI_CICR3     PB            LL_RI_IdentifySamplingCapacitorIO\n
1779:Drivers/STM32L1xx_HAL_Driver/Inc/stm32l1xx_ll_system.h ****   *         RI_CICR3     PC            LL_RI_IdentifySamplingCapacitorIO\n
1780:Drivers/STM32L1xx_HAL_Driver/Inc/stm32l1xx_ll_system.h ****   *         RI_CICR3     PF            LL_RI_IdentifySamplingCapacitorIO\n
1781:Drivers/STM32L1xx_HAL_Driver/Inc/stm32l1xx_ll_system.h ****   *         RI_CICR3     PG            LL_RI_IdentifySamplingCapacitorIO\n
1782:Drivers/STM32L1xx_HAL_Driver/Inc/stm32l1xx_ll_system.h ****   *         RI_CICR4     PA            LL_RI_IdentifySamplingCapacitorIO\n
1783:Drivers/STM32L1xx_HAL_Driver/Inc/stm32l1xx_ll_system.h ****   *         RI_CICR4     PB            LL_RI_IdentifySamplingCapacitorIO\n
1784:Drivers/STM32L1xx_HAL_Driver/Inc/stm32l1xx_ll_system.h ****   *         RI_CICR4     PC            LL_RI_IdentifySamplingCapacitorIO\n
1785:Drivers/STM32L1xx_HAL_Driver/Inc/stm32l1xx_ll_system.h ****   *         RI_CICR4     PF            LL_RI_IdentifySamplingCapacitorIO\n
1786:Drivers/STM32L1xx_HAL_Driver/Inc/stm32l1xx_ll_system.h ****   *         RI_CICR4     PG            LL_RI_IdentifySamplingCapacitorIO\n
1787:Drivers/STM32L1xx_HAL_Driver/Inc/stm32l1xx_ll_system.h ****   *         RI_CICR5     PA            LL_RI_IdentifySamplingCapacitorIO\n
1788:Drivers/STM32L1xx_HAL_Driver/Inc/stm32l1xx_ll_system.h ****   *         RI_CICR5     PB            LL_RI_IdentifySamplingCapacitorIO\n
1789:Drivers/STM32L1xx_HAL_Driver/Inc/stm32l1xx_ll_system.h ****   *         RI_CICR5     PC            LL_RI_IdentifySamplingCapacitorIO\n
1790:Drivers/STM32L1xx_HAL_Driver/Inc/stm32l1xx_ll_system.h ****   *         RI_CICR5     PF            LL_RI_IdentifySamplingCapacitorIO\n
1791:Drivers/STM32L1xx_HAL_Driver/Inc/stm32l1xx_ll_system.h ****   *         RI_CICR5     PG            LL_RI_IdentifySamplingCapacitorIO
1792:Drivers/STM32L1xx_HAL_Driver/Inc/stm32l1xx_ll_system.h ****   * @param  Port This parameter can be one of the following values:
1793:Drivers/STM32L1xx_HAL_Driver/Inc/stm32l1xx_ll_system.h ****   *         @arg @ref LL_RI_PORT_A
1794:Drivers/STM32L1xx_HAL_Driver/Inc/stm32l1xx_ll_system.h ****   *         @arg @ref LL_RI_PORT_B
1795:Drivers/STM32L1xx_HAL_Driver/Inc/stm32l1xx_ll_system.h ****   *         @arg @ref LL_RI_PORT_C
1796:Drivers/STM32L1xx_HAL_Driver/Inc/stm32l1xx_ll_system.h ****   *         @arg @ref LL_RI_PORT_F (*)
1797:Drivers/STM32L1xx_HAL_Driver/Inc/stm32l1xx_ll_system.h ****   *         @arg @ref LL_RI_PORT_G (*)
1798:Drivers/STM32L1xx_HAL_Driver/Inc/stm32l1xx_ll_system.h ****   *
1799:Drivers/STM32L1xx_HAL_Driver/Inc/stm32l1xx_ll_system.h ****   *         (*) value not defined in all devices.
1800:Drivers/STM32L1xx_HAL_Driver/Inc/stm32l1xx_ll_system.h ****   * @param  Pin This parameter can be a combination of the following values:
1801:Drivers/STM32L1xx_HAL_Driver/Inc/stm32l1xx_ll_system.h ****   *         @arg @ref LL_RI_PIN_0
1802:Drivers/STM32L1xx_HAL_Driver/Inc/stm32l1xx_ll_system.h ****   *         @arg @ref LL_RI_PIN_1
1803:Drivers/STM32L1xx_HAL_Driver/Inc/stm32l1xx_ll_system.h ****   *         @arg @ref LL_RI_PIN_2
1804:Drivers/STM32L1xx_HAL_Driver/Inc/stm32l1xx_ll_system.h ****   *         @arg @ref LL_RI_PIN_3
1805:Drivers/STM32L1xx_HAL_Driver/Inc/stm32l1xx_ll_system.h ****   *         @arg @ref LL_RI_PIN_4
1806:Drivers/STM32L1xx_HAL_Driver/Inc/stm32l1xx_ll_system.h ****   *         @arg @ref LL_RI_PIN_5
ARM GAS  /tmp/ccCpqwiQ.s 			page 41


1807:Drivers/STM32L1xx_HAL_Driver/Inc/stm32l1xx_ll_system.h ****   *         @arg @ref LL_RI_PIN_6
1808:Drivers/STM32L1xx_HAL_Driver/Inc/stm32l1xx_ll_system.h ****   *         @arg @ref LL_RI_PIN_7
1809:Drivers/STM32L1xx_HAL_Driver/Inc/stm32l1xx_ll_system.h ****   *         @arg @ref LL_RI_PIN_8
1810:Drivers/STM32L1xx_HAL_Driver/Inc/stm32l1xx_ll_system.h ****   *         @arg @ref LL_RI_PIN_9
1811:Drivers/STM32L1xx_HAL_Driver/Inc/stm32l1xx_ll_system.h ****   *         @arg @ref LL_RI_PIN_10
1812:Drivers/STM32L1xx_HAL_Driver/Inc/stm32l1xx_ll_system.h ****   *         @arg @ref LL_RI_PIN_11
1813:Drivers/STM32L1xx_HAL_Driver/Inc/stm32l1xx_ll_system.h ****   *         @arg @ref LL_RI_PIN_12
1814:Drivers/STM32L1xx_HAL_Driver/Inc/stm32l1xx_ll_system.h ****   *         @arg @ref LL_RI_PIN_13
1815:Drivers/STM32L1xx_HAL_Driver/Inc/stm32l1xx_ll_system.h ****   *         @arg @ref LL_RI_PIN_14
1816:Drivers/STM32L1xx_HAL_Driver/Inc/stm32l1xx_ll_system.h ****   *         @arg @ref LL_RI_PIN_15
1817:Drivers/STM32L1xx_HAL_Driver/Inc/stm32l1xx_ll_system.h ****   *         @arg @ref LL_RI_PIN_ALL
1818:Drivers/STM32L1xx_HAL_Driver/Inc/stm32l1xx_ll_system.h ****   * @retval None
1819:Drivers/STM32L1xx_HAL_Driver/Inc/stm32l1xx_ll_system.h ****   */
1820:Drivers/STM32L1xx_HAL_Driver/Inc/stm32l1xx_ll_system.h **** __STATIC_INLINE void LL_RI_IdentifySamplingCapacitorIO(uint32_t Port, uint32_t Pin)
1821:Drivers/STM32L1xx_HAL_Driver/Inc/stm32l1xx_ll_system.h **** {
1822:Drivers/STM32L1xx_HAL_Driver/Inc/stm32l1xx_ll_system.h ****   __IO uint32_t *reg = (__IO uint32_t *)(uint32_t)((uint32_t)(&RI->CICR1) + ((Port * 3U) << 2));
1823:Drivers/STM32L1xx_HAL_Driver/Inc/stm32l1xx_ll_system.h ****   SET_BIT(*reg, Pin);
1824:Drivers/STM32L1xx_HAL_Driver/Inc/stm32l1xx_ll_system.h **** }
1825:Drivers/STM32L1xx_HAL_Driver/Inc/stm32l1xx_ll_system.h **** #endif /* RI_CICR1_PA */
1826:Drivers/STM32L1xx_HAL_Driver/Inc/stm32l1xx_ll_system.h **** 
1827:Drivers/STM32L1xx_HAL_Driver/Inc/stm32l1xx_ll_system.h **** /**
1828:Drivers/STM32L1xx_HAL_Driver/Inc/stm32l1xx_ll_system.h ****   * @}
1829:Drivers/STM32L1xx_HAL_Driver/Inc/stm32l1xx_ll_system.h ****   */
1830:Drivers/STM32L1xx_HAL_Driver/Inc/stm32l1xx_ll_system.h **** 
1831:Drivers/STM32L1xx_HAL_Driver/Inc/stm32l1xx_ll_system.h **** /** @defgroup SYSTEM_LL_EF_FLASH FLASH
1832:Drivers/STM32L1xx_HAL_Driver/Inc/stm32l1xx_ll_system.h ****   * @{
1833:Drivers/STM32L1xx_HAL_Driver/Inc/stm32l1xx_ll_system.h ****   */
1834:Drivers/STM32L1xx_HAL_Driver/Inc/stm32l1xx_ll_system.h **** 
1835:Drivers/STM32L1xx_HAL_Driver/Inc/stm32l1xx_ll_system.h **** /**
1836:Drivers/STM32L1xx_HAL_Driver/Inc/stm32l1xx_ll_system.h ****   * @brief  Set FLASH Latency
1837:Drivers/STM32L1xx_HAL_Driver/Inc/stm32l1xx_ll_system.h ****   * @note   Latetency can be modified only when ACC64 is set. (through function @ref LL_FLASH_Enabl
1838:Drivers/STM32L1xx_HAL_Driver/Inc/stm32l1xx_ll_system.h ****   * @rmtoll FLASH_ACR    LATENCY       LL_FLASH_SetLatency
1839:Drivers/STM32L1xx_HAL_Driver/Inc/stm32l1xx_ll_system.h ****   * @param  Latency This parameter can be one of the following values:
1840:Drivers/STM32L1xx_HAL_Driver/Inc/stm32l1xx_ll_system.h ****   *         @arg @ref LL_FLASH_LATENCY_0
1841:Drivers/STM32L1xx_HAL_Driver/Inc/stm32l1xx_ll_system.h ****   *         @arg @ref LL_FLASH_LATENCY_1
1842:Drivers/STM32L1xx_HAL_Driver/Inc/stm32l1xx_ll_system.h ****   * @retval None
1843:Drivers/STM32L1xx_HAL_Driver/Inc/stm32l1xx_ll_system.h ****   */
1844:Drivers/STM32L1xx_HAL_Driver/Inc/stm32l1xx_ll_system.h **** __STATIC_INLINE void LL_FLASH_SetLatency(uint32_t Latency)
1845:Drivers/STM32L1xx_HAL_Driver/Inc/stm32l1xx_ll_system.h **** {
1846:Drivers/STM32L1xx_HAL_Driver/Inc/stm32l1xx_ll_system.h ****   MODIFY_REG(FLASH->ACR, FLASH_ACR_LATENCY, Latency);
1847:Drivers/STM32L1xx_HAL_Driver/Inc/stm32l1xx_ll_system.h **** }
1848:Drivers/STM32L1xx_HAL_Driver/Inc/stm32l1xx_ll_system.h **** 
1849:Drivers/STM32L1xx_HAL_Driver/Inc/stm32l1xx_ll_system.h **** /**
1850:Drivers/STM32L1xx_HAL_Driver/Inc/stm32l1xx_ll_system.h ****   * @brief  Get FLASH Latency
1851:Drivers/STM32L1xx_HAL_Driver/Inc/stm32l1xx_ll_system.h ****   * @rmtoll FLASH_ACR    LATENCY       LL_FLASH_GetLatency
1852:Drivers/STM32L1xx_HAL_Driver/Inc/stm32l1xx_ll_system.h ****   * @retval Returned value can be one of the following values:
1853:Drivers/STM32L1xx_HAL_Driver/Inc/stm32l1xx_ll_system.h ****   *         @arg @ref LL_FLASH_LATENCY_0
1854:Drivers/STM32L1xx_HAL_Driver/Inc/stm32l1xx_ll_system.h ****   *         @arg @ref LL_FLASH_LATENCY_1
1855:Drivers/STM32L1xx_HAL_Driver/Inc/stm32l1xx_ll_system.h ****   */
1856:Drivers/STM32L1xx_HAL_Driver/Inc/stm32l1xx_ll_system.h **** __STATIC_INLINE uint32_t LL_FLASH_GetLatency(void)
1857:Drivers/STM32L1xx_HAL_Driver/Inc/stm32l1xx_ll_system.h **** {
1858:Drivers/STM32L1xx_HAL_Driver/Inc/stm32l1xx_ll_system.h ****   return (uint32_t)(READ_BIT(FLASH->ACR, FLASH_ACR_LATENCY));
1859:Drivers/STM32L1xx_HAL_Driver/Inc/stm32l1xx_ll_system.h **** }
1860:Drivers/STM32L1xx_HAL_Driver/Inc/stm32l1xx_ll_system.h **** 
1861:Drivers/STM32L1xx_HAL_Driver/Inc/stm32l1xx_ll_system.h **** /**
1862:Drivers/STM32L1xx_HAL_Driver/Inc/stm32l1xx_ll_system.h ****   * @brief  Enable Prefetch
1863:Drivers/STM32L1xx_HAL_Driver/Inc/stm32l1xx_ll_system.h ****   * @note   Prefetch can be enabled only when ACC64 is set. (through function @ref LL_FLASH_Enable6
ARM GAS  /tmp/ccCpqwiQ.s 			page 42


1864:Drivers/STM32L1xx_HAL_Driver/Inc/stm32l1xx_ll_system.h ****   * @rmtoll FLASH_ACR    PRFTEN        LL_FLASH_EnablePrefetch
1865:Drivers/STM32L1xx_HAL_Driver/Inc/stm32l1xx_ll_system.h ****   * @retval None
1866:Drivers/STM32L1xx_HAL_Driver/Inc/stm32l1xx_ll_system.h ****   */
1867:Drivers/STM32L1xx_HAL_Driver/Inc/stm32l1xx_ll_system.h **** __STATIC_INLINE void LL_FLASH_EnablePrefetch(void)
1868:Drivers/STM32L1xx_HAL_Driver/Inc/stm32l1xx_ll_system.h **** {
1869:Drivers/STM32L1xx_HAL_Driver/Inc/stm32l1xx_ll_system.h ****   SET_BIT(FLASH->ACR, FLASH_ACR_PRFTEN);
1870:Drivers/STM32L1xx_HAL_Driver/Inc/stm32l1xx_ll_system.h **** }
1871:Drivers/STM32L1xx_HAL_Driver/Inc/stm32l1xx_ll_system.h **** 
1872:Drivers/STM32L1xx_HAL_Driver/Inc/stm32l1xx_ll_system.h **** /**
1873:Drivers/STM32L1xx_HAL_Driver/Inc/stm32l1xx_ll_system.h ****   * @brief  Disable Prefetch
1874:Drivers/STM32L1xx_HAL_Driver/Inc/stm32l1xx_ll_system.h ****   * @note   Prefetch can be disabled only when ACC64 is set. (through function @ref LL_FLASH_Enable
1875:Drivers/STM32L1xx_HAL_Driver/Inc/stm32l1xx_ll_system.h ****   * @rmtoll FLASH_ACR    PRFTEN        LL_FLASH_DisablePrefetch
1876:Drivers/STM32L1xx_HAL_Driver/Inc/stm32l1xx_ll_system.h ****   * @retval None
1877:Drivers/STM32L1xx_HAL_Driver/Inc/stm32l1xx_ll_system.h ****   */
1878:Drivers/STM32L1xx_HAL_Driver/Inc/stm32l1xx_ll_system.h **** __STATIC_INLINE void LL_FLASH_DisablePrefetch(void)
1879:Drivers/STM32L1xx_HAL_Driver/Inc/stm32l1xx_ll_system.h **** {
1880:Drivers/STM32L1xx_HAL_Driver/Inc/stm32l1xx_ll_system.h ****   CLEAR_BIT(FLASH->ACR, FLASH_ACR_PRFTEN);
1881:Drivers/STM32L1xx_HAL_Driver/Inc/stm32l1xx_ll_system.h **** }
1882:Drivers/STM32L1xx_HAL_Driver/Inc/stm32l1xx_ll_system.h **** 
1883:Drivers/STM32L1xx_HAL_Driver/Inc/stm32l1xx_ll_system.h **** /**
1884:Drivers/STM32L1xx_HAL_Driver/Inc/stm32l1xx_ll_system.h ****   * @brief  Check if Prefetch buffer is enabled
1885:Drivers/STM32L1xx_HAL_Driver/Inc/stm32l1xx_ll_system.h ****   * @rmtoll FLASH_ACR    PRFTEN        LL_FLASH_IsPrefetchEnabled
1886:Drivers/STM32L1xx_HAL_Driver/Inc/stm32l1xx_ll_system.h ****   * @retval State of bit (1 or 0).
1887:Drivers/STM32L1xx_HAL_Driver/Inc/stm32l1xx_ll_system.h ****   */
1888:Drivers/STM32L1xx_HAL_Driver/Inc/stm32l1xx_ll_system.h **** __STATIC_INLINE uint32_t LL_FLASH_IsPrefetchEnabled(void)
1889:Drivers/STM32L1xx_HAL_Driver/Inc/stm32l1xx_ll_system.h **** {
1890:Drivers/STM32L1xx_HAL_Driver/Inc/stm32l1xx_ll_system.h ****   return ((READ_BIT(FLASH->ACR, FLASH_ACR_PRFTEN) == FLASH_ACR_PRFTEN) ? 1UL : 0UL);
1891:Drivers/STM32L1xx_HAL_Driver/Inc/stm32l1xx_ll_system.h **** }
1892:Drivers/STM32L1xx_HAL_Driver/Inc/stm32l1xx_ll_system.h **** 
1893:Drivers/STM32L1xx_HAL_Driver/Inc/stm32l1xx_ll_system.h **** /**
1894:Drivers/STM32L1xx_HAL_Driver/Inc/stm32l1xx_ll_system.h ****   * @brief  Enable 64-bit access
1895:Drivers/STM32L1xx_HAL_Driver/Inc/stm32l1xx_ll_system.h ****   * @rmtoll FLASH_ACR    ACC64         LL_FLASH_Enable64bitAccess
1896:Drivers/STM32L1xx_HAL_Driver/Inc/stm32l1xx_ll_system.h ****   * @retval None
1897:Drivers/STM32L1xx_HAL_Driver/Inc/stm32l1xx_ll_system.h ****   */
1898:Drivers/STM32L1xx_HAL_Driver/Inc/stm32l1xx_ll_system.h **** __STATIC_INLINE void LL_FLASH_Enable64bitAccess(void)
 123              		.loc 3 1898 22 view .LVU17
 124              	.LBB37:
1899:Drivers/STM32L1xx_HAL_Driver/Inc/stm32l1xx_ll_system.h **** {
1900:Drivers/STM32L1xx_HAL_Driver/Inc/stm32l1xx_ll_system.h ****   SET_BIT(FLASH->ACR, FLASH_ACR_ACC64);
 125              		.loc 3 1900 3 view .LVU18
 126 0002 2A4B     		ldr	r3, .L18
 127 0004 1A68     		ldr	r2, [r3]
 128 0006 42F00402 		orr	r2, r2, #4
 129 000a 1A60     		str	r2, [r3]
 130              	.LBE37:
 131              	.LBE36:
 133:Core/Src/main.c ****   while(LL_FLASH_GetLatency()!= LL_FLASH_LATENCY_1)
 132              		.loc 1 133 3 view .LVU19
 133              	.LVL4:
 134              	.LBB38:
 135              	.LBI38:
1844:Drivers/STM32L1xx_HAL_Driver/Inc/stm32l1xx_ll_system.h **** {
 136              		.loc 3 1844 22 view .LVU20
 137              	.LBB39:
1846:Drivers/STM32L1xx_HAL_Driver/Inc/stm32l1xx_ll_system.h **** }
 138              		.loc 3 1846 3 view .LVU21
 139 000c 1A68     		ldr	r2, [r3]
ARM GAS  /tmp/ccCpqwiQ.s 			page 43


 140 000e 42F00102 		orr	r2, r2, #1
 141 0012 1A60     		str	r2, [r3]
 142              	.LVL5:
 143              	.L10:
1846:Drivers/STM32L1xx_HAL_Driver/Inc/stm32l1xx_ll_system.h **** }
 144              		.loc 3 1846 3 is_stmt 0 view .LVU22
 145              	.LBE39:
 146              	.LBE38:
 136:Core/Src/main.c ****   LL_PWR_SetRegulVoltageScaling(LL_PWR_REGU_VOLTAGE_SCALE1);
 147              		.loc 1 136 3 is_stmt 1 discriminator 1 view .LVU23
 134:Core/Src/main.c ****   {
 148              		.loc 1 134 8 discriminator 1 view .LVU24
 149              	.LBB40:
 150              	.LBI40:
1856:Drivers/STM32L1xx_HAL_Driver/Inc/stm32l1xx_ll_system.h **** {
 151              		.loc 3 1856 26 discriminator 1 view .LVU25
 152              	.LBB41:
1858:Drivers/STM32L1xx_HAL_Driver/Inc/stm32l1xx_ll_system.h **** }
 153              		.loc 3 1858 3 discriminator 1 view .LVU26
1858:Drivers/STM32L1xx_HAL_Driver/Inc/stm32l1xx_ll_system.h **** }
 154              		.loc 3 1858 21 is_stmt 0 discriminator 1 view .LVU27
 155 0014 254B     		ldr	r3, .L18
 156 0016 1B68     		ldr	r3, [r3]
 157              	.LBE41:
 158              	.LBE40:
 134:Core/Src/main.c ****   {
 159              		.loc 1 134 8 discriminator 1 view .LVU28
 160 0018 13F0010F 		tst	r3, #1
 161 001c FAD0     		beq	.L10
 137:Core/Src/main.c ****   while (LL_PWR_IsActiveFlag_VOS() != 0)
 162              		.loc 1 137 3 is_stmt 1 view .LVU29
 163              	.LVL6:
 164              	.LBB42:
 165              	.LBI42:
 166              		.file 4 "Drivers/STM32L1xx_HAL_Driver/Inc/stm32l1xx_ll_pwr.h"
   1:Drivers/STM32L1xx_HAL_Driver/Inc/stm32l1xx_ll_pwr.h **** /**
   2:Drivers/STM32L1xx_HAL_Driver/Inc/stm32l1xx_ll_pwr.h ****   ******************************************************************************
   3:Drivers/STM32L1xx_HAL_Driver/Inc/stm32l1xx_ll_pwr.h ****   * @file    stm32l1xx_ll_pwr.h
   4:Drivers/STM32L1xx_HAL_Driver/Inc/stm32l1xx_ll_pwr.h ****   * @author  MCD Application Team
   5:Drivers/STM32L1xx_HAL_Driver/Inc/stm32l1xx_ll_pwr.h ****   * @brief   Header file of PWR LL module.
   6:Drivers/STM32L1xx_HAL_Driver/Inc/stm32l1xx_ll_pwr.h ****   ******************************************************************************
   7:Drivers/STM32L1xx_HAL_Driver/Inc/stm32l1xx_ll_pwr.h ****   * @attention
   8:Drivers/STM32L1xx_HAL_Driver/Inc/stm32l1xx_ll_pwr.h ****   *
   9:Drivers/STM32L1xx_HAL_Driver/Inc/stm32l1xx_ll_pwr.h ****   * Copyright (c) 2017 STMicroelectronics.
  10:Drivers/STM32L1xx_HAL_Driver/Inc/stm32l1xx_ll_pwr.h ****   * All rights reserved.
  11:Drivers/STM32L1xx_HAL_Driver/Inc/stm32l1xx_ll_pwr.h ****   *
  12:Drivers/STM32L1xx_HAL_Driver/Inc/stm32l1xx_ll_pwr.h ****   * This software is licensed under terms that can be found in the LICENSE file
  13:Drivers/STM32L1xx_HAL_Driver/Inc/stm32l1xx_ll_pwr.h ****   * in the root directory of this software component.
  14:Drivers/STM32L1xx_HAL_Driver/Inc/stm32l1xx_ll_pwr.h ****   * If no LICENSE file comes with this software, it is provided AS-IS.
  15:Drivers/STM32L1xx_HAL_Driver/Inc/stm32l1xx_ll_pwr.h ****   *
  16:Drivers/STM32L1xx_HAL_Driver/Inc/stm32l1xx_ll_pwr.h ****   ******************************************************************************
  17:Drivers/STM32L1xx_HAL_Driver/Inc/stm32l1xx_ll_pwr.h ****   */
  18:Drivers/STM32L1xx_HAL_Driver/Inc/stm32l1xx_ll_pwr.h **** 
  19:Drivers/STM32L1xx_HAL_Driver/Inc/stm32l1xx_ll_pwr.h **** /* Define to prevent recursive inclusion -------------------------------------*/
  20:Drivers/STM32L1xx_HAL_Driver/Inc/stm32l1xx_ll_pwr.h **** #ifndef __STM32L1xx_LL_PWR_H
  21:Drivers/STM32L1xx_HAL_Driver/Inc/stm32l1xx_ll_pwr.h **** #define __STM32L1xx_LL_PWR_H
  22:Drivers/STM32L1xx_HAL_Driver/Inc/stm32l1xx_ll_pwr.h **** 
ARM GAS  /tmp/ccCpqwiQ.s 			page 44


  23:Drivers/STM32L1xx_HAL_Driver/Inc/stm32l1xx_ll_pwr.h **** #ifdef __cplusplus
  24:Drivers/STM32L1xx_HAL_Driver/Inc/stm32l1xx_ll_pwr.h **** extern "C" {
  25:Drivers/STM32L1xx_HAL_Driver/Inc/stm32l1xx_ll_pwr.h **** #endif
  26:Drivers/STM32L1xx_HAL_Driver/Inc/stm32l1xx_ll_pwr.h **** 
  27:Drivers/STM32L1xx_HAL_Driver/Inc/stm32l1xx_ll_pwr.h **** /* Includes ------------------------------------------------------------------*/
  28:Drivers/STM32L1xx_HAL_Driver/Inc/stm32l1xx_ll_pwr.h **** #include "stm32l1xx.h"
  29:Drivers/STM32L1xx_HAL_Driver/Inc/stm32l1xx_ll_pwr.h **** 
  30:Drivers/STM32L1xx_HAL_Driver/Inc/stm32l1xx_ll_pwr.h **** /** @addtogroup STM32L1xx_LL_Driver
  31:Drivers/STM32L1xx_HAL_Driver/Inc/stm32l1xx_ll_pwr.h ****   * @{
  32:Drivers/STM32L1xx_HAL_Driver/Inc/stm32l1xx_ll_pwr.h ****   */
  33:Drivers/STM32L1xx_HAL_Driver/Inc/stm32l1xx_ll_pwr.h **** 
  34:Drivers/STM32L1xx_HAL_Driver/Inc/stm32l1xx_ll_pwr.h **** #if defined(PWR)
  35:Drivers/STM32L1xx_HAL_Driver/Inc/stm32l1xx_ll_pwr.h **** 
  36:Drivers/STM32L1xx_HAL_Driver/Inc/stm32l1xx_ll_pwr.h **** /** @defgroup PWR_LL PWR
  37:Drivers/STM32L1xx_HAL_Driver/Inc/stm32l1xx_ll_pwr.h ****   * @{
  38:Drivers/STM32L1xx_HAL_Driver/Inc/stm32l1xx_ll_pwr.h ****   */
  39:Drivers/STM32L1xx_HAL_Driver/Inc/stm32l1xx_ll_pwr.h **** 
  40:Drivers/STM32L1xx_HAL_Driver/Inc/stm32l1xx_ll_pwr.h **** /* Private types -------------------------------------------------------------*/
  41:Drivers/STM32L1xx_HAL_Driver/Inc/stm32l1xx_ll_pwr.h **** /* Private variables ---------------------------------------------------------*/
  42:Drivers/STM32L1xx_HAL_Driver/Inc/stm32l1xx_ll_pwr.h **** /* Private constants ---------------------------------------------------------*/
  43:Drivers/STM32L1xx_HAL_Driver/Inc/stm32l1xx_ll_pwr.h **** /* Private macros ------------------------------------------------------------*/
  44:Drivers/STM32L1xx_HAL_Driver/Inc/stm32l1xx_ll_pwr.h **** /* Exported types ------------------------------------------------------------*/
  45:Drivers/STM32L1xx_HAL_Driver/Inc/stm32l1xx_ll_pwr.h **** /* Exported constants --------------------------------------------------------*/
  46:Drivers/STM32L1xx_HAL_Driver/Inc/stm32l1xx_ll_pwr.h **** /** @defgroup PWR_LL_Exported_Constants PWR Exported Constants
  47:Drivers/STM32L1xx_HAL_Driver/Inc/stm32l1xx_ll_pwr.h ****   * @{
  48:Drivers/STM32L1xx_HAL_Driver/Inc/stm32l1xx_ll_pwr.h ****   */
  49:Drivers/STM32L1xx_HAL_Driver/Inc/stm32l1xx_ll_pwr.h **** 
  50:Drivers/STM32L1xx_HAL_Driver/Inc/stm32l1xx_ll_pwr.h **** /** @defgroup PWR_LL_EC_CLEAR_FLAG Clear Flags Defines
  51:Drivers/STM32L1xx_HAL_Driver/Inc/stm32l1xx_ll_pwr.h ****   * @brief    Flags defines which can be used with LL_PWR_WriteReg function
  52:Drivers/STM32L1xx_HAL_Driver/Inc/stm32l1xx_ll_pwr.h ****   * @{
  53:Drivers/STM32L1xx_HAL_Driver/Inc/stm32l1xx_ll_pwr.h ****   */
  54:Drivers/STM32L1xx_HAL_Driver/Inc/stm32l1xx_ll_pwr.h **** #define LL_PWR_CR_CSBF                     PWR_CR_CSBF            /*!< Clear standby flag */
  55:Drivers/STM32L1xx_HAL_Driver/Inc/stm32l1xx_ll_pwr.h **** #define LL_PWR_CR_CWUF                     PWR_CR_CWUF            /*!< Clear wakeup flag */
  56:Drivers/STM32L1xx_HAL_Driver/Inc/stm32l1xx_ll_pwr.h **** /**
  57:Drivers/STM32L1xx_HAL_Driver/Inc/stm32l1xx_ll_pwr.h ****   * @}
  58:Drivers/STM32L1xx_HAL_Driver/Inc/stm32l1xx_ll_pwr.h ****   */
  59:Drivers/STM32L1xx_HAL_Driver/Inc/stm32l1xx_ll_pwr.h **** 
  60:Drivers/STM32L1xx_HAL_Driver/Inc/stm32l1xx_ll_pwr.h **** /** @defgroup PWR_LL_EC_GET_FLAG Get Flags Defines
  61:Drivers/STM32L1xx_HAL_Driver/Inc/stm32l1xx_ll_pwr.h ****   * @brief    Flags defines which can be used with LL_PWR_ReadReg function
  62:Drivers/STM32L1xx_HAL_Driver/Inc/stm32l1xx_ll_pwr.h ****   * @{
  63:Drivers/STM32L1xx_HAL_Driver/Inc/stm32l1xx_ll_pwr.h ****   */
  64:Drivers/STM32L1xx_HAL_Driver/Inc/stm32l1xx_ll_pwr.h **** #define LL_PWR_CSR_WUF                     PWR_CSR_WUF            /*!< Wakeup flag */
  65:Drivers/STM32L1xx_HAL_Driver/Inc/stm32l1xx_ll_pwr.h **** #define LL_PWR_CSR_SBF                     PWR_CSR_SBF            /*!< Standby flag */
  66:Drivers/STM32L1xx_HAL_Driver/Inc/stm32l1xx_ll_pwr.h **** #if defined(PWR_PVD_SUPPORT)
  67:Drivers/STM32L1xx_HAL_Driver/Inc/stm32l1xx_ll_pwr.h **** #define LL_PWR_CSR_PVDO                    PWR_CSR_PVDO           /*!< Power voltage detector outpu
  68:Drivers/STM32L1xx_HAL_Driver/Inc/stm32l1xx_ll_pwr.h **** #endif /* PWR_PVD_SUPPORT */
  69:Drivers/STM32L1xx_HAL_Driver/Inc/stm32l1xx_ll_pwr.h **** #if defined(PWR_CSR_VREFINTRDYF)
  70:Drivers/STM32L1xx_HAL_Driver/Inc/stm32l1xx_ll_pwr.h **** #define LL_PWR_CSR_VREFINTRDYF             PWR_CSR_VREFINTRDYF    /*!< VREFINT ready flag */
