ARM GAS  /tmp/ccIHmbY4.s 			page 1


   1              		.cpu cortex-m3
   2              		.arch armv7-m
   3              		.fpu softvfp
   4              		.eabi_attribute 20, 1
   5              		.eabi_attribute 21, 1
   6              		.eabi_attribute 23, 3
   7              		.eabi_attribute 24, 1
   8              		.eabi_attribute 25, 1
   9              		.eabi_attribute 26, 1
  10              		.eabi_attribute 30, 1
  11              		.eabi_attribute 34, 1
  12              		.eabi_attribute 18, 4
  13              		.file	"rtc.c"
  14              		.text
  15              	.Ltext0:
  16              		.cfi_sections	.debug_frame
  17              		.section	.text.RTC_ConvertToDec,"ax",%progbits
  18              		.align	1
  19              		.syntax unified
  20              		.thumb
  21              		.thumb_func
  23              	RTC_ConvertToDec:
  24              	.LVL0:
  25              	.LFB817:
  26              		.file 1 "Core/Src/rtc.c"
   1:Core/Src/rtc.c **** // Includes--------------------------------------------------------------------------//
   2:Core/Src/rtc.c **** #include "rtc.h"
   3:Core/Src/rtc.c **** #include "i2c.h"
   4:Core/Src/rtc.c **** #include "typedef.h"
   5:Core/Src/rtc.c **** #include "time64.h"
   6:Core/Src/rtc.c **** 
   7:Core/Src/rtc.c **** // DEFINES---------------------------------------------------------------------------//
   8:Core/Src/rtc.c **** 
   9:Core/Src/rtc.c **** // TYPEDEFS--------------------------------------------------------------------------//
  10:Core/Src/rtc.c **** 
  11:Core/Src/rtc.c **** //STATIC PROTOTYPES------------------------------------------------------------------//
  12:Core/Src/rtc.c **** static uint8_t RTC_ConvertToDec(uint8_t );
  13:Core/Src/rtc.c **** static uint8_t RTC_ConvertToBinDec(uint8_t );
  14:Core/Src/rtc.c **** 
  15:Core/Src/rtc.c **** // STATIC VARIABLES------------------------------------------------------------------//
  16:Core/Src/rtc.c **** I2C_TypeDef * RTC_I2C = I2C1;
  17:Core/Src/rtc.c **** struct TM TimeStamp;
  18:Core/Src/rtc.c **** 
  19:Core/Src/rtc.c **** //–º–∞—Å—Å–∏–≤ —Å –∫–æ–ª–∏—á–µ—Å—Ç–≤–æ–º –¥–Ω–µ–π –≤ –ø—Ä–µ–¥—ã–¥—É—â–µ–º –º–µ—Å—è—Ü–µ, [0][12] - –
  20:Core/Src/rtc.c **** const unsigned int pred_sum [2] [12] =	
  21:Core/Src/rtc.c **** { 
  22:Core/Src/rtc.c **** 	{0,31,59,90,120,151,181,212,243,273,304,334}, 
  23:Core/Src/rtc.c **** 	{0,31,60,91,121,152,182,213,244,274,305,335} 
  24:Core/Src/rtc.c **** };
  25:Core/Src/rtc.c **** 
  26:Core/Src/rtc.c **** //FUNCTIONS---------------------------------------------------------------------------//
  27:Core/Src/rtc.c **** uint8_t GetTime (uint8_t RTC_adress, uint8_t registr_adress, uint8_t sizebuf, uint8_t * RTC_buffer)
  28:Core/Src/rtc.c **** {
  29:Core/Src/rtc.c **** 	uint8_t I2C_status = I2C_OK;
  30:Core/Src/rtc.c **** 
  31:Core/Src/rtc.c **** 	if ((I2C_status = I2C_ReadBuffer (registr_adress,  (uint8_t*)RTC_buffer, (uint16_t) sizebuf)) == I
  32:Core/Src/rtc.c **** 	{
ARM GAS  /tmp/ccIHmbY4.s 			page 2


  33:Core/Src/rtc.c **** 		for (uint8_t count = 0; count < sizebuf; count++)
  34:Core/Src/rtc.c **** 		{
  35:Core/Src/rtc.c **** 			*RTC_buffer++ = RTC_ConvertToDec(*RTC_buffer); //–ø–µ—Ä–µ–≤–æ–¥ —á–∏—Å–ª–∞ –∏–∑ –¥–≤–æ–∏—á–Ω–æ-–
  36:Core/Src/rtc.c **** 		}
  37:Core/Src/rtc.c **** 	}
  38:Core/Src/rtc.c **** 	else
  39:Core/Src/rtc.c **** 	{
  40:Core/Src/rtc.c **** 		for (uint8_t count = 0; count < sizebuf; count++)
  41:Core/Src/rtc.c **** 		{
  42:Core/Src/rtc.c **** 			*RTC_buffer++ = 0; //–ø–µ—Ä–µ–≤–æ–¥ —á–∏—Å–ª–∞ –∏–∑ –¥–≤–æ–∏—á–Ω–æ-–¥–µ—Å—è—Ç–∏—á–Ω–æ–≥–æ –ø—Ä–µ
  43:Core/Src/rtc.c **** 		}
  44:Core/Src/rtc.c **** 	}
  45:Core/Src/rtc.c **** 	return  I2C_status;
  46:Core/Src/rtc.c **** }
  47:Core/Src/rtc.c **** 
  48:Core/Src/rtc.c **** //-------------------------------------------------------------------------------------------------
  49:Core/Src/rtc.c **** uint8_t GetTemp (uint8_t  RTC_adress, uint8_t registr_adress,  uint8_t * temp_buffer)
  50:Core/Src/rtc.c **** {
  51:Core/Src/rtc.c **** 	uint8_t I2C_status = I2C_OK;
  52:Core/Src/rtc.c **** 	if ((I2C_status = I2C_ReadByte (registr_adress,  temp_buffer)) != I2C_OK)
  53:Core/Src/rtc.c **** 	{
  54:Core/Src/rtc.c **** 		*temp_buffer = 0;
  55:Core/Src/rtc.c **** 	}
  56:Core/Src/rtc.c **** 	
  57:Core/Src/rtc.c **** 	return  I2C_status;
  58:Core/Src/rtc.c **** }
  59:Core/Src/rtc.c **** 
  60:Core/Src/rtc.c **** //-------------------------------------------------------------------------------------------------
  61:Core/Src/rtc.c **** uint8_t SetTime (uint8_t RTC_adress, uint8_t registr_adress, char *time)
  62:Core/Src/rtc.c **** {
  63:Core/Src/rtc.c **** 	//—Ñ–æ—Ä–º–∏—Ä–æ–≤–∞–Ω–∏–µ —Å–æ–æ–±—â–µ–Ω–∏—è –¥–ª—è RTC	
  64:Core/Src/rtc.c **** 	uint8_t I2C_RTC_buffer [4] = {0}; //–º–∞—Å—Å–∏–≤ c –æ—Ç—Ñ–æ—Ä–º–∞—Ç–∏—Ä–æ–≤–∞–Ω–Ω—ã–º–∏ –¥–∞–Ω–Ω—ã
  65:Core/Src/rtc.c **** 	//uint8_t * ptr_RTC_buffer = I2C_RTC_buffer;
  66:Core/Src/rtc.c **** 	signed char ptr = 1;
  67:Core/Src/rtc.c **** 	char buf_ch;
  68:Core/Src/rtc.c **** 	
  69:Core/Src/rtc.c **** 	for (signed char count = 0; count < 6; count++) 
  70:Core/Src/rtc.c **** 	{
  71:Core/Src/rtc.c **** 		buf_ch = *(time+count);
  72:Core/Src/rtc.c **** 		if ((buf_ch >= 0x30) && (buf_ch <= 0x39))
  73:Core/Src/rtc.c **** 		{
  74:Core/Src/rtc.c **** 			if (!(count%2)) //–ø—Ä–∏ i=0, 2, 4
  75:Core/Src/rtc.c **** 			{
  76:Core/Src/rtc.c **** 				I2C_RTC_buffer [ptr] += 10 * (buf_ch - 48); //–¥–µ—Å—è—Ç—ã–π —Ä–∞–∑—Ä—è–¥ —Å–µ–∫—É–Ω–¥—ã, –º–∏–
  77:Core/Src/rtc.c **** 			}
  78:Core/Src/rtc.c **** 			else
  79:Core/Src/rtc.c **** 			{
  80:Core/Src/rtc.c **** 				I2C_RTC_buffer [ptr] += buf_ch - 48; //–µ–¥–∏–Ω–∏—á–Ω—ã–π —Ä–∞–∑—Ä—è–¥ —Å–µ–∫—É–Ω–¥—ã, –º–∏–Ω—É
  81:Core/Src/rtc.c **** 				I2C_RTC_buffer [ptr] = RTC_ConvertToBinDec(I2C_RTC_buffer [ptr]); //–ø–µ—Ä–µ–≤–æ–¥ –≤ –¥–≤–æ–∏—
  82:Core/Src/rtc.c **** 				ptr++;
  83:Core/Src/rtc.c **** 			}
  84:Core/Src/rtc.c **** 		}
  85:Core/Src/rtc.c **** 		else
  86:Core/Src/rtc.c **** 		{	return  1;	}
  87:Core/Src/rtc.c **** 	}
  88:Core/Src/rtc.c **** 	I2C_RTC_buffer [0] = registr_adress; //–≤ –ø–µ—Ä–≤—ã–π —ç–ª–µ–º–µ–Ω—Ç –º–∞—Å—Å–∏–≤–∞ - –∞–¥—Ä–µ—Å 
  89:Core/Src/rtc.c **** 	
ARM GAS  /tmp/ccIHmbY4.s 			page 3


  90:Core/Src/rtc.c **** 	/*if (HAL_I2C_Master_Transmit(&hi2c1, (uint16_t) RTC_adress, (uint8_t*)I2C_RTC_buffer, 4, (uint32_
  91:Core/Src/rtc.c **** 	{	return  1;	}*/
  92:Core/Src/rtc.c **** 	
  93:Core/Src/rtc.c **** 	return  0;
  94:Core/Src/rtc.c **** }
  95:Core/Src/rtc.c **** 
  96:Core/Src/rtc.c **** //---------—Ñ-—è –ø–µ—Ä–µ–≤–æ–¥–∞ —á–∏—Å–ª–∞ –∏–∑ –¥–≤–æ–∏—á–Ω–æ-–¥–µ—Å—è—Ç–∏—á–Ω–æ–≥–æ –ø—Ä–µ–¥—Å—
  97:Core/Src/rtc.c **** static uint8_t RTC_ConvertToDec(uint8_t digit)
  98:Core/Src/rtc.c **** {
  27              		.loc 1 98 1 view -0
  28              		.cfi_startproc
  29              		@ args = 0, pretend = 0, frame = 0
  30              		@ frame_needed = 0, uses_anonymous_args = 0
  31              		@ link register save eliminated.
  99:Core/Src/rtc.c **** 	uint8_t ch = ((digit>>4)*10 + (0x0F & digit));
  32              		.loc 1 99 2 view .LVU1
  33              		.loc 1 99 30 is_stmt 0 view .LVU2
  34 0000 0309     		lsrs	r3, r0, #4
  35 0002 03EB8303 		add	r3, r3, r3, lsl #2
  36              		.loc 1 99 38 view .LVU3
  37 0006 00F00F00 		and	r0, r0, #15
  38              	.LVL1:
  39              		.loc 1 99 10 view .LVU4
  40 000a 00EB4300 		add	r0, r0, r3, lsl #1
  41              	.LVL2:
 100:Core/Src/rtc.c **** 	return ch;
  42              		.loc 1 100 2 is_stmt 1 view .LVU5
 101:Core/Src/rtc.c **** }
  43              		.loc 1 101 1 is_stmt 0 view .LVU6
  44 000e C0B2     		uxtb	r0, r0
  45              		.loc 1 101 1 view .LVU7
  46 0010 7047     		bx	lr
  47              		.cfi_endproc
  48              	.LFE817:
  50              		.section	.text.RTC_ConvertToBinDec,"ax",%progbits
  51              		.align	1
  52              		.syntax unified
  53              		.thumb
  54              		.thumb_func
  56              	RTC_ConvertToBinDec:
  57              	.LVL3:
  58              	.LFB818:
 102:Core/Src/rtc.c **** 
 103:Core/Src/rtc.c **** //---------—Ñ-—è –ø–µ—Ä–µ–≤–æ–¥–∞ —á–∏—Å–ª–∞ –∏–∑ –æ–±—ã—á–Ω–æ–≥–æ –≤ –¥–≤–æ–∏—á–Ω–æ-–¥–µ—Å—è—Ç–∏—á
 104:Core/Src/rtc.c **** static uint8_t RTC_ConvertToBinDec(uint8_t digit)
 105:Core/Src/rtc.c **** {
  59              		.loc 1 105 1 is_stmt 1 view -0
  60              		.cfi_startproc
  61              		@ args = 0, pretend = 0, frame = 0
  62              		@ frame_needed = 0, uses_anonymous_args = 0
  63              		@ link register save eliminated.
 106:Core/Src/rtc.c **** 	uint8_t ch = ((digit/10) << 4) + (digit%10);
  64              		.loc 1 106 2 view .LVU9
  65              		.loc 1 106 27 is_stmt 0 view .LVU10
  66 0000 064B     		ldr	r3, .L3
  67 0002 A3FB0023 		umull	r2, r3, r3, r0
  68 0006 DB08     		lsrs	r3, r3, #3
ARM GAS  /tmp/ccIHmbY4.s 			page 4


  69 0008 1A01     		lsls	r2, r3, #4
  70 000a D2B2     		uxtb	r2, r2
  71              		.loc 1 106 33 view .LVU11
  72 000c 03EB8303 		add	r3, r3, r3, lsl #2
  73 0010 A0EB4300 		sub	r0, r0, r3, lsl #1
  74              	.LVL4:
  75              		.loc 1 106 33 view .LVU12
  76 0014 C0B2     		uxtb	r0, r0
  77              		.loc 1 106 10 view .LVU13
  78 0016 1044     		add	r0, r0, r2
  79              	.LVL5:
 107:Core/Src/rtc.c **** 	return ch;
  80              		.loc 1 107 2 is_stmt 1 view .LVU14
 108:Core/Src/rtc.c **** }
  81              		.loc 1 108 1 is_stmt 0 view .LVU15
  82 0018 C0B2     		uxtb	r0, r0
  83              		.loc 1 108 1 view .LVU16
  84 001a 7047     		bx	lr
  85              	.L4:
  86              		.align	2
  87              	.L3:
  88 001c CDCCCCCC 		.word	-858993459
  89              		.cfi_endproc
  90              	.LFE818:
  92              		.section	.text.GetTime,"ax",%progbits
  93              		.align	1
  94              		.global	GetTime
  95              		.syntax unified
  96              		.thumb
  97              		.thumb_func
  99              	GetTime:
 100              	.LVL6:
 101              	.LFB814:
  28:Core/Src/rtc.c **** 	uint8_t I2C_status = I2C_OK;
 102              		.loc 1 28 1 is_stmt 1 view -0
 103              		.cfi_startproc
 104              		@ args = 0, pretend = 0, frame = 0
 105              		@ frame_needed = 0, uses_anonymous_args = 0
  28:Core/Src/rtc.c **** 	uint8_t I2C_status = I2C_OK;
 106              		.loc 1 28 1 is_stmt 0 view .LVU18
 107 0000 2DE9F041 		push	{r4, r5, r6, r7, r8, lr}
 108              	.LCFI0:
 109              		.cfi_def_cfa_offset 24
 110              		.cfi_offset 4, -24
 111              		.cfi_offset 5, -20
 112              		.cfi_offset 6, -16
 113              		.cfi_offset 7, -12
 114              		.cfi_offset 8, -8
 115              		.cfi_offset 14, -4
 116 0004 0846     		mov	r0, r1
 117              	.LVL7:
  28:Core/Src/rtc.c **** 	uint8_t I2C_status = I2C_OK;
 118              		.loc 1 28 1 view .LVU19
 119 0006 1646     		mov	r6, r2
 120 0008 1C46     		mov	r4, r3
  29:Core/Src/rtc.c **** 
 121              		.loc 1 29 2 is_stmt 1 view .LVU20
ARM GAS  /tmp/ccIHmbY4.s 			page 5


 122              	.LVL8:
  31:Core/Src/rtc.c **** 	{
 123              		.loc 1 31 2 view .LVU21
  31:Core/Src/rtc.c **** 	{
 124              		.loc 1 31 20 is_stmt 0 view .LVU22
 125 000a 1946     		mov	r1, r3
 126              	.LVL9:
  31:Core/Src/rtc.c **** 	{
 127              		.loc 1 31 20 view .LVU23
 128 000c FFF7FEFF 		bl	I2C_ReadBuffer
 129              	.LVL10:
  31:Core/Src/rtc.c **** 	{
 130              		.loc 1 31 5 view .LVU24
 131 0010 0746     		mov	r7, r0
 132 0012 78B1     		cbz	r0, .L11
 133              	.LBB2:
  40:Core/Src/rtc.c **** 		{
 134              		.loc 1 40 16 view .LVU25
 135 0014 0021     		movs	r1, #0
 136 0016 14E0     		b	.L7
 137              	.LVL11:
 138              	.L8:
  40:Core/Src/rtc.c **** 		{
 139              		.loc 1 40 16 view .LVU26
 140              	.LBE2:
 141              	.LBB3:
  35:Core/Src/rtc.c **** 		}
 142              		.loc 1 35 4 is_stmt 1 discriminator 3 view .LVU27
  35:Core/Src/rtc.c **** 		}
 143              		.loc 1 35 15 is_stmt 0 discriminator 3 view .LVU28
 144 0018 A046     		mov	r8, r4
 145              	.LVL12:
  35:Core/Src/rtc.c **** 		}
 146              		.loc 1 35 20 discriminator 3 view .LVU29
 147 001a 18F8010B 		ldrb	r0, [r8], #1	@ zero_extendqisi2
 148              	.LVL13:
  35:Core/Src/rtc.c **** 		}
 149              		.loc 1 35 20 discriminator 3 view .LVU30
 150 001e FFF7FEFF 		bl	RTC_ConvertToDec
 151              	.LVL14:
  35:Core/Src/rtc.c **** 		}
 152              		.loc 1 35 18 discriminator 3 view .LVU31
 153 0022 2070     		strb	r0, [r4]
  33:Core/Src/rtc.c **** 		{
 154              		.loc 1 33 44 is_stmt 1 discriminator 3 view .LVU32
  33:Core/Src/rtc.c **** 		{
 155              		.loc 1 33 49 is_stmt 0 discriminator 3 view .LVU33
 156 0024 0135     		adds	r5, r5, #1
 157              	.LVL15:
  33:Core/Src/rtc.c **** 		{
 158              		.loc 1 33 49 discriminator 3 view .LVU34
 159 0026 EDB2     		uxtb	r5, r5
 160              	.LVL16:
  35:Core/Src/rtc.c **** 		}
 161              		.loc 1 35 15 discriminator 3 view .LVU35
 162 0028 4446     		mov	r4, r8
 163              	.LVL17:
ARM GAS  /tmp/ccIHmbY4.s 			page 6


 164              	.L6:
  33:Core/Src/rtc.c **** 		{
 165              		.loc 1 33 27 is_stmt 1 discriminator 1 view .LVU36
  33:Core/Src/rtc.c **** 		{
 166              		.loc 1 33 3 is_stmt 0 discriminator 1 view .LVU37
 167 002a B542     		cmp	r5, r6
 168 002c F4D3     		bcc	.L8
 169              	.LVL18:
 170              	.L9:
  33:Core/Src/rtc.c **** 		{
 171              		.loc 1 33 3 discriminator 1 view .LVU38
 172              	.LBE3:
  45:Core/Src/rtc.c **** }
 173              		.loc 1 45 2 is_stmt 1 view .LVU39
  46:Core/Src/rtc.c **** 
 174              		.loc 1 46 1 is_stmt 0 view .LVU40
 175 002e 3846     		mov	r0, r7
 176 0030 BDE8F081 		pop	{r4, r5, r6, r7, r8, pc}
 177              	.LVL19:
 178              	.L11:
 179              	.LBB4:
  33:Core/Src/rtc.c **** 		{
 180              		.loc 1 33 16 view .LVU41
 181 0034 0546     		mov	r5, r0
 182 0036 F8E7     		b	.L6
 183              	.LVL20:
 184              	.L10:
  33:Core/Src/rtc.c **** 		{
 185              		.loc 1 33 16 view .LVU42
 186              	.LBE4:
 187              	.LBB5:
  42:Core/Src/rtc.c **** 		}
 188              		.loc 1 42 4 is_stmt 1 discriminator 3 view .LVU43
  42:Core/Src/rtc.c **** 		}
 189              		.loc 1 42 18 is_stmt 0 discriminator 3 view .LVU44
 190 0038 0023     		movs	r3, #0
 191 003a 04F8013B 		strb	r3, [r4], #1
 192              	.LVL21:
  40:Core/Src/rtc.c **** 		{
 193              		.loc 1 40 44 is_stmt 1 discriminator 3 view .LVU45
  40:Core/Src/rtc.c **** 		{
 194              		.loc 1 40 49 is_stmt 0 discriminator 3 view .LVU46
 195 003e 0131     		adds	r1, r1, #1
 196              	.LVL22:
  40:Core/Src/rtc.c **** 		{
 197              		.loc 1 40 49 discriminator 3 view .LVU47
 198 0040 C9B2     		uxtb	r1, r1
 199              	.LVL23:
 200              	.L7:
  40:Core/Src/rtc.c **** 		{
 201              		.loc 1 40 27 is_stmt 1 discriminator 1 view .LVU48
  40:Core/Src/rtc.c **** 		{
 202              		.loc 1 40 3 is_stmt 0 discriminator 1 view .LVU49
 203 0042 B142     		cmp	r1, r6
 204 0044 F8D3     		bcc	.L10
  40:Core/Src/rtc.c **** 		{
 205              		.loc 1 40 3 discriminator 1 view .LVU50
ARM GAS  /tmp/ccIHmbY4.s 			page 7


 206 0046 F2E7     		b	.L9
 207              	.LBE5:
 208              		.cfi_endproc
 209              	.LFE814:
 211              		.section	.text.GetTemp,"ax",%progbits
 212              		.align	1
 213              		.global	GetTemp
 214              		.syntax unified
 215              		.thumb
 216              		.thumb_func
 218              	GetTemp:
 219              	.LVL24:
 220              	.LFB815:
  50:Core/Src/rtc.c **** 	uint8_t I2C_status = I2C_OK;
 221              		.loc 1 50 1 is_stmt 1 view -0
 222              		.cfi_startproc
 223              		@ args = 0, pretend = 0, frame = 0
 224              		@ frame_needed = 0, uses_anonymous_args = 0
  50:Core/Src/rtc.c **** 	uint8_t I2C_status = I2C_OK;
 225              		.loc 1 50 1 is_stmt 0 view .LVU52
 226 0000 10B5     		push	{r4, lr}
 227              	.LCFI1:
 228              		.cfi_def_cfa_offset 8
 229              		.cfi_offset 4, -8
 230              		.cfi_offset 14, -4
 231 0002 0846     		mov	r0, r1
 232              	.LVL25:
  50:Core/Src/rtc.c **** 	uint8_t I2C_status = I2C_OK;
 233              		.loc 1 50 1 view .LVU53
 234 0004 1446     		mov	r4, r2
  51:Core/Src/rtc.c **** 	if ((I2C_status = I2C_ReadByte (registr_adress,  temp_buffer)) != I2C_OK)
 235              		.loc 1 51 2 is_stmt 1 view .LVU54
 236              	.LVL26:
  52:Core/Src/rtc.c **** 	{
 237              		.loc 1 52 2 view .LVU55
  52:Core/Src/rtc.c **** 	{
 238              		.loc 1 52 20 is_stmt 0 view .LVU56
 239 0006 1146     		mov	r1, r2
 240              	.LVL27:
  52:Core/Src/rtc.c **** 	{
 241              		.loc 1 52 20 view .LVU57
 242 0008 FFF7FEFF 		bl	I2C_ReadByte
 243              	.LVL28:
  52:Core/Src/rtc.c **** 	{
 244              		.loc 1 52 5 view .LVU58
 245 000c 08B1     		cbz	r0, .L14
  54:Core/Src/rtc.c **** 	}
 246              		.loc 1 54 3 is_stmt 1 view .LVU59
  54:Core/Src/rtc.c **** 	}
 247              		.loc 1 54 16 is_stmt 0 view .LVU60
 248 000e 0023     		movs	r3, #0
 249 0010 2370     		strb	r3, [r4]
 250              	.L14:
  57:Core/Src/rtc.c **** }
 251              		.loc 1 57 2 is_stmt 1 view .LVU61
  58:Core/Src/rtc.c **** 
 252              		.loc 1 58 1 is_stmt 0 view .LVU62
ARM GAS  /tmp/ccIHmbY4.s 			page 8


 253 0012 10BD     		pop	{r4, pc}
  58:Core/Src/rtc.c **** 
 254              		.loc 1 58 1 view .LVU63
 255              		.cfi_endproc
 256              	.LFE815:
 258              		.section	.text.SetTime,"ax",%progbits
 259              		.align	1
 260              		.global	SetTime
 261              		.syntax unified
 262              		.thumb
 263              		.thumb_func
 265              	SetTime:
 266              	.LVL29:
 267              	.LFB816:
  62:Core/Src/rtc.c **** 	//—Ñ–æ—Ä–º–∏—Ä–æ–≤–∞–Ω–∏–µ —Å–æ–æ–±—â–µ–Ω–∏—è –¥–ª—è RTC	
 268              		.loc 1 62 1 is_stmt 1 view -0
 269              		.cfi_startproc
 270              		@ args = 0, pretend = 0, frame = 8
 271              		@ frame_needed = 0, uses_anonymous_args = 0
  62:Core/Src/rtc.c **** 	//—Ñ–æ—Ä–º–∏—Ä–æ–≤–∞–Ω–∏–µ —Å–æ–æ–±—â–µ–Ω–∏—è –¥–ª—è RTC	
 272              		.loc 1 62 1 is_stmt 0 view .LVU65
 273 0000 2DE9F041 		push	{r4, r5, r6, r7, r8, lr}
 274              	.LCFI2:
 275              		.cfi_def_cfa_offset 24
 276              		.cfi_offset 4, -24
 277              		.cfi_offset 5, -20
 278              		.cfi_offset 6, -16
 279              		.cfi_offset 7, -12
 280              		.cfi_offset 8, -8
 281              		.cfi_offset 14, -4
 282 0004 82B0     		sub	sp, sp, #8
 283              	.LCFI3:
 284              		.cfi_def_cfa_offset 32
 285 0006 0D46     		mov	r5, r1
 286 0008 1446     		mov	r4, r2
  64:Core/Src/rtc.c **** 	//uint8_t * ptr_RTC_buffer = I2C_RTC_buffer;
 287              		.loc 1 64 2 is_stmt 1 view .LVU66
  64:Core/Src/rtc.c **** 	//uint8_t * ptr_RTC_buffer = I2C_RTC_buffer;
 288              		.loc 1 64 10 is_stmt 0 view .LVU67
 289 000a 0020     		movs	r0, #0
 290              	.LVL30:
  64:Core/Src/rtc.c **** 	//uint8_t * ptr_RTC_buffer = I2C_RTC_buffer;
 291              		.loc 1 64 10 view .LVU68
 292 000c 0190     		str	r0, [sp, #4]
  66:Core/Src/rtc.c **** 	char buf_ch;
 293              		.loc 1 66 2 is_stmt 1 view .LVU69
 294              	.LVL31:
  67:Core/Src/rtc.c **** 	
 295              		.loc 1 67 2 view .LVU70
  69:Core/Src/rtc.c **** 	{
 296              		.loc 1 69 2 view .LVU71
 297              	.LBB6:
  69:Core/Src/rtc.c **** 	{
 298              		.loc 1 69 7 view .LVU72
  69:Core/Src/rtc.c **** 	{
 299              		.loc 1 69 7 is_stmt 0 view .LVU73
 300              	.LBE6:
ARM GAS  /tmp/ccIHmbY4.s 			page 9


  66:Core/Src/rtc.c **** 	char buf_ch;
 301              		.loc 1 66 14 view .LVU74
 302 000e 0126     		movs	r6, #1
 303              	.LBB7:
  69:Core/Src/rtc.c **** 	{
 304              		.loc 1 69 2 view .LVU75
 305 0010 12E0     		b	.L17
 306              	.LVL32:
 307              	.L19:
  80:Core/Src/rtc.c **** 				I2C_RTC_buffer [ptr] = RTC_ConvertToBinDec(I2C_RTC_buffer [ptr]); //–ø–µ—Ä–µ–≤–æ–¥ –≤ –¥–≤–æ–∏—
 308              		.loc 1 80 5 is_stmt 1 view .LVU76
  80:Core/Src/rtc.c **** 				I2C_RTC_buffer [ptr] = RTC_ConvertToBinDec(I2C_RTC_buffer [ptr]); //–ø–µ—Ä–µ–≤–æ–¥ –≤ –¥–≤–æ–∏—
 309              		.loc 1 80 26 is_stmt 0 view .LVU77
 310 0012 06F10803 		add	r3, r6, #8
 311 0016 0DEB0308 		add	r8, sp, r3
 312 001a 18F8040C 		ldrb	r0, [r8, #-4]	@ zero_extendqisi2
 313              	.LVL33:
  80:Core/Src/rtc.c **** 				I2C_RTC_buffer [ptr] = RTC_ConvertToBinDec(I2C_RTC_buffer [ptr]); //–ø–µ—Ä–µ–≤–æ–¥ –≤ –¥–≤–æ–∏—
 314              		.loc 1 80 26 view .LVU78
 315 001e 6044     		add	r0, r0, ip
 316 0020 3038     		subs	r0, r0, #48
 317 0022 C0B2     		uxtb	r0, r0
 318 0024 08F8040C 		strb	r0, [r8, #-4]
  81:Core/Src/rtc.c **** 				ptr++;
 319              		.loc 1 81 5 is_stmt 1 view .LVU79
  81:Core/Src/rtc.c **** 				ptr++;
 320              		.loc 1 81 28 is_stmt 0 view .LVU80
 321 0028 FFF7FEFF 		bl	RTC_ConvertToBinDec
 322              	.LVL34:
  81:Core/Src/rtc.c **** 				ptr++;
 323              		.loc 1 81 26 view .LVU81
 324 002c 08F8040C 		strb	r0, [r8, #-4]
  82:Core/Src/rtc.c **** 			}
 325              		.loc 1 82 5 is_stmt 1 view .LVU82
  82:Core/Src/rtc.c **** 			}
 326              		.loc 1 82 8 is_stmt 0 view .LVU83
 327 0030 0136     		adds	r6, r6, #1
 328              	.LVL35:
  82:Core/Src/rtc.c **** 			}
 329              		.loc 1 82 8 view .LVU84
 330 0032 76B2     		sxtb	r6, r6
 331              	.LVL36:
 332              	.L20:
  69:Core/Src/rtc.c **** 	{
 333              		.loc 1 69 41 is_stmt 1 discriminator 2 view .LVU85
  69:Core/Src/rtc.c **** 	{
 334              		.loc 1 69 46 is_stmt 0 discriminator 2 view .LVU86
 335 0034 781C     		adds	r0, r7, #1
 336 0036 40B2     		sxtb	r0, r0
 337              	.LVL37:
 338              	.L17:
  69:Core/Src/rtc.c **** 	{
 339              		.loc 1 69 30 is_stmt 1 discriminator 1 view .LVU87
  69:Core/Src/rtc.c **** 	{
 340              		.loc 1 69 2 is_stmt 0 discriminator 1 view .LVU88
 341 0038 0528     		cmp	r0, #5
 342 003a 16DC     		bgt	.L24
ARM GAS  /tmp/ccIHmbY4.s 			page 10


  71:Core/Src/rtc.c **** 		if ((buf_ch >= 0x30) && (buf_ch <= 0x39))
 343              		.loc 1 71 3 is_stmt 1 view .LVU89
  71:Core/Src/rtc.c **** 		if ((buf_ch >= 0x30) && (buf_ch <= 0x39))
 344              		.loc 1 71 10 is_stmt 0 view .LVU90
 345 003c 14F800C0 		ldrb	ip, [r4, r0]	@ zero_extendqisi2
 346              	.LVL38:
  72:Core/Src/rtc.c **** 		{
 347              		.loc 1 72 3 is_stmt 1 view .LVU91
  72:Core/Src/rtc.c **** 		{
 348              		.loc 1 72 24 is_stmt 0 view .LVU92
 349 0040 ACF13003 		sub	r3, ip, #48
 350 0044 DBB2     		uxtb	r3, r3
  72:Core/Src/rtc.c **** 		{
 351              		.loc 1 72 6 view .LVU93
 352 0046 092B     		cmp	r3, #9
 353 0048 15D8     		bhi	.L22
  74:Core/Src/rtc.c **** 			{
 354              		.loc 1 74 4 is_stmt 1 view .LVU94
  74:Core/Src/rtc.c **** 			{
 355              		.loc 1 74 8 is_stmt 0 view .LVU95
 356 004a C7B2     		uxtb	r7, r0
  74:Core/Src/rtc.c **** 			{
 357              		.loc 1 74 7 view .LVU96
 358 004c 10F0010F 		tst	r0, #1
 359 0050 DFD1     		bne	.L19
  76:Core/Src/rtc.c **** 			}
 360              		.loc 1 76 5 is_stmt 1 view .LVU97
  76:Core/Src/rtc.c **** 			}
 361              		.loc 1 76 26 is_stmt 0 view .LVU98
 362 0052 03EB8303 		add	r3, r3, r3, lsl #2
 363 0056 06F10802 		add	r2, r6, #8
 364 005a 6A44     		add	r2, sp, r2
 365 005c 12F8041C 		ldrb	r1, [r2, #-4]	@ zero_extendqisi2
 366 0060 01EB4303 		add	r3, r1, r3, lsl #1
 367 0064 02F8043C 		strb	r3, [r2, #-4]
 368 0068 E4E7     		b	.L20
 369              	.LVL39:
 370              	.L24:
  76:Core/Src/rtc.c **** 			}
 371              		.loc 1 76 26 view .LVU99
 372              	.LBE7:
  88:Core/Src/rtc.c **** 	
 373              		.loc 1 88 2 is_stmt 1 view .LVU100
  88:Core/Src/rtc.c **** 	
 374              		.loc 1 88 21 is_stmt 0 view .LVU101
 375 006a 8DF80450 		strb	r5, [sp, #4]
  93:Core/Src/rtc.c **** }
 376              		.loc 1 93 2 is_stmt 1 view .LVU102
  93:Core/Src/rtc.c **** }
 377              		.loc 1 93 10 is_stmt 0 view .LVU103
 378 006e 0020     		movs	r0, #0
 379              	.LVL40:
 380              	.L18:
  94:Core/Src/rtc.c **** 
 381              		.loc 1 94 1 view .LVU104
 382 0070 02B0     		add	sp, sp, #8
 383              	.LCFI4:
ARM GAS  /tmp/ccIHmbY4.s 			page 11


 384              		.cfi_remember_state
 385              		.cfi_def_cfa_offset 24
 386              		@ sp needed
 387 0072 BDE8F081 		pop	{r4, r5, r6, r7, r8, pc}
 388              	.LVL41:
 389              	.L22:
 390              	.LCFI5:
 391              		.cfi_restore_state
 392              	.LBB8:
  86:Core/Src/rtc.c **** 	}
 393              		.loc 1 86 13 view .LVU105
 394 0076 0120     		movs	r0, #1
 395              	.LVL42:
  86:Core/Src/rtc.c **** 	}
 396              		.loc 1 86 13 view .LVU106
 397 0078 FAE7     		b	.L18
 398              	.LBE8:
 399              		.cfi_endproc
 400              	.LFE816:
 402              		.section	.text.read_reg_RTC,"ax",%progbits
 403              		.align	1
 404              		.global	read_reg_RTC
 405              		.syntax unified
 406              		.thumb
 407              		.thumb_func
 409              	read_reg_RTC:
 410              	.LVL43:
 411              	.LFB819:
 109:Core/Src/rtc.c **** 
 110:Core/Src/rtc.c **** 
 111:Core/Src/rtc.c **** //-------------------------------------------------------------------------------------------------
 112:Core/Src/rtc.c **** uint8_t read_reg_RTC (uint8_t adress, uint8_t sizebuf)
 113:Core/Src/rtc.c **** {
 412              		.loc 1 113 1 is_stmt 1 view -0
 413              		.cfi_startproc
 414              		@ args = 0, pretend = 0, frame = 0
 415              		@ frame_needed = 1, uses_anonymous_args = 0
 416              		.loc 1 113 1 is_stmt 0 view .LVU108
 417 0000 F8B5     		push	{r3, r4, r5, r6, r7, lr}
 418              	.LCFI6:
 419              		.cfi_def_cfa_offset 24
 420              		.cfi_offset 3, -24
 421              		.cfi_offset 4, -20
 422              		.cfi_offset 5, -16
 423              		.cfi_offset 6, -12
 424              		.cfi_offset 7, -8
 425              		.cfi_offset 14, -4
 426 0002 00AF     		add	r7, sp, #0
 427              	.LCFI7:
 428              		.cfi_def_cfa_register 7
 429 0004 0E46     		mov	r6, r1
 114:Core/Src/rtc.c **** 	uint8_t reg_adr = 0x02; //–∞–¥—Ä–µ—Å —Ä–µ–≥–∏—Å—Ç—Ä–∞ RTC 
 430              		.loc 1 114 2 is_stmt 1 view .LVU109
 431              	.LVL44:
 115:Core/Src/rtc.c **** 	uint8_t I2C_RTC_buffer [sizebuf];
 432              		.loc 1 115 2 view .LVU110
 433              		.loc 1 115 10 is_stmt 0 view .LVU111
ARM GAS  /tmp/ccIHmbY4.s 			page 12


 434 0006 CB1D     		adds	r3, r1, #7
 435 0008 03F4FC73 		and	r3, r3, #504
 436 000c ADEB030D 		sub	sp, sp, r3
 437 0010 6D46     		mov	r5, sp
 438              	.LVL45:
 116:Core/Src/rtc.c **** 	
 117:Core/Src/rtc.c **** 	/*if(HAL_I2C_Master_Transmit(&hi2c1, (uint16_t)adress, &reg_adr, 1, (uint32_t)0xFFFF)!= HAL_OK) //
 118:Core/Src/rtc.c **** 	
 119:Core/Src/rtc.c **** 	while(HAL_I2C_GetState(&hi2c1)!=HAL_I2C_STATE_READY){}
 120:Core/Src/rtc.c **** 		
 121:Core/Src/rtc.c **** 	if (HAL_I2C_Master_Receive (&hi2c1, (uint16_t) adress, (uint8_t*)I2C_RTC_buffer, (uint16_t) sizebu
 122:Core/Src/rtc.c **** 	{	return 1;	}*/
 123:Core/Src/rtc.c **** 	
 124:Core/Src/rtc.c **** 	for (uint8_t count = 0; count < sizebuf; count++) //–ø–µ—Ä–µ–≤–æ–¥ —á–∏—Å–ª–∞ –∏–∑ –¥–≤–æ–∏—á–Ω–æ-
 439              		.loc 1 124 2 is_stmt 1 view .LVU112
 440              	.LBB9:
 441              		.loc 1 124 7 view .LVU113
 442              		.loc 1 124 15 is_stmt 0 view .LVU114
 443 0012 0024     		movs	r4, #0
 444              		.loc 1 124 2 view .LVU115
 445 0014 05E0     		b	.L26
 446              	.LVL46:
 447              	.L27:
 125:Core/Src/rtc.c **** 	{	I2C_RTC_buffer[count] = RTC_ConvertToDec(I2C_RTC_buffer[count]);	}
 448              		.loc 1 125 4 is_stmt 1 discriminator 3 view .LVU116
 449              		.loc 1 125 28 is_stmt 0 discriminator 3 view .LVU117
 450 0016 285D     		ldrb	r0, [r5, r4]	@ zero_extendqisi2
 451 0018 FFF7FEFF 		bl	RTC_ConvertToDec
 452              	.LVL47:
 453              		.loc 1 125 26 discriminator 3 view .LVU118
 454 001c 2855     		strb	r0, [r5, r4]
 124:Core/Src/rtc.c **** 	{	I2C_RTC_buffer[count] = RTC_ConvertToDec(I2C_RTC_buffer[count]);	}
 455              		.loc 1 124 43 is_stmt 1 discriminator 3 view .LVU119
 124:Core/Src/rtc.c **** 	{	I2C_RTC_buffer[count] = RTC_ConvertToDec(I2C_RTC_buffer[count]);	}
 456              		.loc 1 124 48 is_stmt 0 discriminator 3 view .LVU120
 457 001e 0134     		adds	r4, r4, #1
 458              	.LVL48:
 124:Core/Src/rtc.c **** 	{	I2C_RTC_buffer[count] = RTC_ConvertToDec(I2C_RTC_buffer[count]);	}
 459              		.loc 1 124 48 discriminator 3 view .LVU121
 460 0020 E4B2     		uxtb	r4, r4
 461              	.LVL49:
 462              	.L26:
 124:Core/Src/rtc.c **** 	{	I2C_RTC_buffer[count] = RTC_ConvertToDec(I2C_RTC_buffer[count]);	}
 463              		.loc 1 124 26 is_stmt 1 discriminator 1 view .LVU122
 124:Core/Src/rtc.c **** 	{	I2C_RTC_buffer[count] = RTC_ConvertToDec(I2C_RTC_buffer[count]);	}
 464              		.loc 1 124 2 is_stmt 0 discriminator 1 view .LVU123
 465 0022 B442     		cmp	r4, r6
 466 0024 F7D3     		bcc	.L27
 467              	.LBE9:
 126:Core/Src/rtc.c **** 	
 127:Core/Src/rtc.c **** 	return  0;
 468              		.loc 1 127 2 is_stmt 1 view .LVU124
 128:Core/Src/rtc.c **** }
 469              		.loc 1 128 1 is_stmt 0 view .LVU125
 470 0026 0020     		movs	r0, #0
 471 0028 BD46     		mov	sp, r7
 472              	.LCFI8:
ARM GAS  /tmp/ccIHmbY4.s 			page 13


 473              		.cfi_def_cfa_register 13
 474              		@ sp needed
 475 002a F8BD     		pop	{r3, r4, r5, r6, r7, pc}
 476              		.loc 1 128 1 view .LVU126
 477              		.cfi_endproc
 478              	.LFE819:
 480              		.section	.text.edit_RTC_data,"ax",%progbits
 481              		.align	1
 482              		.global	edit_RTC_data
 483              		.syntax unified
 484              		.thumb
 485              		.thumb_func
 487              	edit_RTC_data:
 488              	.LVL50:
 489              	.LFB820:
 129:Core/Src/rtc.c **** 
 130:Core/Src/rtc.c **** //----------------------------------------------------------------------------------//
 131:Core/Src/rtc.c **** void edit_RTC_data (uint8_t adress,  char * time)
 132:Core/Src/rtc.c **** {	
 490              		.loc 1 132 1 is_stmt 1 view -0
 491              		.cfi_startproc
 492              		@ args = 0, pretend = 0, frame = 0
 493              		@ frame_needed = 0, uses_anonymous_args = 0
 494              		@ link register save eliminated.
 133:Core/Src/rtc.c **** 
 134:Core/Src/rtc.c **** }
 495              		.loc 1 134 1 view .LVU128
 496 0000 7047     		bx	lr
 497              		.cfi_endproc
 498              	.LFE820:
 500              		.section	.text.get_file_title,"ax",%progbits
 501              		.align	1
 502              		.global	get_file_title
 503              		.syntax unified
 504              		.thumb
 505              		.thumb_func
 507              	get_file_title:
 508              	.LFB821:
 135:Core/Src/rtc.c **** 
 136:Core/Src/rtc.c **** //----------------------------------------------------------------------------------//
 137:Core/Src/rtc.c **** uint8_t get_file_title (void)
 138:Core/Src/rtc.c **** {
 509              		.loc 1 138 1 view -0
 510              		.cfi_startproc
 511              		@ args = 0, pretend = 0, frame = 8
 512              		@ frame_needed = 0, uses_anonymous_args = 0
 513 0000 00B5     		push	{lr}
 514              	.LCFI9:
 515              		.cfi_def_cfa_offset 4
 516              		.cfi_offset 14, -4
 517 0002 83B0     		sub	sp, sp, #12
 518              	.LCFI10:
 519              		.cfi_def_cfa_offset 16
 139:Core/Src/rtc.c **** 	uint8_t Date [3]; 
 520              		.loc 1 139 2 view .LVU130
 140:Core/Src/rtc.c **** 	uint8_t file_title = 0;
 521              		.loc 1 140 2 view .LVU131
ARM GAS  /tmp/ccIHmbY4.s 			page 14


 522              	.LVL51:
 141:Core/Src/rtc.c **** 	
 142:Core/Src/rtc.c **** 	GetTime (RTC_ADDRESS,  FIRST_REGISTR_DATE, 3, Date); //—á—Ç–µ–Ω–∏–µ —Ä–µ–≥–∏—Å—Ç—Ä–æ–≤ 0—Ö4-0—Ö6 (
 523              		.loc 1 142 2 view .LVU132
 524 0004 01AB     		add	r3, sp, #4
 525 0006 0322     		movs	r2, #3
 526 0008 0421     		movs	r1, #4
 527 000a D020     		movs	r0, #208
 528 000c FFF7FEFF 		bl	GetTime
 529              	.LVL52:
 143:Core/Src/rtc.c **** 	file_title = ((pred_sum [0][*(Date+1)-1] )+ *Date); //–∏–∑–≤–ª–µ—á–µ–Ω–∏–µ –Ω–µ –≤–∏—Å–æ–∫–æ—Å–Ω–æ
 530              		.loc 1 143 2 view .LVU133
 531              		.loc 1 143 30 is_stmt 0 view .LVU134
 532 0010 9DF80530 		ldrb	r3, [sp, #5]	@ zero_extendqisi2
 533              		.loc 1 143 39 view .LVU135
 534 0014 013B     		subs	r3, r3, #1
 535              		.loc 1 143 44 view .LVU136
 536 0016 054A     		ldr	r2, .L32
 537 0018 12F82300 		ldrb	r0, [r2, r3, lsl #2]	@ zero_extendqisi2
 538              		.loc 1 143 46 view .LVU137
 539 001c 9DF80430 		ldrb	r3, [sp, #4]	@ zero_extendqisi2
 540              		.loc 1 143 13 view .LVU138
 541 0020 1844     		add	r0, r0, r3
 542              	.LVL53:
 144:Core/Src/rtc.c **** 	
 145:Core/Src/rtc.c **** 	return file_title;
 543              		.loc 1 145 2 is_stmt 1 view .LVU139
 146:Core/Src/rtc.c **** }
 544              		.loc 1 146 1 is_stmt 0 view .LVU140
 545 0022 C0B2     		uxtb	r0, r0
 546              		.loc 1 146 1 view .LVU141
 547 0024 03B0     		add	sp, sp, #12
 548              	.LCFI11:
 549              		.cfi_def_cfa_offset 4
 550              		@ sp needed
 551 0026 5DF804FB 		ldr	pc, [sp], #4
 552              	.L33:
 553 002a 00BF     		.align	2
 554              	.L32:
 555 002c 00000000 		.word	.LANCHOR0
 556              		.cfi_endproc
 557              	.LFE821:
 559              		.section	.text.convert_time,"ax",%progbits
 560              		.align	1
 561              		.global	convert_time
 562              		.syntax unified
 563              		.thumb
 564              		.thumb_func
 566              	convert_time:
 567              	.LVL54:
 568              	.LFB822:
 147:Core/Src/rtc.c **** 
 148:Core/Src/rtc.c **** //------------------–ø–µ—Ä–µ–≤–æ–¥ –¥–∞–Ω–Ω—ã—Ö –≤—Ä–µ–º–µ–Ω–∏ –∏–∑ —á–∏—Å–ª–æ–≤–æ–π –≤ —Å–∏–º–≤–æ–
 149:Core/Src/rtc.c **** void convert_time (char * mod_time_data, uint8_t * time_data, uint8_t time_size)
 150:Core/Src/rtc.c **** {
 569              		.loc 1 150 1 is_stmt 1 view -0
 570              		.cfi_startproc
ARM GAS  /tmp/ccIHmbY4.s 			page 15


 571              		@ args = 0, pretend = 0, frame = 0
 572              		@ frame_needed = 0, uses_anonymous_args = 0
 151:Core/Src/rtc.c **** 		
 152:Core/Src/rtc.c **** 	for (int8_t count = (time_size-1); count >= 0; count--)
 573              		.loc 1 152 2 view .LVU143
 574              	.LBB10:
 575              		.loc 1 152 7 view .LVU144
 576              		.loc 1 152 32 is_stmt 0 view .LVU145
 577 0000 02F1FF3C 		add	ip, r2, #-1
 578              		.loc 1 152 14 view .LVU146
 579 0004 4FFA8CFC 		sxtb	ip, ip
 580              	.LVL55:
 581              		.loc 1 152 37 is_stmt 1 view .LVU147
 582              		.loc 1 152 2 is_stmt 0 view .LVU148
 583 0008 BCF1000F 		cmp	ip, #0
 584 000c 1EDB     		blt	.L40
 585              	.LBE10:
 150:Core/Src/rtc.c **** 		
 586              		.loc 1 150 1 view .LVU149
 587 000e 10B5     		push	{r4, lr}
 588              	.LCFI12:
 589              		.cfi_def_cfa_offset 8
 590              		.cfi_offset 4, -8
 591              		.cfi_offset 14, -4
 592              	.LVL56:
 593              	.L36:
 594              	.LBB11:
 153:Core/Src/rtc.c **** 	{
 154:Core/Src/rtc.c **** 		*mod_time_data++ = (*(time_data + count) / 10) + 0x30; //—Å–Ω–∞—á–∞–ª–∞ —á–∞—Å—ã
 595              		.loc 1 154 3 is_stmt 1 discriminator 3 view .LVU150
 596              		.loc 1 154 23 is_stmt 0 discriminator 3 view .LVU151
 597 0010 11F80C20 		ldrb	r2, [r1, ip]	@ zero_extendqisi2
 598              	.LVL57:
 599              		.loc 1 154 50 discriminator 3 view .LVU152
 600 0014 0E4B     		ldr	r3, .L41
 601 0016 A3FB02E2 		umull	lr, r2, r3, r2
 602 001a D208     		lsrs	r2, r2, #3
 603 001c 3032     		adds	r2, r2, #48
 604              		.loc 1 154 20 discriminator 3 view .LVU153
 605 001e 8646     		mov	lr, r0
 606 0020 0EF8022B 		strb	r2, [lr], #2
 155:Core/Src/rtc.c **** 		*mod_time_data++ = (*(time_data + count) % 10) + 0x30;
 607              		.loc 1 155 3 is_stmt 1 discriminator 3 view .LVU154
 608              		.loc 1 155 23 is_stmt 0 discriminator 3 view .LVU155
 609 0024 11F80C20 		ldrb	r2, [r1, ip]	@ zero_extendqisi2
 610              	.LVL58:
 611              		.loc 1 155 50 discriminator 3 view .LVU156
 612 0028 A3FB0243 		umull	r4, r3, r3, r2
 613 002c DB08     		lsrs	r3, r3, #3
 614 002e 03EB8303 		add	r3, r3, r3, lsl #2
 615 0032 A2EB4303 		sub	r3, r2, r3, lsl #1
 616 0036 3033     		adds	r3, r3, #48
 617              		.loc 1 155 20 discriminator 3 view .LVU157
 618 0038 4370     		strb	r3, [r0, #1]
 152:Core/Src/rtc.c **** 	{
 619              		.loc 1 152 49 is_stmt 1 discriminator 3 view .LVU158
 152:Core/Src/rtc.c **** 	{
ARM GAS  /tmp/ccIHmbY4.s 			page 16


 620              		.loc 1 152 54 is_stmt 0 discriminator 3 view .LVU159
 621 003a 0CF1FF3C 		add	ip, ip, #-1
 622              	.LVL59:
 152:Core/Src/rtc.c **** 	{
 623              		.loc 1 152 54 discriminator 3 view .LVU160
 624 003e 4FFA8CFC 		sxtb	ip, ip
 625              	.LVL60:
 626              		.loc 1 155 17 discriminator 3 view .LVU161
 627 0042 7046     		mov	r0, lr
 152:Core/Src/rtc.c **** 	{
 628              		.loc 1 152 37 is_stmt 1 discriminator 3 view .LVU162
 152:Core/Src/rtc.c **** 	{
 629              		.loc 1 152 2 is_stmt 0 discriminator 3 view .LVU163
 630 0044 BCF1000F 		cmp	ip, #0
 631 0048 E2DA     		bge	.L36
 632              	.LBE11:
 156:Core/Src/rtc.c **** 		
 157:Core/Src/rtc.c **** 		//if (count > 0)
 158:Core/Src/rtc.c **** 		//{	*mod_time_data++ = ':'; } //–¥–æ–±–∞–≤–ª–µ–Ω–∏–µ –∑–Ω–∞–∫–∞ ':'
 159:Core/Src/rtc.c **** 	}
 160:Core/Src/rtc.c **** }
 633              		.loc 1 160 1 view .LVU164
 634 004a 10BD     		pop	{r4, pc}
 635              	.LVL61:
 636              	.L40:
 637              	.LCFI13:
 638              		.cfi_def_cfa_offset 0
 639              		.cfi_restore 4
 640              		.cfi_restore 14
 641              		.loc 1 160 1 view .LVU165
 642 004c 7047     		bx	lr
 643              	.L42:
 644 004e 00BF     		.align	2
 645              	.L41:
 646 0050 CDCCCCCC 		.word	-858993459
 647              		.cfi_endproc
 648              	.LFE822:
 650              		.global	pred_sum
 651              		.global	TimeStamp
 652              		.global	RTC_I2C
 653              		.section	.bss.TimeStamp,"aw",%nobits
 654              		.align	2
 657              	TimeStamp:
 658 0000 00000000 		.space	36
 658      00000000 
 658      00000000 
 658      00000000 
 658      00000000 
 659              		.section	.data.RTC_I2C,"aw"
 660              		.align	2
 663              	RTC_I2C:
 664 0000 00540040 		.word	1073763328
 665              		.section	.rodata.pred_sum,"a"
 666              		.align	2
 667              		.set	.LANCHOR0,. + 0
 670              	pred_sum:
 671 0000 00000000 		.word	0
ARM GAS  /tmp/ccIHmbY4.s 			page 17


 672 0004 1F000000 		.word	31
 673 0008 3B000000 		.word	59
 674 000c 5A000000 		.word	90
 675 0010 78000000 		.word	120
 676 0014 97000000 		.word	151
 677 0018 B5000000 		.word	181
 678 001c D4000000 		.word	212
 679 0020 F3000000 		.word	243
 680 0024 11010000 		.word	273
 681 0028 30010000 		.word	304
 682 002c 4E010000 		.word	334
 683 0030 00000000 		.word	0
 684 0034 1F000000 		.word	31
 685 0038 3C000000 		.word	60
 686 003c 5B000000 		.word	91
 687 0040 79000000 		.word	121
 688 0044 98000000 		.word	152
 689 0048 B6000000 		.word	182
 690 004c D5000000 		.word	213
 691 0050 F4000000 		.word	244
 692 0054 12010000 		.word	274
 693 0058 31010000 		.word	305
 694 005c 4F010000 		.word	335
 695              		.text
 696              	.Letext0:
 697              		.file 2 "/home/arashamf/soft/ARM_toolchains/gcc-arm-none-eabi-10.3-2021.10/arm-none-eabi/include/m
 698              		.file 3 "/home/arashamf/soft/ARM_toolchains/gcc-arm-none-eabi-10.3-2021.10/arm-none-eabi/include/s
 699              		.file 4 "Drivers/CMSIS/Device/ST/STM32L1xx/Include/stm32l151xb.h"
 700              		.file 5 "Drivers/STM32L1xx_HAL_Driver/Inc/stm32l1xx_ll_dma.h"
 701              		.file 6 "Drivers/STM32L1xx_HAL_Driver/Inc/stm32l1xx_ll_tim.h"
 702              		.file 7 "/home/arashamf/soft/ARM_toolchains/gcc-arm-none-eabi-10.3-2021.10/arm-none-eabi/include/t
 703              		.file 8 "Core/Inc/i2c.h"
 704              		.file 9 "Core/Inc/typedef.h"
ARM GAS  /tmp/ccIHmbY4.s 			page 18


DEFINED SYMBOLS
                            *ABS*:0000000000000000 rtc.c
     /tmp/ccIHmbY4.s:18     .text.RTC_ConvertToDec:0000000000000000 $t
     /tmp/ccIHmbY4.s:23     .text.RTC_ConvertToDec:0000000000000000 RTC_ConvertToDec
     /tmp/ccIHmbY4.s:51     .text.RTC_ConvertToBinDec:0000000000000000 $t
     /tmp/ccIHmbY4.s:56     .text.RTC_ConvertToBinDec:0000000000000000 RTC_ConvertToBinDec
     /tmp/ccIHmbY4.s:88     .text.RTC_ConvertToBinDec:000000000000001c $d
     /tmp/ccIHmbY4.s:93     .text.GetTime:0000000000000000 $t
     /tmp/ccIHmbY4.s:99     .text.GetTime:0000000000000000 GetTime
     /tmp/ccIHmbY4.s:212    .text.GetTemp:0000000000000000 $t
     /tmp/ccIHmbY4.s:218    .text.GetTemp:0000000000000000 GetTemp
     /tmp/ccIHmbY4.s:259    .text.SetTime:0000000000000000 $t
     /tmp/ccIHmbY4.s:265    .text.SetTime:0000000000000000 SetTime
     /tmp/ccIHmbY4.s:403    .text.read_reg_RTC:0000000000000000 $t
     /tmp/ccIHmbY4.s:409    .text.read_reg_RTC:0000000000000000 read_reg_RTC
     /tmp/ccIHmbY4.s:481    .text.edit_RTC_data:0000000000000000 $t
     /tmp/ccIHmbY4.s:487    .text.edit_RTC_data:0000000000000000 edit_RTC_data
     /tmp/ccIHmbY4.s:501    .text.get_file_title:0000000000000000 $t
     /tmp/ccIHmbY4.s:507    .text.get_file_title:0000000000000000 get_file_title
     /tmp/ccIHmbY4.s:555    .text.get_file_title:000000000000002c $d
     /tmp/ccIHmbY4.s:560    .text.convert_time:0000000000000000 $t
     /tmp/ccIHmbY4.s:566    .text.convert_time:0000000000000000 convert_time
     /tmp/ccIHmbY4.s:646    .text.convert_time:0000000000000050 $d
     /tmp/ccIHmbY4.s:670    .rodata.pred_sum:0000000000000000 pred_sum
     /tmp/ccIHmbY4.s:657    .bss.TimeStamp:0000000000000000 TimeStamp
     /tmp/ccIHmbY4.s:663    .data.RTC_I2C:0000000000000000 RTC_I2C
     /tmp/ccIHmbY4.s:654    .bss.TimeStamp:0000000000000000 $d
     /tmp/ccIHmbY4.s:660    .data.RTC_I2C:0000000000000000 $d
     /tmp/ccIHmbY4.s:666    .rodata.pred_sum:0000000000000000 $d

UNDEFINED SYMBOLS
I2C_ReadBuffer
I2C_ReadByte
