ARM GAS  /tmp/cc6rMAp7.s 			page 1


   1              		.cpu cortex-m3
   2              		.arch armv7-m
   3              		.fpu softvfp
   4              		.eabi_attribute 20, 1
   5              		.eabi_attribute 21, 1
   6              		.eabi_attribute 23, 3
   7              		.eabi_attribute 24, 1
   8              		.eabi_attribute 25, 1
   9              		.eabi_attribute 26, 1
  10              		.eabi_attribute 30, 1
  11              		.eabi_attribute 34, 1
  12              		.eabi_attribute 18, 4
  13              		.file	"stm32l1xx_hal_dma.c"
  14              		.text
  15              	.Ltext0:
  16              		.cfi_sections	.debug_frame
  17              		.section	.text.DMA_SetConfig,"ax",%progbits
  18              		.align	1
  19              		.syntax unified
  20              		.thumb
  21              		.thumb_func
  23              	DMA_SetConfig:
  24              	.LVL0:
  25              	.LFB84:
  26              		.file 1 "Drivers/STM32L1xx_HAL_Driver/Src/stm32l1xx_hal_dma.c"
   1:Drivers/STM32L1xx_HAL_Driver/Src/stm32l1xx_hal_dma.c **** /**
   2:Drivers/STM32L1xx_HAL_Driver/Src/stm32l1xx_hal_dma.c ****   ******************************************************************************
   3:Drivers/STM32L1xx_HAL_Driver/Src/stm32l1xx_hal_dma.c ****   * @file    stm32l1xx_hal_dma.c
   4:Drivers/STM32L1xx_HAL_Driver/Src/stm32l1xx_hal_dma.c ****   * @author  MCD Application Team
   5:Drivers/STM32L1xx_HAL_Driver/Src/stm32l1xx_hal_dma.c ****   * @brief   DMA HAL module driver.
   6:Drivers/STM32L1xx_HAL_Driver/Src/stm32l1xx_hal_dma.c ****   *          This file provides firmware functions to manage the following
   7:Drivers/STM32L1xx_HAL_Driver/Src/stm32l1xx_hal_dma.c ****   *          functionalities of the Direct Memory Access (DMA) peripheral:
   8:Drivers/STM32L1xx_HAL_Driver/Src/stm32l1xx_hal_dma.c ****   *           + Initialization and de-initialization functions
   9:Drivers/STM32L1xx_HAL_Driver/Src/stm32l1xx_hal_dma.c ****   *           + IO operation functions
  10:Drivers/STM32L1xx_HAL_Driver/Src/stm32l1xx_hal_dma.c ****   *           + Peripheral State and errors functions
  11:Drivers/STM32L1xx_HAL_Driver/Src/stm32l1xx_hal_dma.c ****   *
  12:Drivers/STM32L1xx_HAL_Driver/Src/stm32l1xx_hal_dma.c ****   ******************************************************************************
  13:Drivers/STM32L1xx_HAL_Driver/Src/stm32l1xx_hal_dma.c ****   * @attention
  14:Drivers/STM32L1xx_HAL_Driver/Src/stm32l1xx_hal_dma.c ****   *
  15:Drivers/STM32L1xx_HAL_Driver/Src/stm32l1xx_hal_dma.c ****   * Copyright (c) 2017 STMicroelectronics.
  16:Drivers/STM32L1xx_HAL_Driver/Src/stm32l1xx_hal_dma.c ****   * All rights reserved.
  17:Drivers/STM32L1xx_HAL_Driver/Src/stm32l1xx_hal_dma.c ****   *
  18:Drivers/STM32L1xx_HAL_Driver/Src/stm32l1xx_hal_dma.c ****   * This software is licensed under terms that can be found in the LICENSE file
  19:Drivers/STM32L1xx_HAL_Driver/Src/stm32l1xx_hal_dma.c ****   * in the root directory of this software component.
  20:Drivers/STM32L1xx_HAL_Driver/Src/stm32l1xx_hal_dma.c ****   * If no LICENSE file comes with this software, it is provided AS-IS.
  21:Drivers/STM32L1xx_HAL_Driver/Src/stm32l1xx_hal_dma.c ****   *
  22:Drivers/STM32L1xx_HAL_Driver/Src/stm32l1xx_hal_dma.c ****   ******************************************************************************
  23:Drivers/STM32L1xx_HAL_Driver/Src/stm32l1xx_hal_dma.c ****   @verbatim
  24:Drivers/STM32L1xx_HAL_Driver/Src/stm32l1xx_hal_dma.c ****   ==============================================================================
  25:Drivers/STM32L1xx_HAL_Driver/Src/stm32l1xx_hal_dma.c ****                         ##### How to use this driver #####
  26:Drivers/STM32L1xx_HAL_Driver/Src/stm32l1xx_hal_dma.c ****   ==============================================================================
  27:Drivers/STM32L1xx_HAL_Driver/Src/stm32l1xx_hal_dma.c ****   [..]
  28:Drivers/STM32L1xx_HAL_Driver/Src/stm32l1xx_hal_dma.c ****    (#) Enable and configure the peripheral to be connected to the DMA Channel
  29:Drivers/STM32L1xx_HAL_Driver/Src/stm32l1xx_hal_dma.c ****        (except for internal SRAM / FLASH memories: no initialization is
  30:Drivers/STM32L1xx_HAL_Driver/Src/stm32l1xx_hal_dma.c ****        necessary). Please refer to the Reference manual for connection between peripherals
  31:Drivers/STM32L1xx_HAL_Driver/Src/stm32l1xx_hal_dma.c ****        and DMA requests.
  32:Drivers/STM32L1xx_HAL_Driver/Src/stm32l1xx_hal_dma.c **** 
ARM GAS  /tmp/cc6rMAp7.s 			page 2


  33:Drivers/STM32L1xx_HAL_Driver/Src/stm32l1xx_hal_dma.c ****    (#) For a given Channel, program the required configuration through the following parameters:
  34:Drivers/STM32L1xx_HAL_Driver/Src/stm32l1xx_hal_dma.c ****        Channel request, Transfer Direction, Source and Destination data formats,
  35:Drivers/STM32L1xx_HAL_Driver/Src/stm32l1xx_hal_dma.c ****        Circular or Normal mode, Channel Priority level, Source and Destination Increment mode
  36:Drivers/STM32L1xx_HAL_Driver/Src/stm32l1xx_hal_dma.c ****        using HAL_DMA_Init() function.
  37:Drivers/STM32L1xx_HAL_Driver/Src/stm32l1xx_hal_dma.c **** 
  38:Drivers/STM32L1xx_HAL_Driver/Src/stm32l1xx_hal_dma.c ****    (#) Use HAL_DMA_GetState() function to return the DMA state and HAL_DMA_GetError() in case of er
  39:Drivers/STM32L1xx_HAL_Driver/Src/stm32l1xx_hal_dma.c ****        detection.
  40:Drivers/STM32L1xx_HAL_Driver/Src/stm32l1xx_hal_dma.c **** 
  41:Drivers/STM32L1xx_HAL_Driver/Src/stm32l1xx_hal_dma.c ****    (#) Use HAL_DMA_Abort() function to abort the current transfer
  42:Drivers/STM32L1xx_HAL_Driver/Src/stm32l1xx_hal_dma.c **** 
  43:Drivers/STM32L1xx_HAL_Driver/Src/stm32l1xx_hal_dma.c ****      -@-   In Memory-to-Memory transfer mode, Circular mode is not allowed.
  44:Drivers/STM32L1xx_HAL_Driver/Src/stm32l1xx_hal_dma.c ****      *** Polling mode IO operation ***
  45:Drivers/STM32L1xx_HAL_Driver/Src/stm32l1xx_hal_dma.c ****      =================================
  46:Drivers/STM32L1xx_HAL_Driver/Src/stm32l1xx_hal_dma.c ****      [..]
  47:Drivers/STM32L1xx_HAL_Driver/Src/stm32l1xx_hal_dma.c ****        (+) Use HAL_DMA_Start() to start DMA transfer after the configuration of Source
  48:Drivers/STM32L1xx_HAL_Driver/Src/stm32l1xx_hal_dma.c ****            address and destination address and the Length of data to be transferred
  49:Drivers/STM32L1xx_HAL_Driver/Src/stm32l1xx_hal_dma.c ****        (+) Use HAL_DMA_PollForTransfer() to poll for the end of current transfer, in this
  50:Drivers/STM32L1xx_HAL_Driver/Src/stm32l1xx_hal_dma.c ****            case a fixed Timeout can be configured by User depending from his application.
  51:Drivers/STM32L1xx_HAL_Driver/Src/stm32l1xx_hal_dma.c **** 
  52:Drivers/STM32L1xx_HAL_Driver/Src/stm32l1xx_hal_dma.c ****      *** Interrupt mode IO operation ***
  53:Drivers/STM32L1xx_HAL_Driver/Src/stm32l1xx_hal_dma.c ****      ===================================
  54:Drivers/STM32L1xx_HAL_Driver/Src/stm32l1xx_hal_dma.c ****      [..]
  55:Drivers/STM32L1xx_HAL_Driver/Src/stm32l1xx_hal_dma.c ****        (+) Configure the DMA interrupt priority using HAL_NVIC_SetPriority()
  56:Drivers/STM32L1xx_HAL_Driver/Src/stm32l1xx_hal_dma.c ****        (+) Enable the DMA IRQ handler using HAL_NVIC_EnableIRQ()
  57:Drivers/STM32L1xx_HAL_Driver/Src/stm32l1xx_hal_dma.c ****        (+) Use HAL_DMA_Start_IT() to start DMA transfer after the configuration of
  58:Drivers/STM32L1xx_HAL_Driver/Src/stm32l1xx_hal_dma.c ****            Source address and destination address and the Length of data to be transferred.
  59:Drivers/STM32L1xx_HAL_Driver/Src/stm32l1xx_hal_dma.c ****            In this case the DMA interrupt is configured
  60:Drivers/STM32L1xx_HAL_Driver/Src/stm32l1xx_hal_dma.c ****        (+) Use HAL_DMA_IRQHandler() called under DMA_IRQHandler() Interrupt subroutine
  61:Drivers/STM32L1xx_HAL_Driver/Src/stm32l1xx_hal_dma.c ****        (+) At the end of data transfer HAL_DMA_IRQHandler() function is executed and user can
  62:Drivers/STM32L1xx_HAL_Driver/Src/stm32l1xx_hal_dma.c ****               add his own function to register callbacks with HAL_DMA_RegisterCallback().
  63:Drivers/STM32L1xx_HAL_Driver/Src/stm32l1xx_hal_dma.c **** 
  64:Drivers/STM32L1xx_HAL_Driver/Src/stm32l1xx_hal_dma.c ****      *** DMA HAL driver macros list ***
  65:Drivers/STM32L1xx_HAL_Driver/Src/stm32l1xx_hal_dma.c ****      =============================================
  66:Drivers/STM32L1xx_HAL_Driver/Src/stm32l1xx_hal_dma.c ****      [..]
  67:Drivers/STM32L1xx_HAL_Driver/Src/stm32l1xx_hal_dma.c ****        Below the list of macros in DMA HAL driver.
  68:Drivers/STM32L1xx_HAL_Driver/Src/stm32l1xx_hal_dma.c **** 
  69:Drivers/STM32L1xx_HAL_Driver/Src/stm32l1xx_hal_dma.c ****        (+) __HAL_DMA_ENABLE: Enable the specified DMA Channel.
  70:Drivers/STM32L1xx_HAL_Driver/Src/stm32l1xx_hal_dma.c ****        (+) __HAL_DMA_DISABLE: Disable the specified DMA Channel.
  71:Drivers/STM32L1xx_HAL_Driver/Src/stm32l1xx_hal_dma.c ****        (+) __HAL_DMA_GET_FLAG: Get the DMA Channel pending flags.
  72:Drivers/STM32L1xx_HAL_Driver/Src/stm32l1xx_hal_dma.c ****        (+) __HAL_DMA_CLEAR_FLAG: Clear the DMA Channel pending flags.
  73:Drivers/STM32L1xx_HAL_Driver/Src/stm32l1xx_hal_dma.c ****        (+) __HAL_DMA_ENABLE_IT: Enable the specified DMA Channel interrupts.
  74:Drivers/STM32L1xx_HAL_Driver/Src/stm32l1xx_hal_dma.c ****        (+) __HAL_DMA_DISABLE_IT: Disable the specified DMA Channel interrupts.
  75:Drivers/STM32L1xx_HAL_Driver/Src/stm32l1xx_hal_dma.c ****        (+) __HAL_DMA_GET_IT_SOURCE: Check whether the specified DMA Channel interrupt is enabled or
  76:Drivers/STM32L1xx_HAL_Driver/Src/stm32l1xx_hal_dma.c **** 
  77:Drivers/STM32L1xx_HAL_Driver/Src/stm32l1xx_hal_dma.c ****      [..]
  78:Drivers/STM32L1xx_HAL_Driver/Src/stm32l1xx_hal_dma.c ****       (@) You can refer to the DMA HAL driver header file for more useful macros
  79:Drivers/STM32L1xx_HAL_Driver/Src/stm32l1xx_hal_dma.c **** 
  80:Drivers/STM32L1xx_HAL_Driver/Src/stm32l1xx_hal_dma.c ****   @endverbatim
  81:Drivers/STM32L1xx_HAL_Driver/Src/stm32l1xx_hal_dma.c ****   ******************************************************************************
  82:Drivers/STM32L1xx_HAL_Driver/Src/stm32l1xx_hal_dma.c ****   */
  83:Drivers/STM32L1xx_HAL_Driver/Src/stm32l1xx_hal_dma.c **** 
  84:Drivers/STM32L1xx_HAL_Driver/Src/stm32l1xx_hal_dma.c **** /* Includes ------------------------------------------------------------------*/
  85:Drivers/STM32L1xx_HAL_Driver/Src/stm32l1xx_hal_dma.c **** #include "stm32l1xx_hal.h"
  86:Drivers/STM32L1xx_HAL_Driver/Src/stm32l1xx_hal_dma.c **** 
  87:Drivers/STM32L1xx_HAL_Driver/Src/stm32l1xx_hal_dma.c **** /** @addtogroup STM32L1xx_HAL_Driver
  88:Drivers/STM32L1xx_HAL_Driver/Src/stm32l1xx_hal_dma.c ****   * @{
  89:Drivers/STM32L1xx_HAL_Driver/Src/stm32l1xx_hal_dma.c ****   */
ARM GAS  /tmp/cc6rMAp7.s 			page 3


  90:Drivers/STM32L1xx_HAL_Driver/Src/stm32l1xx_hal_dma.c **** 
  91:Drivers/STM32L1xx_HAL_Driver/Src/stm32l1xx_hal_dma.c **** /** @defgroup DMA DMA
  92:Drivers/STM32L1xx_HAL_Driver/Src/stm32l1xx_hal_dma.c ****   * @brief DMA HAL module driver
  93:Drivers/STM32L1xx_HAL_Driver/Src/stm32l1xx_hal_dma.c ****   * @{
  94:Drivers/STM32L1xx_HAL_Driver/Src/stm32l1xx_hal_dma.c ****   */
  95:Drivers/STM32L1xx_HAL_Driver/Src/stm32l1xx_hal_dma.c **** 
  96:Drivers/STM32L1xx_HAL_Driver/Src/stm32l1xx_hal_dma.c **** #ifdef HAL_DMA_MODULE_ENABLED
  97:Drivers/STM32L1xx_HAL_Driver/Src/stm32l1xx_hal_dma.c **** 
  98:Drivers/STM32L1xx_HAL_Driver/Src/stm32l1xx_hal_dma.c **** /* Private typedef -----------------------------------------------------------*/
  99:Drivers/STM32L1xx_HAL_Driver/Src/stm32l1xx_hal_dma.c **** /* Private define ------------------------------------------------------------*/
 100:Drivers/STM32L1xx_HAL_Driver/Src/stm32l1xx_hal_dma.c **** /* Private macro -------------------------------------------------------------*/
 101:Drivers/STM32L1xx_HAL_Driver/Src/stm32l1xx_hal_dma.c **** /* Private variables ---------------------------------------------------------*/
 102:Drivers/STM32L1xx_HAL_Driver/Src/stm32l1xx_hal_dma.c **** /* Private function prototypes -----------------------------------------------*/
 103:Drivers/STM32L1xx_HAL_Driver/Src/stm32l1xx_hal_dma.c **** /** @defgroup DMA_Private_Functions DMA Private Functions
 104:Drivers/STM32L1xx_HAL_Driver/Src/stm32l1xx_hal_dma.c ****   * @{
 105:Drivers/STM32L1xx_HAL_Driver/Src/stm32l1xx_hal_dma.c ****   */
 106:Drivers/STM32L1xx_HAL_Driver/Src/stm32l1xx_hal_dma.c **** 
 107:Drivers/STM32L1xx_HAL_Driver/Src/stm32l1xx_hal_dma.c **** static void DMA_SetConfig(DMA_HandleTypeDef *hdma, uint32_t SrcAddress, uint32_t DstAddress, uint32
 108:Drivers/STM32L1xx_HAL_Driver/Src/stm32l1xx_hal_dma.c **** /**
 109:Drivers/STM32L1xx_HAL_Driver/Src/stm32l1xx_hal_dma.c ****   * @}
 110:Drivers/STM32L1xx_HAL_Driver/Src/stm32l1xx_hal_dma.c ****   */
 111:Drivers/STM32L1xx_HAL_Driver/Src/stm32l1xx_hal_dma.c **** 
 112:Drivers/STM32L1xx_HAL_Driver/Src/stm32l1xx_hal_dma.c **** /* Exported functions ---------------------------------------------------------*/
 113:Drivers/STM32L1xx_HAL_Driver/Src/stm32l1xx_hal_dma.c **** 
 114:Drivers/STM32L1xx_HAL_Driver/Src/stm32l1xx_hal_dma.c **** /** @defgroup DMA_Exported_Functions DMA Exported Functions
 115:Drivers/STM32L1xx_HAL_Driver/Src/stm32l1xx_hal_dma.c ****   * @{
 116:Drivers/STM32L1xx_HAL_Driver/Src/stm32l1xx_hal_dma.c ****   */
 117:Drivers/STM32L1xx_HAL_Driver/Src/stm32l1xx_hal_dma.c **** 
 118:Drivers/STM32L1xx_HAL_Driver/Src/stm32l1xx_hal_dma.c **** /** @defgroup DMA_Exported_Functions_Group1 Initialization and de-initialization functions
 119:Drivers/STM32L1xx_HAL_Driver/Src/stm32l1xx_hal_dma.c ****  *  @brief   Initialization and de-initialization functions
 120:Drivers/STM32L1xx_HAL_Driver/Src/stm32l1xx_hal_dma.c ****  *
 121:Drivers/STM32L1xx_HAL_Driver/Src/stm32l1xx_hal_dma.c **** @verbatim
 122:Drivers/STM32L1xx_HAL_Driver/Src/stm32l1xx_hal_dma.c ****  ===============================================================================
 123:Drivers/STM32L1xx_HAL_Driver/Src/stm32l1xx_hal_dma.c ****              ##### Initialization and de-initialization functions  #####
 124:Drivers/STM32L1xx_HAL_Driver/Src/stm32l1xx_hal_dma.c ****  ===============================================================================
 125:Drivers/STM32L1xx_HAL_Driver/Src/stm32l1xx_hal_dma.c ****     [..]
 126:Drivers/STM32L1xx_HAL_Driver/Src/stm32l1xx_hal_dma.c ****     This section provides functions allowing to initialize the DMA Channel source
 127:Drivers/STM32L1xx_HAL_Driver/Src/stm32l1xx_hal_dma.c ****     and destination addresses, incrementation and data sizes, transfer direction,
 128:Drivers/STM32L1xx_HAL_Driver/Src/stm32l1xx_hal_dma.c ****     circular/normal mode selection, memory-to-memory mode selection and Channel priority value.
 129:Drivers/STM32L1xx_HAL_Driver/Src/stm32l1xx_hal_dma.c ****     [..]
 130:Drivers/STM32L1xx_HAL_Driver/Src/stm32l1xx_hal_dma.c ****     The HAL_DMA_Init() function follows the DMA configuration procedures as described in
 131:Drivers/STM32L1xx_HAL_Driver/Src/stm32l1xx_hal_dma.c ****     reference manual.
 132:Drivers/STM32L1xx_HAL_Driver/Src/stm32l1xx_hal_dma.c **** 
 133:Drivers/STM32L1xx_HAL_Driver/Src/stm32l1xx_hal_dma.c **** @endverbatim
 134:Drivers/STM32L1xx_HAL_Driver/Src/stm32l1xx_hal_dma.c ****   * @{
 135:Drivers/STM32L1xx_HAL_Driver/Src/stm32l1xx_hal_dma.c ****   */
 136:Drivers/STM32L1xx_HAL_Driver/Src/stm32l1xx_hal_dma.c **** 
 137:Drivers/STM32L1xx_HAL_Driver/Src/stm32l1xx_hal_dma.c **** /**
 138:Drivers/STM32L1xx_HAL_Driver/Src/stm32l1xx_hal_dma.c ****   * @brief  Initialize the DMA according to the specified
 139:Drivers/STM32L1xx_HAL_Driver/Src/stm32l1xx_hal_dma.c ****   *         parameters in the DMA_InitTypeDef and initialize the associated handle.
 140:Drivers/STM32L1xx_HAL_Driver/Src/stm32l1xx_hal_dma.c ****   * @param  hdma Pointer to a DMA_HandleTypeDef structure that contains
 141:Drivers/STM32L1xx_HAL_Driver/Src/stm32l1xx_hal_dma.c ****   *               the configuration information for the specified DMA Channel.
 142:Drivers/STM32L1xx_HAL_Driver/Src/stm32l1xx_hal_dma.c ****   * @retval HAL status
 143:Drivers/STM32L1xx_HAL_Driver/Src/stm32l1xx_hal_dma.c ****   */
 144:Drivers/STM32L1xx_HAL_Driver/Src/stm32l1xx_hal_dma.c **** HAL_StatusTypeDef HAL_DMA_Init(DMA_HandleTypeDef *hdma)
 145:Drivers/STM32L1xx_HAL_Driver/Src/stm32l1xx_hal_dma.c **** {
 146:Drivers/STM32L1xx_HAL_Driver/Src/stm32l1xx_hal_dma.c ****   uint32_t tmp;
ARM GAS  /tmp/cc6rMAp7.s 			page 4


 147:Drivers/STM32L1xx_HAL_Driver/Src/stm32l1xx_hal_dma.c **** 
 148:Drivers/STM32L1xx_HAL_Driver/Src/stm32l1xx_hal_dma.c ****   /* Check the DMA handle allocation */
 149:Drivers/STM32L1xx_HAL_Driver/Src/stm32l1xx_hal_dma.c ****   if(hdma == NULL)
 150:Drivers/STM32L1xx_HAL_Driver/Src/stm32l1xx_hal_dma.c ****   {
 151:Drivers/STM32L1xx_HAL_Driver/Src/stm32l1xx_hal_dma.c ****     return HAL_ERROR;
 152:Drivers/STM32L1xx_HAL_Driver/Src/stm32l1xx_hal_dma.c ****   }
 153:Drivers/STM32L1xx_HAL_Driver/Src/stm32l1xx_hal_dma.c **** 
 154:Drivers/STM32L1xx_HAL_Driver/Src/stm32l1xx_hal_dma.c ****   /* Check the parameters */
 155:Drivers/STM32L1xx_HAL_Driver/Src/stm32l1xx_hal_dma.c ****   assert_param(IS_DMA_ALL_INSTANCE(hdma->Instance));
 156:Drivers/STM32L1xx_HAL_Driver/Src/stm32l1xx_hal_dma.c ****   assert_param(IS_DMA_DIRECTION(hdma->Init.Direction));
 157:Drivers/STM32L1xx_HAL_Driver/Src/stm32l1xx_hal_dma.c ****   assert_param(IS_DMA_PERIPHERAL_INC_STATE(hdma->Init.PeriphInc));
 158:Drivers/STM32L1xx_HAL_Driver/Src/stm32l1xx_hal_dma.c ****   assert_param(IS_DMA_MEMORY_INC_STATE(hdma->Init.MemInc));
 159:Drivers/STM32L1xx_HAL_Driver/Src/stm32l1xx_hal_dma.c ****   assert_param(IS_DMA_PERIPHERAL_DATA_SIZE(hdma->Init.PeriphDataAlignment));
 160:Drivers/STM32L1xx_HAL_Driver/Src/stm32l1xx_hal_dma.c ****   assert_param(IS_DMA_MEMORY_DATA_SIZE(hdma->Init.MemDataAlignment));
 161:Drivers/STM32L1xx_HAL_Driver/Src/stm32l1xx_hal_dma.c ****   assert_param(IS_DMA_MODE(hdma->Init.Mode));
 162:Drivers/STM32L1xx_HAL_Driver/Src/stm32l1xx_hal_dma.c ****   assert_param(IS_DMA_PRIORITY(hdma->Init.Priority));
 163:Drivers/STM32L1xx_HAL_Driver/Src/stm32l1xx_hal_dma.c **** 
 164:Drivers/STM32L1xx_HAL_Driver/Src/stm32l1xx_hal_dma.c **** #if defined (DMA2)
 165:Drivers/STM32L1xx_HAL_Driver/Src/stm32l1xx_hal_dma.c ****   /* Compute the channel index */
 166:Drivers/STM32L1xx_HAL_Driver/Src/stm32l1xx_hal_dma.c ****   if ((uint32_t)(hdma->Instance) < (uint32_t)(DMA2_Channel1))
 167:Drivers/STM32L1xx_HAL_Driver/Src/stm32l1xx_hal_dma.c ****   {
 168:Drivers/STM32L1xx_HAL_Driver/Src/stm32l1xx_hal_dma.c ****     /* DMA1 */
 169:Drivers/STM32L1xx_HAL_Driver/Src/stm32l1xx_hal_dma.c ****     hdma->ChannelIndex = (((uint32_t)hdma->Instance - (uint32_t)DMA1_Channel1) / ((uint32_t)DMA1_Ch
 170:Drivers/STM32L1xx_HAL_Driver/Src/stm32l1xx_hal_dma.c ****     hdma->DmaBaseAddress = DMA1;
 171:Drivers/STM32L1xx_HAL_Driver/Src/stm32l1xx_hal_dma.c ****   }
 172:Drivers/STM32L1xx_HAL_Driver/Src/stm32l1xx_hal_dma.c ****   else
 173:Drivers/STM32L1xx_HAL_Driver/Src/stm32l1xx_hal_dma.c ****   {
 174:Drivers/STM32L1xx_HAL_Driver/Src/stm32l1xx_hal_dma.c ****     /* DMA2 */
 175:Drivers/STM32L1xx_HAL_Driver/Src/stm32l1xx_hal_dma.c ****     hdma->ChannelIndex = (((uint32_t)hdma->Instance - (uint32_t)DMA2_Channel1) / ((uint32_t)DMA2_Ch
 176:Drivers/STM32L1xx_HAL_Driver/Src/stm32l1xx_hal_dma.c ****     hdma->DmaBaseAddress = DMA2;
 177:Drivers/STM32L1xx_HAL_Driver/Src/stm32l1xx_hal_dma.c ****   }
 178:Drivers/STM32L1xx_HAL_Driver/Src/stm32l1xx_hal_dma.c **** #else
 179:Drivers/STM32L1xx_HAL_Driver/Src/stm32l1xx_hal_dma.c ****   /* calculation of the channel index */
 180:Drivers/STM32L1xx_HAL_Driver/Src/stm32l1xx_hal_dma.c ****   /* DMA1 */
 181:Drivers/STM32L1xx_HAL_Driver/Src/stm32l1xx_hal_dma.c ****   hdma->ChannelIndex = (((uint32_t)hdma->Instance - (uint32_t)DMA1_Channel1) / ((uint32_t)DMA1_Chan
 182:Drivers/STM32L1xx_HAL_Driver/Src/stm32l1xx_hal_dma.c ****   hdma->DmaBaseAddress = DMA1;
 183:Drivers/STM32L1xx_HAL_Driver/Src/stm32l1xx_hal_dma.c **** #endif
 184:Drivers/STM32L1xx_HAL_Driver/Src/stm32l1xx_hal_dma.c **** 
 185:Drivers/STM32L1xx_HAL_Driver/Src/stm32l1xx_hal_dma.c ****   /* Change DMA peripheral state */
 186:Drivers/STM32L1xx_HAL_Driver/Src/stm32l1xx_hal_dma.c ****   hdma->State = HAL_DMA_STATE_BUSY;
 187:Drivers/STM32L1xx_HAL_Driver/Src/stm32l1xx_hal_dma.c **** 
 188:Drivers/STM32L1xx_HAL_Driver/Src/stm32l1xx_hal_dma.c ****   /* Get the CR register value */
 189:Drivers/STM32L1xx_HAL_Driver/Src/stm32l1xx_hal_dma.c ****   tmp = hdma->Instance->CCR;
 190:Drivers/STM32L1xx_HAL_Driver/Src/stm32l1xx_hal_dma.c **** 
 191:Drivers/STM32L1xx_HAL_Driver/Src/stm32l1xx_hal_dma.c ****   /* Clear PL, MSIZE, PSIZE, MINC, PINC, CIRC, DIR and MEM2MEM bits */
 192:Drivers/STM32L1xx_HAL_Driver/Src/stm32l1xx_hal_dma.c ****   tmp &= ((uint32_t)~(DMA_CCR_PL    | DMA_CCR_MSIZE   | DMA_CCR_PSIZE  |
 193:Drivers/STM32L1xx_HAL_Driver/Src/stm32l1xx_hal_dma.c ****                       DMA_CCR_MINC  | DMA_CCR_PINC    | DMA_CCR_CIRC   |
 194:Drivers/STM32L1xx_HAL_Driver/Src/stm32l1xx_hal_dma.c ****                       DMA_CCR_DIR   | DMA_CCR_MEM2MEM));
 195:Drivers/STM32L1xx_HAL_Driver/Src/stm32l1xx_hal_dma.c **** 
 196:Drivers/STM32L1xx_HAL_Driver/Src/stm32l1xx_hal_dma.c ****   /* Prepare the DMA Channel configuration */
 197:Drivers/STM32L1xx_HAL_Driver/Src/stm32l1xx_hal_dma.c ****   tmp |=  hdma->Init.Direction        |
 198:Drivers/STM32L1xx_HAL_Driver/Src/stm32l1xx_hal_dma.c ****           hdma->Init.PeriphInc           | hdma->Init.MemInc           |
 199:Drivers/STM32L1xx_HAL_Driver/Src/stm32l1xx_hal_dma.c ****           hdma->Init.PeriphDataAlignment | hdma->Init.MemDataAlignment |
 200:Drivers/STM32L1xx_HAL_Driver/Src/stm32l1xx_hal_dma.c ****           hdma->Init.Mode                | hdma->Init.Priority;
 201:Drivers/STM32L1xx_HAL_Driver/Src/stm32l1xx_hal_dma.c **** 
 202:Drivers/STM32L1xx_HAL_Driver/Src/stm32l1xx_hal_dma.c ****   /* Write to DMA Channel CR register */
 203:Drivers/STM32L1xx_HAL_Driver/Src/stm32l1xx_hal_dma.c ****   hdma->Instance->CCR = tmp;
ARM GAS  /tmp/cc6rMAp7.s 			page 5


 204:Drivers/STM32L1xx_HAL_Driver/Src/stm32l1xx_hal_dma.c **** 
 205:Drivers/STM32L1xx_HAL_Driver/Src/stm32l1xx_hal_dma.c ****   /* Initialise the error code */
 206:Drivers/STM32L1xx_HAL_Driver/Src/stm32l1xx_hal_dma.c ****   hdma->ErrorCode = HAL_DMA_ERROR_NONE;
 207:Drivers/STM32L1xx_HAL_Driver/Src/stm32l1xx_hal_dma.c **** 
 208:Drivers/STM32L1xx_HAL_Driver/Src/stm32l1xx_hal_dma.c ****   /* Initialize the DMA state*/
 209:Drivers/STM32L1xx_HAL_Driver/Src/stm32l1xx_hal_dma.c ****   hdma->State = HAL_DMA_STATE_READY;
 210:Drivers/STM32L1xx_HAL_Driver/Src/stm32l1xx_hal_dma.c **** 
 211:Drivers/STM32L1xx_HAL_Driver/Src/stm32l1xx_hal_dma.c ****   /* Allocate lock resource and initialize it */
 212:Drivers/STM32L1xx_HAL_Driver/Src/stm32l1xx_hal_dma.c ****   hdma->Lock = HAL_UNLOCKED;
 213:Drivers/STM32L1xx_HAL_Driver/Src/stm32l1xx_hal_dma.c **** 
 214:Drivers/STM32L1xx_HAL_Driver/Src/stm32l1xx_hal_dma.c ****   return HAL_OK;
 215:Drivers/STM32L1xx_HAL_Driver/Src/stm32l1xx_hal_dma.c **** }
 216:Drivers/STM32L1xx_HAL_Driver/Src/stm32l1xx_hal_dma.c **** 
 217:Drivers/STM32L1xx_HAL_Driver/Src/stm32l1xx_hal_dma.c **** /**
 218:Drivers/STM32L1xx_HAL_Driver/Src/stm32l1xx_hal_dma.c ****   * @brief  DeInitialize the DMA peripheral.
 219:Drivers/STM32L1xx_HAL_Driver/Src/stm32l1xx_hal_dma.c ****   * @param  hdma pointer to a DMA_HandleTypeDef structure that contains
 220:Drivers/STM32L1xx_HAL_Driver/Src/stm32l1xx_hal_dma.c ****   *               the configuration information for the specified DMA Channel.
 221:Drivers/STM32L1xx_HAL_Driver/Src/stm32l1xx_hal_dma.c ****   * @retval HAL status
 222:Drivers/STM32L1xx_HAL_Driver/Src/stm32l1xx_hal_dma.c ****   */
 223:Drivers/STM32L1xx_HAL_Driver/Src/stm32l1xx_hal_dma.c **** HAL_StatusTypeDef HAL_DMA_DeInit(DMA_HandleTypeDef *hdma)
 224:Drivers/STM32L1xx_HAL_Driver/Src/stm32l1xx_hal_dma.c **** {
 225:Drivers/STM32L1xx_HAL_Driver/Src/stm32l1xx_hal_dma.c **** 
 226:Drivers/STM32L1xx_HAL_Driver/Src/stm32l1xx_hal_dma.c ****   /* Check the DMA handle allocation */
 227:Drivers/STM32L1xx_HAL_Driver/Src/stm32l1xx_hal_dma.c ****   if (NULL == hdma )
 228:Drivers/STM32L1xx_HAL_Driver/Src/stm32l1xx_hal_dma.c ****   {
 229:Drivers/STM32L1xx_HAL_Driver/Src/stm32l1xx_hal_dma.c ****     return HAL_ERROR;
 230:Drivers/STM32L1xx_HAL_Driver/Src/stm32l1xx_hal_dma.c ****   }
 231:Drivers/STM32L1xx_HAL_Driver/Src/stm32l1xx_hal_dma.c **** 
 232:Drivers/STM32L1xx_HAL_Driver/Src/stm32l1xx_hal_dma.c ****   /* Check the parameters */
 233:Drivers/STM32L1xx_HAL_Driver/Src/stm32l1xx_hal_dma.c ****   assert_param(IS_DMA_ALL_INSTANCE(hdma->Instance));
 234:Drivers/STM32L1xx_HAL_Driver/Src/stm32l1xx_hal_dma.c **** 
 235:Drivers/STM32L1xx_HAL_Driver/Src/stm32l1xx_hal_dma.c ****   /* Disable the selected DMA Channelx */
 236:Drivers/STM32L1xx_HAL_Driver/Src/stm32l1xx_hal_dma.c ****   __HAL_DMA_DISABLE(hdma);
 237:Drivers/STM32L1xx_HAL_Driver/Src/stm32l1xx_hal_dma.c **** 
 238:Drivers/STM32L1xx_HAL_Driver/Src/stm32l1xx_hal_dma.c **** #if defined (DMA2)
 239:Drivers/STM32L1xx_HAL_Driver/Src/stm32l1xx_hal_dma.c ****   /* Compute the channel index */
 240:Drivers/STM32L1xx_HAL_Driver/Src/stm32l1xx_hal_dma.c ****   if ((uint32_t)(hdma->Instance) < (uint32_t)(DMA2_Channel1))
 241:Drivers/STM32L1xx_HAL_Driver/Src/stm32l1xx_hal_dma.c ****   {
 242:Drivers/STM32L1xx_HAL_Driver/Src/stm32l1xx_hal_dma.c ****     /* DMA1 */
 243:Drivers/STM32L1xx_HAL_Driver/Src/stm32l1xx_hal_dma.c ****     hdma->ChannelIndex = (((uint32_t)hdma->Instance - (uint32_t)DMA1_Channel1) / ((uint32_t)DMA1_Ch
 244:Drivers/STM32L1xx_HAL_Driver/Src/stm32l1xx_hal_dma.c ****     hdma->DmaBaseAddress = DMA1;
 245:Drivers/STM32L1xx_HAL_Driver/Src/stm32l1xx_hal_dma.c ****   }
 246:Drivers/STM32L1xx_HAL_Driver/Src/stm32l1xx_hal_dma.c ****   else
 247:Drivers/STM32L1xx_HAL_Driver/Src/stm32l1xx_hal_dma.c ****   {
 248:Drivers/STM32L1xx_HAL_Driver/Src/stm32l1xx_hal_dma.c ****     /* DMA2 */
 249:Drivers/STM32L1xx_HAL_Driver/Src/stm32l1xx_hal_dma.c ****     hdma->ChannelIndex = (((uint32_t)hdma->Instance - (uint32_t)DMA2_Channel1) / ((uint32_t)DMA2_Ch
 250:Drivers/STM32L1xx_HAL_Driver/Src/stm32l1xx_hal_dma.c ****     hdma->DmaBaseAddress = DMA2;
 251:Drivers/STM32L1xx_HAL_Driver/Src/stm32l1xx_hal_dma.c ****   }
 252:Drivers/STM32L1xx_HAL_Driver/Src/stm32l1xx_hal_dma.c **** #else
 253:Drivers/STM32L1xx_HAL_Driver/Src/stm32l1xx_hal_dma.c ****   /* calculation of the channel index */
 254:Drivers/STM32L1xx_HAL_Driver/Src/stm32l1xx_hal_dma.c ****   /* DMA1 */
 255:Drivers/STM32L1xx_HAL_Driver/Src/stm32l1xx_hal_dma.c ****   hdma->ChannelIndex = (((uint32_t)hdma->Instance - (uint32_t)DMA1_Channel1) / ((uint32_t)DMA1_Chan
 256:Drivers/STM32L1xx_HAL_Driver/Src/stm32l1xx_hal_dma.c ****   hdma->DmaBaseAddress = DMA1;
 257:Drivers/STM32L1xx_HAL_Driver/Src/stm32l1xx_hal_dma.c **** #endif
 258:Drivers/STM32L1xx_HAL_Driver/Src/stm32l1xx_hal_dma.c **** 
 259:Drivers/STM32L1xx_HAL_Driver/Src/stm32l1xx_hal_dma.c ****   /* Reset DMA Channel CR register */
 260:Drivers/STM32L1xx_HAL_Driver/Src/stm32l1xx_hal_dma.c ****   hdma->Instance->CCR = 0U;
ARM GAS  /tmp/cc6rMAp7.s 			page 6


 261:Drivers/STM32L1xx_HAL_Driver/Src/stm32l1xx_hal_dma.c **** 
 262:Drivers/STM32L1xx_HAL_Driver/Src/stm32l1xx_hal_dma.c ****   /* Clear all flags */
 263:Drivers/STM32L1xx_HAL_Driver/Src/stm32l1xx_hal_dma.c ****   hdma->DmaBaseAddress->IFCR = (DMA_ISR_GIF1 << (hdma->ChannelIndex & 0x1CU));
 264:Drivers/STM32L1xx_HAL_Driver/Src/stm32l1xx_hal_dma.c **** 
 265:Drivers/STM32L1xx_HAL_Driver/Src/stm32l1xx_hal_dma.c ****   /* Clean callbacks */
 266:Drivers/STM32L1xx_HAL_Driver/Src/stm32l1xx_hal_dma.c ****   hdma->XferCpltCallback = NULL;
 267:Drivers/STM32L1xx_HAL_Driver/Src/stm32l1xx_hal_dma.c ****   hdma->XferHalfCpltCallback = NULL;
 268:Drivers/STM32L1xx_HAL_Driver/Src/stm32l1xx_hal_dma.c ****   hdma->XferErrorCallback = NULL;
 269:Drivers/STM32L1xx_HAL_Driver/Src/stm32l1xx_hal_dma.c ****   hdma->XferAbortCallback = NULL;
 270:Drivers/STM32L1xx_HAL_Driver/Src/stm32l1xx_hal_dma.c **** 
 271:Drivers/STM32L1xx_HAL_Driver/Src/stm32l1xx_hal_dma.c ****   /* Initialise the error code */
 272:Drivers/STM32L1xx_HAL_Driver/Src/stm32l1xx_hal_dma.c ****   hdma->ErrorCode = HAL_DMA_ERROR_NONE;
 273:Drivers/STM32L1xx_HAL_Driver/Src/stm32l1xx_hal_dma.c **** 
 274:Drivers/STM32L1xx_HAL_Driver/Src/stm32l1xx_hal_dma.c ****   /* Initialize the DMA state */
 275:Drivers/STM32L1xx_HAL_Driver/Src/stm32l1xx_hal_dma.c ****   hdma->State = HAL_DMA_STATE_RESET;
 276:Drivers/STM32L1xx_HAL_Driver/Src/stm32l1xx_hal_dma.c **** 
 277:Drivers/STM32L1xx_HAL_Driver/Src/stm32l1xx_hal_dma.c ****   /* Release Lock */
 278:Drivers/STM32L1xx_HAL_Driver/Src/stm32l1xx_hal_dma.c ****   __HAL_UNLOCK(hdma);
 279:Drivers/STM32L1xx_HAL_Driver/Src/stm32l1xx_hal_dma.c **** 
 280:Drivers/STM32L1xx_HAL_Driver/Src/stm32l1xx_hal_dma.c ****   return HAL_OK;
 281:Drivers/STM32L1xx_HAL_Driver/Src/stm32l1xx_hal_dma.c **** }
 282:Drivers/STM32L1xx_HAL_Driver/Src/stm32l1xx_hal_dma.c **** 
 283:Drivers/STM32L1xx_HAL_Driver/Src/stm32l1xx_hal_dma.c **** /**
 284:Drivers/STM32L1xx_HAL_Driver/Src/stm32l1xx_hal_dma.c ****   * @}
 285:Drivers/STM32L1xx_HAL_Driver/Src/stm32l1xx_hal_dma.c ****   */
 286:Drivers/STM32L1xx_HAL_Driver/Src/stm32l1xx_hal_dma.c **** 
 287:Drivers/STM32L1xx_HAL_Driver/Src/stm32l1xx_hal_dma.c **** /** @defgroup DMA_Exported_Functions_Group2 Input and Output operation functions
 288:Drivers/STM32L1xx_HAL_Driver/Src/stm32l1xx_hal_dma.c ****  *  @brief   Input and Output operation functions
 289:Drivers/STM32L1xx_HAL_Driver/Src/stm32l1xx_hal_dma.c ****  *
 290:Drivers/STM32L1xx_HAL_Driver/Src/stm32l1xx_hal_dma.c **** @verbatim
 291:Drivers/STM32L1xx_HAL_Driver/Src/stm32l1xx_hal_dma.c ****  ===============================================================================
 292:Drivers/STM32L1xx_HAL_Driver/Src/stm32l1xx_hal_dma.c ****                       #####  IO operation functions  #####
 293:Drivers/STM32L1xx_HAL_Driver/Src/stm32l1xx_hal_dma.c ****  ===============================================================================
 294:Drivers/STM32L1xx_HAL_Driver/Src/stm32l1xx_hal_dma.c ****     [..]  This section provides functions allowing to:
 295:Drivers/STM32L1xx_HAL_Driver/Src/stm32l1xx_hal_dma.c ****       (+) Configure the source, destination address and data length and Start DMA transfer
 296:Drivers/STM32L1xx_HAL_Driver/Src/stm32l1xx_hal_dma.c ****       (+) Configure the source, destination address and data length and
 297:Drivers/STM32L1xx_HAL_Driver/Src/stm32l1xx_hal_dma.c ****           Start DMA transfer with interrupt
 298:Drivers/STM32L1xx_HAL_Driver/Src/stm32l1xx_hal_dma.c ****       (+) Abort DMA transfer
 299:Drivers/STM32L1xx_HAL_Driver/Src/stm32l1xx_hal_dma.c ****       (+) Poll for transfer complete
 300:Drivers/STM32L1xx_HAL_Driver/Src/stm32l1xx_hal_dma.c ****       (+) Handle DMA interrupt request
 301:Drivers/STM32L1xx_HAL_Driver/Src/stm32l1xx_hal_dma.c **** 
 302:Drivers/STM32L1xx_HAL_Driver/Src/stm32l1xx_hal_dma.c **** @endverbatim
 303:Drivers/STM32L1xx_HAL_Driver/Src/stm32l1xx_hal_dma.c ****   * @{
 304:Drivers/STM32L1xx_HAL_Driver/Src/stm32l1xx_hal_dma.c ****   */
 305:Drivers/STM32L1xx_HAL_Driver/Src/stm32l1xx_hal_dma.c **** 
 306:Drivers/STM32L1xx_HAL_Driver/Src/stm32l1xx_hal_dma.c **** /**
 307:Drivers/STM32L1xx_HAL_Driver/Src/stm32l1xx_hal_dma.c ****   * @brief  Start the DMA Transfer.
 308:Drivers/STM32L1xx_HAL_Driver/Src/stm32l1xx_hal_dma.c ****   * @param  hdma pointer to a DMA_HandleTypeDef structure that contains
 309:Drivers/STM32L1xx_HAL_Driver/Src/stm32l1xx_hal_dma.c ****   *               the configuration information for the specified DMA Channel.
 310:Drivers/STM32L1xx_HAL_Driver/Src/stm32l1xx_hal_dma.c ****   * @param  SrcAddress The source memory Buffer address
 311:Drivers/STM32L1xx_HAL_Driver/Src/stm32l1xx_hal_dma.c ****   * @param  DstAddress The destination memory Buffer address
 312:Drivers/STM32L1xx_HAL_Driver/Src/stm32l1xx_hal_dma.c ****   * @param  DataLength The length of data to be transferred from source to destination
 313:Drivers/STM32L1xx_HAL_Driver/Src/stm32l1xx_hal_dma.c ****   * @retval HAL status
 314:Drivers/STM32L1xx_HAL_Driver/Src/stm32l1xx_hal_dma.c ****   */
 315:Drivers/STM32L1xx_HAL_Driver/Src/stm32l1xx_hal_dma.c **** HAL_StatusTypeDef HAL_DMA_Start(DMA_HandleTypeDef *hdma, uint32_t SrcAddress, uint32_t DstAddress, 
 316:Drivers/STM32L1xx_HAL_Driver/Src/stm32l1xx_hal_dma.c **** {
 317:Drivers/STM32L1xx_HAL_Driver/Src/stm32l1xx_hal_dma.c ****   HAL_StatusTypeDef status = HAL_OK;
ARM GAS  /tmp/cc6rMAp7.s 			page 7


 318:Drivers/STM32L1xx_HAL_Driver/Src/stm32l1xx_hal_dma.c **** 
 319:Drivers/STM32L1xx_HAL_Driver/Src/stm32l1xx_hal_dma.c ****   /* Check the parameters */
 320:Drivers/STM32L1xx_HAL_Driver/Src/stm32l1xx_hal_dma.c ****   assert_param(IS_DMA_BUFFER_SIZE(DataLength));
 321:Drivers/STM32L1xx_HAL_Driver/Src/stm32l1xx_hal_dma.c **** 
 322:Drivers/STM32L1xx_HAL_Driver/Src/stm32l1xx_hal_dma.c ****   /* Process locked */
 323:Drivers/STM32L1xx_HAL_Driver/Src/stm32l1xx_hal_dma.c ****   __HAL_LOCK(hdma);
 324:Drivers/STM32L1xx_HAL_Driver/Src/stm32l1xx_hal_dma.c **** 
 325:Drivers/STM32L1xx_HAL_Driver/Src/stm32l1xx_hal_dma.c ****   if(HAL_DMA_STATE_READY == hdma->State)
 326:Drivers/STM32L1xx_HAL_Driver/Src/stm32l1xx_hal_dma.c ****   {
 327:Drivers/STM32L1xx_HAL_Driver/Src/stm32l1xx_hal_dma.c ****     /* Change DMA peripheral state */
 328:Drivers/STM32L1xx_HAL_Driver/Src/stm32l1xx_hal_dma.c ****     hdma->State = HAL_DMA_STATE_BUSY;
 329:Drivers/STM32L1xx_HAL_Driver/Src/stm32l1xx_hal_dma.c ****     hdma->ErrorCode = HAL_DMA_ERROR_NONE;
 330:Drivers/STM32L1xx_HAL_Driver/Src/stm32l1xx_hal_dma.c **** 
 331:Drivers/STM32L1xx_HAL_Driver/Src/stm32l1xx_hal_dma.c ****     /* Disable the peripheral */
 332:Drivers/STM32L1xx_HAL_Driver/Src/stm32l1xx_hal_dma.c ****     __HAL_DMA_DISABLE(hdma);
 333:Drivers/STM32L1xx_HAL_Driver/Src/stm32l1xx_hal_dma.c **** 
 334:Drivers/STM32L1xx_HAL_Driver/Src/stm32l1xx_hal_dma.c ****     /* Configure the source, destination address and the data length & clear flags*/
 335:Drivers/STM32L1xx_HAL_Driver/Src/stm32l1xx_hal_dma.c ****     DMA_SetConfig(hdma, SrcAddress, DstAddress, DataLength);
 336:Drivers/STM32L1xx_HAL_Driver/Src/stm32l1xx_hal_dma.c **** 
 337:Drivers/STM32L1xx_HAL_Driver/Src/stm32l1xx_hal_dma.c ****     /* Enable the Peripheral */
 338:Drivers/STM32L1xx_HAL_Driver/Src/stm32l1xx_hal_dma.c ****     __HAL_DMA_ENABLE(hdma);
 339:Drivers/STM32L1xx_HAL_Driver/Src/stm32l1xx_hal_dma.c ****   }
 340:Drivers/STM32L1xx_HAL_Driver/Src/stm32l1xx_hal_dma.c ****   else
 341:Drivers/STM32L1xx_HAL_Driver/Src/stm32l1xx_hal_dma.c ****   {
 342:Drivers/STM32L1xx_HAL_Driver/Src/stm32l1xx_hal_dma.c ****     /* Process Unlocked */
 343:Drivers/STM32L1xx_HAL_Driver/Src/stm32l1xx_hal_dma.c ****     __HAL_UNLOCK(hdma);
 344:Drivers/STM32L1xx_HAL_Driver/Src/stm32l1xx_hal_dma.c ****     status = HAL_BUSY;
 345:Drivers/STM32L1xx_HAL_Driver/Src/stm32l1xx_hal_dma.c ****   }
 346:Drivers/STM32L1xx_HAL_Driver/Src/stm32l1xx_hal_dma.c ****   return status;
 347:Drivers/STM32L1xx_HAL_Driver/Src/stm32l1xx_hal_dma.c **** }
 348:Drivers/STM32L1xx_HAL_Driver/Src/stm32l1xx_hal_dma.c **** 
 349:Drivers/STM32L1xx_HAL_Driver/Src/stm32l1xx_hal_dma.c **** /**
 350:Drivers/STM32L1xx_HAL_Driver/Src/stm32l1xx_hal_dma.c ****   * @brief  Start the DMA Transfer with interrupt enabled.
 351:Drivers/STM32L1xx_HAL_Driver/Src/stm32l1xx_hal_dma.c ****   * @param  hdma pointer to a DMA_HandleTypeDef structure that contains
 352:Drivers/STM32L1xx_HAL_Driver/Src/stm32l1xx_hal_dma.c ****   *               the configuration information for the specified DMA Channel.
 353:Drivers/STM32L1xx_HAL_Driver/Src/stm32l1xx_hal_dma.c ****   * @param  SrcAddress The source memory Buffer address
 354:Drivers/STM32L1xx_HAL_Driver/Src/stm32l1xx_hal_dma.c ****   * @param  DstAddress The destination memory Buffer address
 355:Drivers/STM32L1xx_HAL_Driver/Src/stm32l1xx_hal_dma.c ****   * @param  DataLength The length of data to be transferred from source to destination
 356:Drivers/STM32L1xx_HAL_Driver/Src/stm32l1xx_hal_dma.c ****   * @retval HAL status
 357:Drivers/STM32L1xx_HAL_Driver/Src/stm32l1xx_hal_dma.c ****   */
 358:Drivers/STM32L1xx_HAL_Driver/Src/stm32l1xx_hal_dma.c **** HAL_StatusTypeDef HAL_DMA_Start_IT(DMA_HandleTypeDef *hdma, uint32_t SrcAddress, uint32_t DstAddres
 359:Drivers/STM32L1xx_HAL_Driver/Src/stm32l1xx_hal_dma.c **** {
 360:Drivers/STM32L1xx_HAL_Driver/Src/stm32l1xx_hal_dma.c ****   HAL_StatusTypeDef status = HAL_OK;
 361:Drivers/STM32L1xx_HAL_Driver/Src/stm32l1xx_hal_dma.c **** 
 362:Drivers/STM32L1xx_HAL_Driver/Src/stm32l1xx_hal_dma.c ****   /* Check the parameters */
 363:Drivers/STM32L1xx_HAL_Driver/Src/stm32l1xx_hal_dma.c ****   assert_param(IS_DMA_BUFFER_SIZE(DataLength));
 364:Drivers/STM32L1xx_HAL_Driver/Src/stm32l1xx_hal_dma.c **** 
 365:Drivers/STM32L1xx_HAL_Driver/Src/stm32l1xx_hal_dma.c ****   /* Process locked */
 366:Drivers/STM32L1xx_HAL_Driver/Src/stm32l1xx_hal_dma.c ****   __HAL_LOCK(hdma);
 367:Drivers/STM32L1xx_HAL_Driver/Src/stm32l1xx_hal_dma.c **** 
 368:Drivers/STM32L1xx_HAL_Driver/Src/stm32l1xx_hal_dma.c ****   if(HAL_DMA_STATE_READY == hdma->State)
 369:Drivers/STM32L1xx_HAL_Driver/Src/stm32l1xx_hal_dma.c ****   {
 370:Drivers/STM32L1xx_HAL_Driver/Src/stm32l1xx_hal_dma.c ****     /* Change DMA peripheral state */
 371:Drivers/STM32L1xx_HAL_Driver/Src/stm32l1xx_hal_dma.c ****     hdma->State = HAL_DMA_STATE_BUSY;
 372:Drivers/STM32L1xx_HAL_Driver/Src/stm32l1xx_hal_dma.c ****     hdma->ErrorCode = HAL_DMA_ERROR_NONE;
 373:Drivers/STM32L1xx_HAL_Driver/Src/stm32l1xx_hal_dma.c **** 
 374:Drivers/STM32L1xx_HAL_Driver/Src/stm32l1xx_hal_dma.c ****     /* Disable the peripheral */
ARM GAS  /tmp/cc6rMAp7.s 			page 8


 375:Drivers/STM32L1xx_HAL_Driver/Src/stm32l1xx_hal_dma.c ****     __HAL_DMA_DISABLE(hdma);
 376:Drivers/STM32L1xx_HAL_Driver/Src/stm32l1xx_hal_dma.c **** 
 377:Drivers/STM32L1xx_HAL_Driver/Src/stm32l1xx_hal_dma.c ****     /* Configure the source, destination address and the data length & clear flags*/
 378:Drivers/STM32L1xx_HAL_Driver/Src/stm32l1xx_hal_dma.c ****     DMA_SetConfig(hdma, SrcAddress, DstAddress, DataLength);
 379:Drivers/STM32L1xx_HAL_Driver/Src/stm32l1xx_hal_dma.c **** 
 380:Drivers/STM32L1xx_HAL_Driver/Src/stm32l1xx_hal_dma.c ****     /* Enable the transfer complete interrupt */
 381:Drivers/STM32L1xx_HAL_Driver/Src/stm32l1xx_hal_dma.c ****     /* Enable the transfer Error interrupt */
 382:Drivers/STM32L1xx_HAL_Driver/Src/stm32l1xx_hal_dma.c ****     if(NULL != hdma->XferHalfCpltCallback )
 383:Drivers/STM32L1xx_HAL_Driver/Src/stm32l1xx_hal_dma.c ****     {
 384:Drivers/STM32L1xx_HAL_Driver/Src/stm32l1xx_hal_dma.c ****       /* Enable the Half transfer complete interrupt as well */
 385:Drivers/STM32L1xx_HAL_Driver/Src/stm32l1xx_hal_dma.c ****       __HAL_DMA_ENABLE_IT(hdma, (DMA_IT_TC | DMA_IT_HT | DMA_IT_TE));
 386:Drivers/STM32L1xx_HAL_Driver/Src/stm32l1xx_hal_dma.c ****     }
 387:Drivers/STM32L1xx_HAL_Driver/Src/stm32l1xx_hal_dma.c ****     else
 388:Drivers/STM32L1xx_HAL_Driver/Src/stm32l1xx_hal_dma.c ****     {
 389:Drivers/STM32L1xx_HAL_Driver/Src/stm32l1xx_hal_dma.c ****       __HAL_DMA_DISABLE_IT(hdma, DMA_IT_HT);
 390:Drivers/STM32L1xx_HAL_Driver/Src/stm32l1xx_hal_dma.c ****       __HAL_DMA_ENABLE_IT(hdma, (DMA_IT_TC | DMA_IT_TE));
 391:Drivers/STM32L1xx_HAL_Driver/Src/stm32l1xx_hal_dma.c ****     }
 392:Drivers/STM32L1xx_HAL_Driver/Src/stm32l1xx_hal_dma.c **** 
 393:Drivers/STM32L1xx_HAL_Driver/Src/stm32l1xx_hal_dma.c ****     /* Enable the Peripheral */
 394:Drivers/STM32L1xx_HAL_Driver/Src/stm32l1xx_hal_dma.c ****     __HAL_DMA_ENABLE(hdma);
 395:Drivers/STM32L1xx_HAL_Driver/Src/stm32l1xx_hal_dma.c ****   }
 396:Drivers/STM32L1xx_HAL_Driver/Src/stm32l1xx_hal_dma.c ****   else
 397:Drivers/STM32L1xx_HAL_Driver/Src/stm32l1xx_hal_dma.c ****   {
 398:Drivers/STM32L1xx_HAL_Driver/Src/stm32l1xx_hal_dma.c ****     /* Process Unlocked */
 399:Drivers/STM32L1xx_HAL_Driver/Src/stm32l1xx_hal_dma.c ****     __HAL_UNLOCK(hdma);
 400:Drivers/STM32L1xx_HAL_Driver/Src/stm32l1xx_hal_dma.c **** 
 401:Drivers/STM32L1xx_HAL_Driver/Src/stm32l1xx_hal_dma.c ****     /* Remain BUSY */
 402:Drivers/STM32L1xx_HAL_Driver/Src/stm32l1xx_hal_dma.c ****     status = HAL_BUSY;
 403:Drivers/STM32L1xx_HAL_Driver/Src/stm32l1xx_hal_dma.c ****   }
 404:Drivers/STM32L1xx_HAL_Driver/Src/stm32l1xx_hal_dma.c ****   return status;
 405:Drivers/STM32L1xx_HAL_Driver/Src/stm32l1xx_hal_dma.c **** }
 406:Drivers/STM32L1xx_HAL_Driver/Src/stm32l1xx_hal_dma.c **** 
 407:Drivers/STM32L1xx_HAL_Driver/Src/stm32l1xx_hal_dma.c **** /**
 408:Drivers/STM32L1xx_HAL_Driver/Src/stm32l1xx_hal_dma.c ****   * @brief  Abort the DMA Transfer.
 409:Drivers/STM32L1xx_HAL_Driver/Src/stm32l1xx_hal_dma.c ****   * @param  hdma pointer to a DMA_HandleTypeDef structure that contains
 410:Drivers/STM32L1xx_HAL_Driver/Src/stm32l1xx_hal_dma.c ****   *               the configuration information for the specified DMA Channel.
 411:Drivers/STM32L1xx_HAL_Driver/Src/stm32l1xx_hal_dma.c ****   * @retval HAL status
 412:Drivers/STM32L1xx_HAL_Driver/Src/stm32l1xx_hal_dma.c ****   */
 413:Drivers/STM32L1xx_HAL_Driver/Src/stm32l1xx_hal_dma.c **** HAL_StatusTypeDef HAL_DMA_Abort(DMA_HandleTypeDef *hdma)
 414:Drivers/STM32L1xx_HAL_Driver/Src/stm32l1xx_hal_dma.c **** {
 415:Drivers/STM32L1xx_HAL_Driver/Src/stm32l1xx_hal_dma.c ****   HAL_StatusTypeDef status = HAL_OK;
 416:Drivers/STM32L1xx_HAL_Driver/Src/stm32l1xx_hal_dma.c **** 
 417:Drivers/STM32L1xx_HAL_Driver/Src/stm32l1xx_hal_dma.c ****   /* Check the DMA peripheral state */
 418:Drivers/STM32L1xx_HAL_Driver/Src/stm32l1xx_hal_dma.c ****   if(hdma->State != HAL_DMA_STATE_BUSY)
 419:Drivers/STM32L1xx_HAL_Driver/Src/stm32l1xx_hal_dma.c ****   {
 420:Drivers/STM32L1xx_HAL_Driver/Src/stm32l1xx_hal_dma.c ****     hdma->ErrorCode = HAL_DMA_ERROR_NO_XFER;
 421:Drivers/STM32L1xx_HAL_Driver/Src/stm32l1xx_hal_dma.c **** 
 422:Drivers/STM32L1xx_HAL_Driver/Src/stm32l1xx_hal_dma.c ****     /* Process Unlocked */
 423:Drivers/STM32L1xx_HAL_Driver/Src/stm32l1xx_hal_dma.c ****     __HAL_UNLOCK(hdma);
 424:Drivers/STM32L1xx_HAL_Driver/Src/stm32l1xx_hal_dma.c **** 
 425:Drivers/STM32L1xx_HAL_Driver/Src/stm32l1xx_hal_dma.c ****     return HAL_ERROR;
 426:Drivers/STM32L1xx_HAL_Driver/Src/stm32l1xx_hal_dma.c ****   }
 427:Drivers/STM32L1xx_HAL_Driver/Src/stm32l1xx_hal_dma.c ****   else
 428:Drivers/STM32L1xx_HAL_Driver/Src/stm32l1xx_hal_dma.c ****   {
 429:Drivers/STM32L1xx_HAL_Driver/Src/stm32l1xx_hal_dma.c ****     /* Disable DMA IT */
 430:Drivers/STM32L1xx_HAL_Driver/Src/stm32l1xx_hal_dma.c ****     __HAL_DMA_DISABLE_IT(hdma, (DMA_IT_TC | DMA_IT_HT | DMA_IT_TE));
 431:Drivers/STM32L1xx_HAL_Driver/Src/stm32l1xx_hal_dma.c **** 
ARM GAS  /tmp/cc6rMAp7.s 			page 9


 432:Drivers/STM32L1xx_HAL_Driver/Src/stm32l1xx_hal_dma.c ****     /* Disable the channel */
 433:Drivers/STM32L1xx_HAL_Driver/Src/stm32l1xx_hal_dma.c ****     __HAL_DMA_DISABLE(hdma);
 434:Drivers/STM32L1xx_HAL_Driver/Src/stm32l1xx_hal_dma.c **** 
 435:Drivers/STM32L1xx_HAL_Driver/Src/stm32l1xx_hal_dma.c ****     /* Clear all flags */
 436:Drivers/STM32L1xx_HAL_Driver/Src/stm32l1xx_hal_dma.c ****     hdma->DmaBaseAddress->IFCR = (DMA_ISR_GIF1 << (hdma->ChannelIndex & 0x1CU));
 437:Drivers/STM32L1xx_HAL_Driver/Src/stm32l1xx_hal_dma.c **** 
 438:Drivers/STM32L1xx_HAL_Driver/Src/stm32l1xx_hal_dma.c ****     /* Change the DMA state */
 439:Drivers/STM32L1xx_HAL_Driver/Src/stm32l1xx_hal_dma.c ****     hdma->State = HAL_DMA_STATE_READY;
 440:Drivers/STM32L1xx_HAL_Driver/Src/stm32l1xx_hal_dma.c **** 
 441:Drivers/STM32L1xx_HAL_Driver/Src/stm32l1xx_hal_dma.c ****     /* Process Unlocked */
 442:Drivers/STM32L1xx_HAL_Driver/Src/stm32l1xx_hal_dma.c ****     __HAL_UNLOCK(hdma);
 443:Drivers/STM32L1xx_HAL_Driver/Src/stm32l1xx_hal_dma.c **** 
 444:Drivers/STM32L1xx_HAL_Driver/Src/stm32l1xx_hal_dma.c ****     return status;
 445:Drivers/STM32L1xx_HAL_Driver/Src/stm32l1xx_hal_dma.c ****   }
 446:Drivers/STM32L1xx_HAL_Driver/Src/stm32l1xx_hal_dma.c **** }
 447:Drivers/STM32L1xx_HAL_Driver/Src/stm32l1xx_hal_dma.c **** 
 448:Drivers/STM32L1xx_HAL_Driver/Src/stm32l1xx_hal_dma.c **** /**
 449:Drivers/STM32L1xx_HAL_Driver/Src/stm32l1xx_hal_dma.c ****   * @brief  Aborts the DMA Transfer in Interrupt mode.
 450:Drivers/STM32L1xx_HAL_Driver/Src/stm32l1xx_hal_dma.c ****   * @param  hdma pointer to a DMA_HandleTypeDef structure that contains
 451:Drivers/STM32L1xx_HAL_Driver/Src/stm32l1xx_hal_dma.c ****   *                 the configuration information for the specified DMA Channel.
 452:Drivers/STM32L1xx_HAL_Driver/Src/stm32l1xx_hal_dma.c ****   * @retval HAL status
 453:Drivers/STM32L1xx_HAL_Driver/Src/stm32l1xx_hal_dma.c ****   */
 454:Drivers/STM32L1xx_HAL_Driver/Src/stm32l1xx_hal_dma.c **** HAL_StatusTypeDef HAL_DMA_Abort_IT(DMA_HandleTypeDef *hdma)
 455:Drivers/STM32L1xx_HAL_Driver/Src/stm32l1xx_hal_dma.c **** {
 456:Drivers/STM32L1xx_HAL_Driver/Src/stm32l1xx_hal_dma.c ****   HAL_StatusTypeDef status = HAL_OK;
 457:Drivers/STM32L1xx_HAL_Driver/Src/stm32l1xx_hal_dma.c **** 
 458:Drivers/STM32L1xx_HAL_Driver/Src/stm32l1xx_hal_dma.c ****   if(HAL_DMA_STATE_BUSY != hdma->State)
 459:Drivers/STM32L1xx_HAL_Driver/Src/stm32l1xx_hal_dma.c ****   {
 460:Drivers/STM32L1xx_HAL_Driver/Src/stm32l1xx_hal_dma.c ****     /* no transfer ongoing */
 461:Drivers/STM32L1xx_HAL_Driver/Src/stm32l1xx_hal_dma.c ****     hdma->ErrorCode = HAL_DMA_ERROR_NO_XFER;
 462:Drivers/STM32L1xx_HAL_Driver/Src/stm32l1xx_hal_dma.c **** 
 463:Drivers/STM32L1xx_HAL_Driver/Src/stm32l1xx_hal_dma.c ****     status = HAL_ERROR;
 464:Drivers/STM32L1xx_HAL_Driver/Src/stm32l1xx_hal_dma.c ****   }
 465:Drivers/STM32L1xx_HAL_Driver/Src/stm32l1xx_hal_dma.c ****   else
 466:Drivers/STM32L1xx_HAL_Driver/Src/stm32l1xx_hal_dma.c ****   {
 467:Drivers/STM32L1xx_HAL_Driver/Src/stm32l1xx_hal_dma.c ****     /* Disable DMA IT */
 468:Drivers/STM32L1xx_HAL_Driver/Src/stm32l1xx_hal_dma.c ****     __HAL_DMA_DISABLE_IT(hdma, (DMA_IT_TC | DMA_IT_HT | DMA_IT_TE));
 469:Drivers/STM32L1xx_HAL_Driver/Src/stm32l1xx_hal_dma.c **** 
 470:Drivers/STM32L1xx_HAL_Driver/Src/stm32l1xx_hal_dma.c ****     /* Disable the channel */
 471:Drivers/STM32L1xx_HAL_Driver/Src/stm32l1xx_hal_dma.c ****     __HAL_DMA_DISABLE(hdma);
 472:Drivers/STM32L1xx_HAL_Driver/Src/stm32l1xx_hal_dma.c **** 
 473:Drivers/STM32L1xx_HAL_Driver/Src/stm32l1xx_hal_dma.c ****     /* Clear all flags */
 474:Drivers/STM32L1xx_HAL_Driver/Src/stm32l1xx_hal_dma.c ****     hdma->DmaBaseAddress->IFCR = (DMA_ISR_GIF1 << (hdma->ChannelIndex & 0x1CU));
 475:Drivers/STM32L1xx_HAL_Driver/Src/stm32l1xx_hal_dma.c **** 
 476:Drivers/STM32L1xx_HAL_Driver/Src/stm32l1xx_hal_dma.c ****     /* Change the DMA state */
 477:Drivers/STM32L1xx_HAL_Driver/Src/stm32l1xx_hal_dma.c ****     hdma->State = HAL_DMA_STATE_READY;
 478:Drivers/STM32L1xx_HAL_Driver/Src/stm32l1xx_hal_dma.c **** 
 479:Drivers/STM32L1xx_HAL_Driver/Src/stm32l1xx_hal_dma.c ****     /* Process Unlocked */
 480:Drivers/STM32L1xx_HAL_Driver/Src/stm32l1xx_hal_dma.c ****     __HAL_UNLOCK(hdma);
 481:Drivers/STM32L1xx_HAL_Driver/Src/stm32l1xx_hal_dma.c **** 
 482:Drivers/STM32L1xx_HAL_Driver/Src/stm32l1xx_hal_dma.c ****     /* Call User Abort callback */
 483:Drivers/STM32L1xx_HAL_Driver/Src/stm32l1xx_hal_dma.c ****     if(hdma->XferAbortCallback != NULL)
 484:Drivers/STM32L1xx_HAL_Driver/Src/stm32l1xx_hal_dma.c ****     {
 485:Drivers/STM32L1xx_HAL_Driver/Src/stm32l1xx_hal_dma.c ****       hdma->XferAbortCallback(hdma);
 486:Drivers/STM32L1xx_HAL_Driver/Src/stm32l1xx_hal_dma.c ****     }
 487:Drivers/STM32L1xx_HAL_Driver/Src/stm32l1xx_hal_dma.c ****   }
 488:Drivers/STM32L1xx_HAL_Driver/Src/stm32l1xx_hal_dma.c ****   return status;
ARM GAS  /tmp/cc6rMAp7.s 			page 10


 489:Drivers/STM32L1xx_HAL_Driver/Src/stm32l1xx_hal_dma.c **** }
 490:Drivers/STM32L1xx_HAL_Driver/Src/stm32l1xx_hal_dma.c **** 
 491:Drivers/STM32L1xx_HAL_Driver/Src/stm32l1xx_hal_dma.c **** /**
 492:Drivers/STM32L1xx_HAL_Driver/Src/stm32l1xx_hal_dma.c ****   * @brief  Polling for transfer complete.
 493:Drivers/STM32L1xx_HAL_Driver/Src/stm32l1xx_hal_dma.c ****   * @param  hdma pointer to a DMA_HandleTypeDef structure that contains
 494:Drivers/STM32L1xx_HAL_Driver/Src/stm32l1xx_hal_dma.c ****   *                  the configuration information for the specified DMA Channel.
 495:Drivers/STM32L1xx_HAL_Driver/Src/stm32l1xx_hal_dma.c ****   * @param  CompleteLevel Specifies the DMA level complete.
 496:Drivers/STM32L1xx_HAL_Driver/Src/stm32l1xx_hal_dma.c ****   * @param  Timeout       Timeout duration.
 497:Drivers/STM32L1xx_HAL_Driver/Src/stm32l1xx_hal_dma.c ****   * @retval HAL status
 498:Drivers/STM32L1xx_HAL_Driver/Src/stm32l1xx_hal_dma.c ****   */
 499:Drivers/STM32L1xx_HAL_Driver/Src/stm32l1xx_hal_dma.c **** HAL_StatusTypeDef HAL_DMA_PollForTransfer(DMA_HandleTypeDef *hdma, HAL_DMA_LevelCompleteTypeDef Com
 500:Drivers/STM32L1xx_HAL_Driver/Src/stm32l1xx_hal_dma.c **** {
 501:Drivers/STM32L1xx_HAL_Driver/Src/stm32l1xx_hal_dma.c ****   uint32_t temp;
 502:Drivers/STM32L1xx_HAL_Driver/Src/stm32l1xx_hal_dma.c ****   uint32_t tickstart;
 503:Drivers/STM32L1xx_HAL_Driver/Src/stm32l1xx_hal_dma.c **** 
 504:Drivers/STM32L1xx_HAL_Driver/Src/stm32l1xx_hal_dma.c ****   if(HAL_DMA_STATE_BUSY != hdma->State)
 505:Drivers/STM32L1xx_HAL_Driver/Src/stm32l1xx_hal_dma.c ****   {
 506:Drivers/STM32L1xx_HAL_Driver/Src/stm32l1xx_hal_dma.c ****     /* no transfer ongoing */
 507:Drivers/STM32L1xx_HAL_Driver/Src/stm32l1xx_hal_dma.c ****     hdma->ErrorCode = HAL_DMA_ERROR_NO_XFER;
 508:Drivers/STM32L1xx_HAL_Driver/Src/stm32l1xx_hal_dma.c ****     __HAL_UNLOCK(hdma);
 509:Drivers/STM32L1xx_HAL_Driver/Src/stm32l1xx_hal_dma.c ****     return HAL_ERROR;
 510:Drivers/STM32L1xx_HAL_Driver/Src/stm32l1xx_hal_dma.c ****   }
 511:Drivers/STM32L1xx_HAL_Driver/Src/stm32l1xx_hal_dma.c **** 
 512:Drivers/STM32L1xx_HAL_Driver/Src/stm32l1xx_hal_dma.c ****   /* Polling mode not supported in circular mode */
 513:Drivers/STM32L1xx_HAL_Driver/Src/stm32l1xx_hal_dma.c ****   if ((hdma->Instance->CCR & DMA_CCR_CIRC) != 0U)
 514:Drivers/STM32L1xx_HAL_Driver/Src/stm32l1xx_hal_dma.c ****   {
 515:Drivers/STM32L1xx_HAL_Driver/Src/stm32l1xx_hal_dma.c ****     hdma->ErrorCode = HAL_DMA_ERROR_NOT_SUPPORTED;
 516:Drivers/STM32L1xx_HAL_Driver/Src/stm32l1xx_hal_dma.c ****     return HAL_ERROR;
 517:Drivers/STM32L1xx_HAL_Driver/Src/stm32l1xx_hal_dma.c ****   }
 518:Drivers/STM32L1xx_HAL_Driver/Src/stm32l1xx_hal_dma.c **** 
 519:Drivers/STM32L1xx_HAL_Driver/Src/stm32l1xx_hal_dma.c ****   /* Get the level transfer complete flag */
 520:Drivers/STM32L1xx_HAL_Driver/Src/stm32l1xx_hal_dma.c ****   if (HAL_DMA_FULL_TRANSFER == CompleteLevel)
 521:Drivers/STM32L1xx_HAL_Driver/Src/stm32l1xx_hal_dma.c ****   {
 522:Drivers/STM32L1xx_HAL_Driver/Src/stm32l1xx_hal_dma.c ****     /* Transfer Complete flag */
 523:Drivers/STM32L1xx_HAL_Driver/Src/stm32l1xx_hal_dma.c ****     temp = DMA_FLAG_TC1 << (hdma->ChannelIndex & 0x1CU);
 524:Drivers/STM32L1xx_HAL_Driver/Src/stm32l1xx_hal_dma.c ****   }
 525:Drivers/STM32L1xx_HAL_Driver/Src/stm32l1xx_hal_dma.c ****   else
 526:Drivers/STM32L1xx_HAL_Driver/Src/stm32l1xx_hal_dma.c ****   {
 527:Drivers/STM32L1xx_HAL_Driver/Src/stm32l1xx_hal_dma.c ****     /* Half Transfer Complete flag */
 528:Drivers/STM32L1xx_HAL_Driver/Src/stm32l1xx_hal_dma.c ****     temp = DMA_FLAG_HT1 << (hdma->ChannelIndex & 0x1CU);
 529:Drivers/STM32L1xx_HAL_Driver/Src/stm32l1xx_hal_dma.c ****   }
 530:Drivers/STM32L1xx_HAL_Driver/Src/stm32l1xx_hal_dma.c **** 
 531:Drivers/STM32L1xx_HAL_Driver/Src/stm32l1xx_hal_dma.c ****   /* Get tick */
 532:Drivers/STM32L1xx_HAL_Driver/Src/stm32l1xx_hal_dma.c ****   tickstart = HAL_GetTick();
 533:Drivers/STM32L1xx_HAL_Driver/Src/stm32l1xx_hal_dma.c **** 
 534:Drivers/STM32L1xx_HAL_Driver/Src/stm32l1xx_hal_dma.c ****   while((hdma->DmaBaseAddress->ISR & temp) == 0U)
 535:Drivers/STM32L1xx_HAL_Driver/Src/stm32l1xx_hal_dma.c ****   {
 536:Drivers/STM32L1xx_HAL_Driver/Src/stm32l1xx_hal_dma.c ****     if((hdma->DmaBaseAddress->ISR & (DMA_FLAG_TE1 << (hdma->ChannelIndex& 0x1CU))) != 0U)
 537:Drivers/STM32L1xx_HAL_Driver/Src/stm32l1xx_hal_dma.c ****     {
 538:Drivers/STM32L1xx_HAL_Driver/Src/stm32l1xx_hal_dma.c ****       /* When a DMA transfer error occurs */
 539:Drivers/STM32L1xx_HAL_Driver/Src/stm32l1xx_hal_dma.c ****       /* A hardware clear of its EN bits is performed */
 540:Drivers/STM32L1xx_HAL_Driver/Src/stm32l1xx_hal_dma.c ****       /* Clear all flags */
 541:Drivers/STM32L1xx_HAL_Driver/Src/stm32l1xx_hal_dma.c ****       hdma->DmaBaseAddress->IFCR = (DMA_ISR_GIF1 << (hdma->ChannelIndex & 0x1CU));
 542:Drivers/STM32L1xx_HAL_Driver/Src/stm32l1xx_hal_dma.c **** 
 543:Drivers/STM32L1xx_HAL_Driver/Src/stm32l1xx_hal_dma.c ****       /* Update error code */
 544:Drivers/STM32L1xx_HAL_Driver/Src/stm32l1xx_hal_dma.c ****       hdma->ErrorCode = HAL_DMA_ERROR_TE;
 545:Drivers/STM32L1xx_HAL_Driver/Src/stm32l1xx_hal_dma.c **** 
ARM GAS  /tmp/cc6rMAp7.s 			page 11


 546:Drivers/STM32L1xx_HAL_Driver/Src/stm32l1xx_hal_dma.c ****       /* Change the DMA state */
 547:Drivers/STM32L1xx_HAL_Driver/Src/stm32l1xx_hal_dma.c ****       hdma->State= HAL_DMA_STATE_READY;
 548:Drivers/STM32L1xx_HAL_Driver/Src/stm32l1xx_hal_dma.c **** 
 549:Drivers/STM32L1xx_HAL_Driver/Src/stm32l1xx_hal_dma.c ****       /* Process Unlocked */
 550:Drivers/STM32L1xx_HAL_Driver/Src/stm32l1xx_hal_dma.c ****       __HAL_UNLOCK(hdma);
 551:Drivers/STM32L1xx_HAL_Driver/Src/stm32l1xx_hal_dma.c **** 
 552:Drivers/STM32L1xx_HAL_Driver/Src/stm32l1xx_hal_dma.c ****       return HAL_ERROR;
 553:Drivers/STM32L1xx_HAL_Driver/Src/stm32l1xx_hal_dma.c ****     }
 554:Drivers/STM32L1xx_HAL_Driver/Src/stm32l1xx_hal_dma.c ****     /* Check for the Timeout */
 555:Drivers/STM32L1xx_HAL_Driver/Src/stm32l1xx_hal_dma.c ****     if(Timeout != HAL_MAX_DELAY)
 556:Drivers/STM32L1xx_HAL_Driver/Src/stm32l1xx_hal_dma.c ****     {
 557:Drivers/STM32L1xx_HAL_Driver/Src/stm32l1xx_hal_dma.c ****       if(((HAL_GetTick() - tickstart) > Timeout) ||  (Timeout == 0U))
 558:Drivers/STM32L1xx_HAL_Driver/Src/stm32l1xx_hal_dma.c ****       {
 559:Drivers/STM32L1xx_HAL_Driver/Src/stm32l1xx_hal_dma.c ****         /* Update error code */
 560:Drivers/STM32L1xx_HAL_Driver/Src/stm32l1xx_hal_dma.c ****         hdma->ErrorCode = HAL_DMA_ERROR_TIMEOUT;
 561:Drivers/STM32L1xx_HAL_Driver/Src/stm32l1xx_hal_dma.c **** 
 562:Drivers/STM32L1xx_HAL_Driver/Src/stm32l1xx_hal_dma.c ****         /* Change the DMA state */
 563:Drivers/STM32L1xx_HAL_Driver/Src/stm32l1xx_hal_dma.c ****         hdma->State = HAL_DMA_STATE_READY;
 564:Drivers/STM32L1xx_HAL_Driver/Src/stm32l1xx_hal_dma.c **** 
 565:Drivers/STM32L1xx_HAL_Driver/Src/stm32l1xx_hal_dma.c ****         /* Process Unlocked */
 566:Drivers/STM32L1xx_HAL_Driver/Src/stm32l1xx_hal_dma.c ****         __HAL_UNLOCK(hdma);
 567:Drivers/STM32L1xx_HAL_Driver/Src/stm32l1xx_hal_dma.c **** 
 568:Drivers/STM32L1xx_HAL_Driver/Src/stm32l1xx_hal_dma.c ****         return HAL_ERROR;
 569:Drivers/STM32L1xx_HAL_Driver/Src/stm32l1xx_hal_dma.c ****       }
 570:Drivers/STM32L1xx_HAL_Driver/Src/stm32l1xx_hal_dma.c ****     }
 571:Drivers/STM32L1xx_HAL_Driver/Src/stm32l1xx_hal_dma.c ****   }
 572:Drivers/STM32L1xx_HAL_Driver/Src/stm32l1xx_hal_dma.c **** 
 573:Drivers/STM32L1xx_HAL_Driver/Src/stm32l1xx_hal_dma.c ****   if(HAL_DMA_FULL_TRANSFER == CompleteLevel)
 574:Drivers/STM32L1xx_HAL_Driver/Src/stm32l1xx_hal_dma.c ****   {
 575:Drivers/STM32L1xx_HAL_Driver/Src/stm32l1xx_hal_dma.c ****     /* Clear the transfer complete flag */
 576:Drivers/STM32L1xx_HAL_Driver/Src/stm32l1xx_hal_dma.c ****     hdma->DmaBaseAddress->IFCR = (DMA_FLAG_TC1 << (hdma->ChannelIndex& 0x1CU));
 577:Drivers/STM32L1xx_HAL_Driver/Src/stm32l1xx_hal_dma.c **** 
 578:Drivers/STM32L1xx_HAL_Driver/Src/stm32l1xx_hal_dma.c ****     /* The selected Channelx EN bit is cleared (DMA is disabled and
 579:Drivers/STM32L1xx_HAL_Driver/Src/stm32l1xx_hal_dma.c ****     all transfers are complete) */
 580:Drivers/STM32L1xx_HAL_Driver/Src/stm32l1xx_hal_dma.c ****     hdma->State = HAL_DMA_STATE_READY;
 581:Drivers/STM32L1xx_HAL_Driver/Src/stm32l1xx_hal_dma.c ****   }
 582:Drivers/STM32L1xx_HAL_Driver/Src/stm32l1xx_hal_dma.c ****   else
 583:Drivers/STM32L1xx_HAL_Driver/Src/stm32l1xx_hal_dma.c ****   {
 584:Drivers/STM32L1xx_HAL_Driver/Src/stm32l1xx_hal_dma.c ****     /* Clear the half transfer complete flag */
 585:Drivers/STM32L1xx_HAL_Driver/Src/stm32l1xx_hal_dma.c ****     hdma->DmaBaseAddress->IFCR = (DMA_FLAG_HT1 << (hdma->ChannelIndex & 0x1CU));
 586:Drivers/STM32L1xx_HAL_Driver/Src/stm32l1xx_hal_dma.c ****   }
 587:Drivers/STM32L1xx_HAL_Driver/Src/stm32l1xx_hal_dma.c **** 
 588:Drivers/STM32L1xx_HAL_Driver/Src/stm32l1xx_hal_dma.c ****   /* Process unlocked */
 589:Drivers/STM32L1xx_HAL_Driver/Src/stm32l1xx_hal_dma.c ****   __HAL_UNLOCK(hdma);
 590:Drivers/STM32L1xx_HAL_Driver/Src/stm32l1xx_hal_dma.c **** 
 591:Drivers/STM32L1xx_HAL_Driver/Src/stm32l1xx_hal_dma.c ****   return HAL_OK;
 592:Drivers/STM32L1xx_HAL_Driver/Src/stm32l1xx_hal_dma.c **** }
 593:Drivers/STM32L1xx_HAL_Driver/Src/stm32l1xx_hal_dma.c **** 
 594:Drivers/STM32L1xx_HAL_Driver/Src/stm32l1xx_hal_dma.c **** /**
 595:Drivers/STM32L1xx_HAL_Driver/Src/stm32l1xx_hal_dma.c ****   * @brief  Handle DMA interrupt request.
 596:Drivers/STM32L1xx_HAL_Driver/Src/stm32l1xx_hal_dma.c ****   * @param  hdma pointer to a DMA_HandleTypeDef structure that contains
 597:Drivers/STM32L1xx_HAL_Driver/Src/stm32l1xx_hal_dma.c ****   *               the configuration information for the specified DMA Channel.
 598:Drivers/STM32L1xx_HAL_Driver/Src/stm32l1xx_hal_dma.c ****   * @retval None
 599:Drivers/STM32L1xx_HAL_Driver/Src/stm32l1xx_hal_dma.c ****   */
 600:Drivers/STM32L1xx_HAL_Driver/Src/stm32l1xx_hal_dma.c **** void HAL_DMA_IRQHandler(DMA_HandleTypeDef *hdma)
 601:Drivers/STM32L1xx_HAL_Driver/Src/stm32l1xx_hal_dma.c **** {
 602:Drivers/STM32L1xx_HAL_Driver/Src/stm32l1xx_hal_dma.c ****   uint32_t flag_it = hdma->DmaBaseAddress->ISR;
ARM GAS  /tmp/cc6rMAp7.s 			page 12


 603:Drivers/STM32L1xx_HAL_Driver/Src/stm32l1xx_hal_dma.c ****   uint32_t source_it = hdma->Instance->CCR;
 604:Drivers/STM32L1xx_HAL_Driver/Src/stm32l1xx_hal_dma.c **** 
 605:Drivers/STM32L1xx_HAL_Driver/Src/stm32l1xx_hal_dma.c ****   /* Half Transfer Complete Interrupt management ******************************/
 606:Drivers/STM32L1xx_HAL_Driver/Src/stm32l1xx_hal_dma.c ****   if (((flag_it & (DMA_FLAG_HT1 << (hdma->ChannelIndex & 0x1CU))) != 0U) && ((source_it & DMA_IT_HT
 607:Drivers/STM32L1xx_HAL_Driver/Src/stm32l1xx_hal_dma.c ****   {
 608:Drivers/STM32L1xx_HAL_Driver/Src/stm32l1xx_hal_dma.c ****     /* Disable the half transfer interrupt if the DMA mode is not CIRCULAR */
 609:Drivers/STM32L1xx_HAL_Driver/Src/stm32l1xx_hal_dma.c ****     if((hdma->Instance->CCR & DMA_CCR_CIRC) == 0U)
 610:Drivers/STM32L1xx_HAL_Driver/Src/stm32l1xx_hal_dma.c ****     {
 611:Drivers/STM32L1xx_HAL_Driver/Src/stm32l1xx_hal_dma.c ****       /* Disable the half transfer interrupt */
 612:Drivers/STM32L1xx_HAL_Driver/Src/stm32l1xx_hal_dma.c ****       __HAL_DMA_DISABLE_IT(hdma, DMA_IT_HT);
 613:Drivers/STM32L1xx_HAL_Driver/Src/stm32l1xx_hal_dma.c ****     }
 614:Drivers/STM32L1xx_HAL_Driver/Src/stm32l1xx_hal_dma.c ****     /* Clear the half transfer complete flag */
 615:Drivers/STM32L1xx_HAL_Driver/Src/stm32l1xx_hal_dma.c ****     hdma->DmaBaseAddress->IFCR = DMA_ISR_HTIF1 << (hdma->ChannelIndex & 0x1CU);
 616:Drivers/STM32L1xx_HAL_Driver/Src/stm32l1xx_hal_dma.c **** 
 617:Drivers/STM32L1xx_HAL_Driver/Src/stm32l1xx_hal_dma.c ****     /* DMA peripheral state is not updated in Half Transfer */
 618:Drivers/STM32L1xx_HAL_Driver/Src/stm32l1xx_hal_dma.c ****     /* but in Transfer Complete case */
 619:Drivers/STM32L1xx_HAL_Driver/Src/stm32l1xx_hal_dma.c **** 
 620:Drivers/STM32L1xx_HAL_Driver/Src/stm32l1xx_hal_dma.c ****     if(hdma->XferHalfCpltCallback != NULL)
 621:Drivers/STM32L1xx_HAL_Driver/Src/stm32l1xx_hal_dma.c ****     {
 622:Drivers/STM32L1xx_HAL_Driver/Src/stm32l1xx_hal_dma.c ****       /* Half transfer callback */
 623:Drivers/STM32L1xx_HAL_Driver/Src/stm32l1xx_hal_dma.c ****       hdma->XferHalfCpltCallback(hdma);
 624:Drivers/STM32L1xx_HAL_Driver/Src/stm32l1xx_hal_dma.c ****     }
 625:Drivers/STM32L1xx_HAL_Driver/Src/stm32l1xx_hal_dma.c ****   }
 626:Drivers/STM32L1xx_HAL_Driver/Src/stm32l1xx_hal_dma.c **** 
 627:Drivers/STM32L1xx_HAL_Driver/Src/stm32l1xx_hal_dma.c ****   /* Transfer Complete Interrupt management ***********************************/
 628:Drivers/STM32L1xx_HAL_Driver/Src/stm32l1xx_hal_dma.c ****   else if (((flag_it & (DMA_FLAG_TC1 << (hdma->ChannelIndex & 0x1CU))) != 0U) && ((source_it & DMA_
 629:Drivers/STM32L1xx_HAL_Driver/Src/stm32l1xx_hal_dma.c ****   {
 630:Drivers/STM32L1xx_HAL_Driver/Src/stm32l1xx_hal_dma.c ****     
 631:Drivers/STM32L1xx_HAL_Driver/Src/stm32l1xx_hal_dma.c ****     if((hdma->Instance->CCR & DMA_CCR_CIRC) == 0U)
 632:Drivers/STM32L1xx_HAL_Driver/Src/stm32l1xx_hal_dma.c ****     {
 633:Drivers/STM32L1xx_HAL_Driver/Src/stm32l1xx_hal_dma.c ****       /* Disable the transfer complete interrupt if the DMA mode is not CIRCULAR */
 634:Drivers/STM32L1xx_HAL_Driver/Src/stm32l1xx_hal_dma.c ****       /* Disable the transfer complete and error interrupt */
 635:Drivers/STM32L1xx_HAL_Driver/Src/stm32l1xx_hal_dma.c ****       /* if the DMA mode is not CIRCULAR  */
 636:Drivers/STM32L1xx_HAL_Driver/Src/stm32l1xx_hal_dma.c ****       __HAL_DMA_DISABLE_IT(hdma, DMA_IT_TE | DMA_IT_TC);
 637:Drivers/STM32L1xx_HAL_Driver/Src/stm32l1xx_hal_dma.c **** 
 638:Drivers/STM32L1xx_HAL_Driver/Src/stm32l1xx_hal_dma.c ****       /* Change the DMA state */
 639:Drivers/STM32L1xx_HAL_Driver/Src/stm32l1xx_hal_dma.c ****       hdma->State = HAL_DMA_STATE_READY;
 640:Drivers/STM32L1xx_HAL_Driver/Src/stm32l1xx_hal_dma.c ****     }
 641:Drivers/STM32L1xx_HAL_Driver/Src/stm32l1xx_hal_dma.c ****     /* Clear the transfer complete flag */
 642:Drivers/STM32L1xx_HAL_Driver/Src/stm32l1xx_hal_dma.c ****     hdma->DmaBaseAddress->IFCR = (DMA_ISR_TCIF1 << (hdma->ChannelIndex & 0x1CU));
 643:Drivers/STM32L1xx_HAL_Driver/Src/stm32l1xx_hal_dma.c **** 
 644:Drivers/STM32L1xx_HAL_Driver/Src/stm32l1xx_hal_dma.c ****     /* Process Unlocked */
 645:Drivers/STM32L1xx_HAL_Driver/Src/stm32l1xx_hal_dma.c ****     __HAL_UNLOCK(hdma);
 646:Drivers/STM32L1xx_HAL_Driver/Src/stm32l1xx_hal_dma.c **** 
 647:Drivers/STM32L1xx_HAL_Driver/Src/stm32l1xx_hal_dma.c ****     if(hdma->XferCpltCallback != NULL)
 648:Drivers/STM32L1xx_HAL_Driver/Src/stm32l1xx_hal_dma.c ****     {
 649:Drivers/STM32L1xx_HAL_Driver/Src/stm32l1xx_hal_dma.c ****       /* Transfer complete callback */
 650:Drivers/STM32L1xx_HAL_Driver/Src/stm32l1xx_hal_dma.c ****       hdma->XferCpltCallback(hdma);
 651:Drivers/STM32L1xx_HAL_Driver/Src/stm32l1xx_hal_dma.c ****     }
 652:Drivers/STM32L1xx_HAL_Driver/Src/stm32l1xx_hal_dma.c ****   }
 653:Drivers/STM32L1xx_HAL_Driver/Src/stm32l1xx_hal_dma.c **** 
 654:Drivers/STM32L1xx_HAL_Driver/Src/stm32l1xx_hal_dma.c ****   /* Transfer Error Interrupt management **************************************/
 655:Drivers/STM32L1xx_HAL_Driver/Src/stm32l1xx_hal_dma.c ****   else if (((flag_it & (DMA_FLAG_TE1 << (hdma->ChannelIndex & 0x1CU))) != 0U) && ((source_it & DMA_
 656:Drivers/STM32L1xx_HAL_Driver/Src/stm32l1xx_hal_dma.c ****   {
 657:Drivers/STM32L1xx_HAL_Driver/Src/stm32l1xx_hal_dma.c ****     /* When a DMA transfer error occurs */
 658:Drivers/STM32L1xx_HAL_Driver/Src/stm32l1xx_hal_dma.c ****     /* A hardware clear of its EN bits is performed */
 659:Drivers/STM32L1xx_HAL_Driver/Src/stm32l1xx_hal_dma.c ****     /* Disable ALL DMA IT */
ARM GAS  /tmp/cc6rMAp7.s 			page 13


 660:Drivers/STM32L1xx_HAL_Driver/Src/stm32l1xx_hal_dma.c ****     __HAL_DMA_DISABLE_IT(hdma, (DMA_IT_TC | DMA_IT_HT | DMA_IT_TE));
 661:Drivers/STM32L1xx_HAL_Driver/Src/stm32l1xx_hal_dma.c **** 
 662:Drivers/STM32L1xx_HAL_Driver/Src/stm32l1xx_hal_dma.c ****     /* Clear all flags */
 663:Drivers/STM32L1xx_HAL_Driver/Src/stm32l1xx_hal_dma.c ****     hdma->DmaBaseAddress->IFCR = (DMA_ISR_GIF1 << (hdma->ChannelIndex & 0x1CU));
 664:Drivers/STM32L1xx_HAL_Driver/Src/stm32l1xx_hal_dma.c **** 
 665:Drivers/STM32L1xx_HAL_Driver/Src/stm32l1xx_hal_dma.c ****     /* Update error code */
 666:Drivers/STM32L1xx_HAL_Driver/Src/stm32l1xx_hal_dma.c ****     hdma->ErrorCode = HAL_DMA_ERROR_TE;
 667:Drivers/STM32L1xx_HAL_Driver/Src/stm32l1xx_hal_dma.c **** 
 668:Drivers/STM32L1xx_HAL_Driver/Src/stm32l1xx_hal_dma.c ****     /* Change the DMA state */
 669:Drivers/STM32L1xx_HAL_Driver/Src/stm32l1xx_hal_dma.c ****     hdma->State = HAL_DMA_STATE_READY;
 670:Drivers/STM32L1xx_HAL_Driver/Src/stm32l1xx_hal_dma.c **** 
 671:Drivers/STM32L1xx_HAL_Driver/Src/stm32l1xx_hal_dma.c ****     /* Process Unlocked */
 672:Drivers/STM32L1xx_HAL_Driver/Src/stm32l1xx_hal_dma.c ****     __HAL_UNLOCK(hdma);
 673:Drivers/STM32L1xx_HAL_Driver/Src/stm32l1xx_hal_dma.c **** 
 674:Drivers/STM32L1xx_HAL_Driver/Src/stm32l1xx_hal_dma.c ****     if (hdma->XferErrorCallback != NULL)
 675:Drivers/STM32L1xx_HAL_Driver/Src/stm32l1xx_hal_dma.c ****     {
 676:Drivers/STM32L1xx_HAL_Driver/Src/stm32l1xx_hal_dma.c ****       /* Transfer error callback */
 677:Drivers/STM32L1xx_HAL_Driver/Src/stm32l1xx_hal_dma.c ****       hdma->XferErrorCallback(hdma);
 678:Drivers/STM32L1xx_HAL_Driver/Src/stm32l1xx_hal_dma.c ****     }
 679:Drivers/STM32L1xx_HAL_Driver/Src/stm32l1xx_hal_dma.c ****   }
 680:Drivers/STM32L1xx_HAL_Driver/Src/stm32l1xx_hal_dma.c ****   else
 681:Drivers/STM32L1xx_HAL_Driver/Src/stm32l1xx_hal_dma.c ****   {
 682:Drivers/STM32L1xx_HAL_Driver/Src/stm32l1xx_hal_dma.c ****     /* Nothing To Do */
 683:Drivers/STM32L1xx_HAL_Driver/Src/stm32l1xx_hal_dma.c ****   }
 684:Drivers/STM32L1xx_HAL_Driver/Src/stm32l1xx_hal_dma.c ****   return;
 685:Drivers/STM32L1xx_HAL_Driver/Src/stm32l1xx_hal_dma.c **** }
 686:Drivers/STM32L1xx_HAL_Driver/Src/stm32l1xx_hal_dma.c **** 
 687:Drivers/STM32L1xx_HAL_Driver/Src/stm32l1xx_hal_dma.c **** /**
 688:Drivers/STM32L1xx_HAL_Driver/Src/stm32l1xx_hal_dma.c ****   * @brief  Register callbacks
 689:Drivers/STM32L1xx_HAL_Driver/Src/stm32l1xx_hal_dma.c ****   * @param  hdma                 pointer to a DMA_HandleTypeDef structure that contains
 690:Drivers/STM32L1xx_HAL_Driver/Src/stm32l1xx_hal_dma.c ****   *                               the configuration information for the specified DMA Channel.
 691:Drivers/STM32L1xx_HAL_Driver/Src/stm32l1xx_hal_dma.c ****   * @param  CallbackID           User Callback identifier
 692:Drivers/STM32L1xx_HAL_Driver/Src/stm32l1xx_hal_dma.c ****   *                               a HAL_DMA_CallbackIDTypeDef ENUM as parameter.
 693:Drivers/STM32L1xx_HAL_Driver/Src/stm32l1xx_hal_dma.c ****   * @param  pCallback            pointer to private callback function which has pointer to
 694:Drivers/STM32L1xx_HAL_Driver/Src/stm32l1xx_hal_dma.c ****   *                               a DMA_HandleTypeDef structure as parameter.
 695:Drivers/STM32L1xx_HAL_Driver/Src/stm32l1xx_hal_dma.c ****   * @retval HAL status
 696:Drivers/STM32L1xx_HAL_Driver/Src/stm32l1xx_hal_dma.c ****   */
 697:Drivers/STM32L1xx_HAL_Driver/Src/stm32l1xx_hal_dma.c **** HAL_StatusTypeDef HAL_DMA_RegisterCallback(DMA_HandleTypeDef *hdma, HAL_DMA_CallbackIDTypeDef Callb
 698:Drivers/STM32L1xx_HAL_Driver/Src/stm32l1xx_hal_dma.c **** {
 699:Drivers/STM32L1xx_HAL_Driver/Src/stm32l1xx_hal_dma.c ****   HAL_StatusTypeDef status = HAL_OK;
 700:Drivers/STM32L1xx_HAL_Driver/Src/stm32l1xx_hal_dma.c **** 
 701:Drivers/STM32L1xx_HAL_Driver/Src/stm32l1xx_hal_dma.c ****   /* Process locked */
 702:Drivers/STM32L1xx_HAL_Driver/Src/stm32l1xx_hal_dma.c ****   __HAL_LOCK(hdma);
 703:Drivers/STM32L1xx_HAL_Driver/Src/stm32l1xx_hal_dma.c **** 
 704:Drivers/STM32L1xx_HAL_Driver/Src/stm32l1xx_hal_dma.c ****   if(HAL_DMA_STATE_READY == hdma->State)
 705:Drivers/STM32L1xx_HAL_Driver/Src/stm32l1xx_hal_dma.c ****   {
 706:Drivers/STM32L1xx_HAL_Driver/Src/stm32l1xx_hal_dma.c ****     switch (CallbackID)
 707:Drivers/STM32L1xx_HAL_Driver/Src/stm32l1xx_hal_dma.c ****     {
 708:Drivers/STM32L1xx_HAL_Driver/Src/stm32l1xx_hal_dma.c ****      case  HAL_DMA_XFER_CPLT_CB_ID:
 709:Drivers/STM32L1xx_HAL_Driver/Src/stm32l1xx_hal_dma.c ****            hdma->XferCpltCallback = pCallback;
 710:Drivers/STM32L1xx_HAL_Driver/Src/stm32l1xx_hal_dma.c ****            break;
 711:Drivers/STM32L1xx_HAL_Driver/Src/stm32l1xx_hal_dma.c **** 
 712:Drivers/STM32L1xx_HAL_Driver/Src/stm32l1xx_hal_dma.c ****      case  HAL_DMA_XFER_HALFCPLT_CB_ID:
 713:Drivers/STM32L1xx_HAL_Driver/Src/stm32l1xx_hal_dma.c ****            hdma->XferHalfCpltCallback = pCallback;
 714:Drivers/STM32L1xx_HAL_Driver/Src/stm32l1xx_hal_dma.c ****            break;
 715:Drivers/STM32L1xx_HAL_Driver/Src/stm32l1xx_hal_dma.c **** 
 716:Drivers/STM32L1xx_HAL_Driver/Src/stm32l1xx_hal_dma.c ****      case  HAL_DMA_XFER_ERROR_CB_ID:
ARM GAS  /tmp/cc6rMAp7.s 			page 14


 717:Drivers/STM32L1xx_HAL_Driver/Src/stm32l1xx_hal_dma.c ****            hdma->XferErrorCallback = pCallback;
 718:Drivers/STM32L1xx_HAL_Driver/Src/stm32l1xx_hal_dma.c ****            break;
 719:Drivers/STM32L1xx_HAL_Driver/Src/stm32l1xx_hal_dma.c **** 
 720:Drivers/STM32L1xx_HAL_Driver/Src/stm32l1xx_hal_dma.c ****      case  HAL_DMA_XFER_ABORT_CB_ID:
 721:Drivers/STM32L1xx_HAL_Driver/Src/stm32l1xx_hal_dma.c ****            hdma->XferAbortCallback = pCallback;
 722:Drivers/STM32L1xx_HAL_Driver/Src/stm32l1xx_hal_dma.c ****            break;
 723:Drivers/STM32L1xx_HAL_Driver/Src/stm32l1xx_hal_dma.c **** 
 724:Drivers/STM32L1xx_HAL_Driver/Src/stm32l1xx_hal_dma.c ****      default:
 725:Drivers/STM32L1xx_HAL_Driver/Src/stm32l1xx_hal_dma.c ****            status = HAL_ERROR;
 726:Drivers/STM32L1xx_HAL_Driver/Src/stm32l1xx_hal_dma.c ****            break;
 727:Drivers/STM32L1xx_HAL_Driver/Src/stm32l1xx_hal_dma.c ****     }
 728:Drivers/STM32L1xx_HAL_Driver/Src/stm32l1xx_hal_dma.c ****   }
 729:Drivers/STM32L1xx_HAL_Driver/Src/stm32l1xx_hal_dma.c ****   else
 730:Drivers/STM32L1xx_HAL_Driver/Src/stm32l1xx_hal_dma.c ****   {
 731:Drivers/STM32L1xx_HAL_Driver/Src/stm32l1xx_hal_dma.c ****     status = HAL_ERROR;
 732:Drivers/STM32L1xx_HAL_Driver/Src/stm32l1xx_hal_dma.c ****   }
 733:Drivers/STM32L1xx_HAL_Driver/Src/stm32l1xx_hal_dma.c **** 
 734:Drivers/STM32L1xx_HAL_Driver/Src/stm32l1xx_hal_dma.c ****   /* Release Lock */
 735:Drivers/STM32L1xx_HAL_Driver/Src/stm32l1xx_hal_dma.c ****   __HAL_UNLOCK(hdma);
 736:Drivers/STM32L1xx_HAL_Driver/Src/stm32l1xx_hal_dma.c **** 
 737:Drivers/STM32L1xx_HAL_Driver/Src/stm32l1xx_hal_dma.c ****   return status;
 738:Drivers/STM32L1xx_HAL_Driver/Src/stm32l1xx_hal_dma.c **** }
 739:Drivers/STM32L1xx_HAL_Driver/Src/stm32l1xx_hal_dma.c **** 
 740:Drivers/STM32L1xx_HAL_Driver/Src/stm32l1xx_hal_dma.c **** /**
 741:Drivers/STM32L1xx_HAL_Driver/Src/stm32l1xx_hal_dma.c ****   * @brief  UnRegister callbacks
 742:Drivers/STM32L1xx_HAL_Driver/Src/stm32l1xx_hal_dma.c ****   * @param  hdma                 pointer to a DMA_HandleTypeDef structure that contains
 743:Drivers/STM32L1xx_HAL_Driver/Src/stm32l1xx_hal_dma.c ****   *                               the configuration information for the specified DMA Channel.
 744:Drivers/STM32L1xx_HAL_Driver/Src/stm32l1xx_hal_dma.c ****   * @param  CallbackID           User Callback identifier
 745:Drivers/STM32L1xx_HAL_Driver/Src/stm32l1xx_hal_dma.c ****   *                               a HAL_DMA_CallbackIDTypeDef ENUM as parameter.
 746:Drivers/STM32L1xx_HAL_Driver/Src/stm32l1xx_hal_dma.c ****   * @retval HAL status
 747:Drivers/STM32L1xx_HAL_Driver/Src/stm32l1xx_hal_dma.c ****   */
 748:Drivers/STM32L1xx_HAL_Driver/Src/stm32l1xx_hal_dma.c **** HAL_StatusTypeDef HAL_DMA_UnRegisterCallback(DMA_HandleTypeDef *hdma, HAL_DMA_CallbackIDTypeDef Cal
 749:Drivers/STM32L1xx_HAL_Driver/Src/stm32l1xx_hal_dma.c **** {
 750:Drivers/STM32L1xx_HAL_Driver/Src/stm32l1xx_hal_dma.c ****   HAL_StatusTypeDef status = HAL_OK;
 751:Drivers/STM32L1xx_HAL_Driver/Src/stm32l1xx_hal_dma.c **** 
 752:Drivers/STM32L1xx_HAL_Driver/Src/stm32l1xx_hal_dma.c ****     /* Process locked */
 753:Drivers/STM32L1xx_HAL_Driver/Src/stm32l1xx_hal_dma.c ****   __HAL_LOCK(hdma);
 754:Drivers/STM32L1xx_HAL_Driver/Src/stm32l1xx_hal_dma.c **** 
 755:Drivers/STM32L1xx_HAL_Driver/Src/stm32l1xx_hal_dma.c ****   if(HAL_DMA_STATE_READY == hdma->State)
 756:Drivers/STM32L1xx_HAL_Driver/Src/stm32l1xx_hal_dma.c ****   {
 757:Drivers/STM32L1xx_HAL_Driver/Src/stm32l1xx_hal_dma.c ****     switch (CallbackID)
 758:Drivers/STM32L1xx_HAL_Driver/Src/stm32l1xx_hal_dma.c ****     {
 759:Drivers/STM32L1xx_HAL_Driver/Src/stm32l1xx_hal_dma.c ****      case  HAL_DMA_XFER_CPLT_CB_ID:
 760:Drivers/STM32L1xx_HAL_Driver/Src/stm32l1xx_hal_dma.c ****            hdma->XferCpltCallback = NULL;
 761:Drivers/STM32L1xx_HAL_Driver/Src/stm32l1xx_hal_dma.c ****            break;
 762:Drivers/STM32L1xx_HAL_Driver/Src/stm32l1xx_hal_dma.c **** 
 763:Drivers/STM32L1xx_HAL_Driver/Src/stm32l1xx_hal_dma.c ****      case  HAL_DMA_XFER_HALFCPLT_CB_ID:
 764:Drivers/STM32L1xx_HAL_Driver/Src/stm32l1xx_hal_dma.c ****            hdma->XferHalfCpltCallback = NULL;
 765:Drivers/STM32L1xx_HAL_Driver/Src/stm32l1xx_hal_dma.c ****            break;
 766:Drivers/STM32L1xx_HAL_Driver/Src/stm32l1xx_hal_dma.c **** 
 767:Drivers/STM32L1xx_HAL_Driver/Src/stm32l1xx_hal_dma.c ****      case  HAL_DMA_XFER_ERROR_CB_ID:
 768:Drivers/STM32L1xx_HAL_Driver/Src/stm32l1xx_hal_dma.c ****            hdma->XferErrorCallback = NULL;
 769:Drivers/STM32L1xx_HAL_Driver/Src/stm32l1xx_hal_dma.c ****            break;
 770:Drivers/STM32L1xx_HAL_Driver/Src/stm32l1xx_hal_dma.c **** 
 771:Drivers/STM32L1xx_HAL_Driver/Src/stm32l1xx_hal_dma.c ****      case  HAL_DMA_XFER_ABORT_CB_ID:
 772:Drivers/STM32L1xx_HAL_Driver/Src/stm32l1xx_hal_dma.c ****            hdma->XferAbortCallback = NULL;
 773:Drivers/STM32L1xx_HAL_Driver/Src/stm32l1xx_hal_dma.c ****            break;
ARM GAS  /tmp/cc6rMAp7.s 			page 15


 774:Drivers/STM32L1xx_HAL_Driver/Src/stm32l1xx_hal_dma.c **** 
 775:Drivers/STM32L1xx_HAL_Driver/Src/stm32l1xx_hal_dma.c ****     case   HAL_DMA_XFER_ALL_CB_ID:
 776:Drivers/STM32L1xx_HAL_Driver/Src/stm32l1xx_hal_dma.c ****            hdma->XferCpltCallback = NULL;
 777:Drivers/STM32L1xx_HAL_Driver/Src/stm32l1xx_hal_dma.c ****            hdma->XferHalfCpltCallback = NULL;
 778:Drivers/STM32L1xx_HAL_Driver/Src/stm32l1xx_hal_dma.c ****            hdma->XferErrorCallback = NULL;
 779:Drivers/STM32L1xx_HAL_Driver/Src/stm32l1xx_hal_dma.c ****            hdma->XferAbortCallback = NULL;
 780:Drivers/STM32L1xx_HAL_Driver/Src/stm32l1xx_hal_dma.c ****            break;
 781:Drivers/STM32L1xx_HAL_Driver/Src/stm32l1xx_hal_dma.c **** 
 782:Drivers/STM32L1xx_HAL_Driver/Src/stm32l1xx_hal_dma.c ****     default:
 783:Drivers/STM32L1xx_HAL_Driver/Src/stm32l1xx_hal_dma.c ****            status = HAL_ERROR;
 784:Drivers/STM32L1xx_HAL_Driver/Src/stm32l1xx_hal_dma.c ****            break;
 785:Drivers/STM32L1xx_HAL_Driver/Src/stm32l1xx_hal_dma.c ****     }
 786:Drivers/STM32L1xx_HAL_Driver/Src/stm32l1xx_hal_dma.c ****   }
 787:Drivers/STM32L1xx_HAL_Driver/Src/stm32l1xx_hal_dma.c ****   else
 788:Drivers/STM32L1xx_HAL_Driver/Src/stm32l1xx_hal_dma.c ****   {
 789:Drivers/STM32L1xx_HAL_Driver/Src/stm32l1xx_hal_dma.c ****     status = HAL_ERROR;
 790:Drivers/STM32L1xx_HAL_Driver/Src/stm32l1xx_hal_dma.c ****   }
 791:Drivers/STM32L1xx_HAL_Driver/Src/stm32l1xx_hal_dma.c **** 
 792:Drivers/STM32L1xx_HAL_Driver/Src/stm32l1xx_hal_dma.c ****   /* Release Lock */
 793:Drivers/STM32L1xx_HAL_Driver/Src/stm32l1xx_hal_dma.c ****   __HAL_UNLOCK(hdma);
 794:Drivers/STM32L1xx_HAL_Driver/Src/stm32l1xx_hal_dma.c **** 
 795:Drivers/STM32L1xx_HAL_Driver/Src/stm32l1xx_hal_dma.c ****   return status;
 796:Drivers/STM32L1xx_HAL_Driver/Src/stm32l1xx_hal_dma.c **** }
 797:Drivers/STM32L1xx_HAL_Driver/Src/stm32l1xx_hal_dma.c **** 
 798:Drivers/STM32L1xx_HAL_Driver/Src/stm32l1xx_hal_dma.c **** /**
 799:Drivers/STM32L1xx_HAL_Driver/Src/stm32l1xx_hal_dma.c ****   * @}
 800:Drivers/STM32L1xx_HAL_Driver/Src/stm32l1xx_hal_dma.c ****   */
 801:Drivers/STM32L1xx_HAL_Driver/Src/stm32l1xx_hal_dma.c **** 
 802:Drivers/STM32L1xx_HAL_Driver/Src/stm32l1xx_hal_dma.c **** 
 803:Drivers/STM32L1xx_HAL_Driver/Src/stm32l1xx_hal_dma.c **** 
 804:Drivers/STM32L1xx_HAL_Driver/Src/stm32l1xx_hal_dma.c **** /** @defgroup DMA_Exported_Functions_Group3 Peripheral State and Errors functions
 805:Drivers/STM32L1xx_HAL_Driver/Src/stm32l1xx_hal_dma.c ****  *  @brief    Peripheral State and Errors functions
 806:Drivers/STM32L1xx_HAL_Driver/Src/stm32l1xx_hal_dma.c ****  *
 807:Drivers/STM32L1xx_HAL_Driver/Src/stm32l1xx_hal_dma.c **** @verbatim
 808:Drivers/STM32L1xx_HAL_Driver/Src/stm32l1xx_hal_dma.c ****  ===============================================================================
 809:Drivers/STM32L1xx_HAL_Driver/Src/stm32l1xx_hal_dma.c ****             ##### Peripheral State and Errors functions #####
 810:Drivers/STM32L1xx_HAL_Driver/Src/stm32l1xx_hal_dma.c ****  ===============================================================================
 811:Drivers/STM32L1xx_HAL_Driver/Src/stm32l1xx_hal_dma.c ****     [..]
 812:Drivers/STM32L1xx_HAL_Driver/Src/stm32l1xx_hal_dma.c ****     This subsection provides functions allowing to
 813:Drivers/STM32L1xx_HAL_Driver/Src/stm32l1xx_hal_dma.c ****       (+) Check the DMA state
 814:Drivers/STM32L1xx_HAL_Driver/Src/stm32l1xx_hal_dma.c ****       (+) Get error code
 815:Drivers/STM32L1xx_HAL_Driver/Src/stm32l1xx_hal_dma.c **** 
 816:Drivers/STM32L1xx_HAL_Driver/Src/stm32l1xx_hal_dma.c **** @endverbatim
 817:Drivers/STM32L1xx_HAL_Driver/Src/stm32l1xx_hal_dma.c ****   * @{
 818:Drivers/STM32L1xx_HAL_Driver/Src/stm32l1xx_hal_dma.c ****   */
 819:Drivers/STM32L1xx_HAL_Driver/Src/stm32l1xx_hal_dma.c **** 
 820:Drivers/STM32L1xx_HAL_Driver/Src/stm32l1xx_hal_dma.c **** /**
 821:Drivers/STM32L1xx_HAL_Driver/Src/stm32l1xx_hal_dma.c ****   * @brief  Return the DMA handle state.
 822:Drivers/STM32L1xx_HAL_Driver/Src/stm32l1xx_hal_dma.c ****   * @param  hdma pointer to a DMA_HandleTypeDef structure that contains
 823:Drivers/STM32L1xx_HAL_Driver/Src/stm32l1xx_hal_dma.c ****   *               the configuration information for the specified DMA Channel.
 824:Drivers/STM32L1xx_HAL_Driver/Src/stm32l1xx_hal_dma.c ****   * @retval HAL state
 825:Drivers/STM32L1xx_HAL_Driver/Src/stm32l1xx_hal_dma.c ****   */
 826:Drivers/STM32L1xx_HAL_Driver/Src/stm32l1xx_hal_dma.c **** HAL_DMA_StateTypeDef HAL_DMA_GetState(DMA_HandleTypeDef *hdma)
 827:Drivers/STM32L1xx_HAL_Driver/Src/stm32l1xx_hal_dma.c **** {
 828:Drivers/STM32L1xx_HAL_Driver/Src/stm32l1xx_hal_dma.c ****   /* Return DMA handle state */
 829:Drivers/STM32L1xx_HAL_Driver/Src/stm32l1xx_hal_dma.c ****   return hdma->State;
 830:Drivers/STM32L1xx_HAL_Driver/Src/stm32l1xx_hal_dma.c **** }
ARM GAS  /tmp/cc6rMAp7.s 			page 16


 831:Drivers/STM32L1xx_HAL_Driver/Src/stm32l1xx_hal_dma.c **** 
 832:Drivers/STM32L1xx_HAL_Driver/Src/stm32l1xx_hal_dma.c **** /**
 833:Drivers/STM32L1xx_HAL_Driver/Src/stm32l1xx_hal_dma.c ****   * @brief  Return the DMA error code.
 834:Drivers/STM32L1xx_HAL_Driver/Src/stm32l1xx_hal_dma.c ****   * @param  hdma pointer to a DMA_HandleTypeDef structure that contains
 835:Drivers/STM32L1xx_HAL_Driver/Src/stm32l1xx_hal_dma.c ****   *              the configuration information for the specified DMA Channel.
 836:Drivers/STM32L1xx_HAL_Driver/Src/stm32l1xx_hal_dma.c ****   * @retval DMA Error Code
 837:Drivers/STM32L1xx_HAL_Driver/Src/stm32l1xx_hal_dma.c ****   */
 838:Drivers/STM32L1xx_HAL_Driver/Src/stm32l1xx_hal_dma.c **** uint32_t HAL_DMA_GetError(DMA_HandleTypeDef *hdma)
 839:Drivers/STM32L1xx_HAL_Driver/Src/stm32l1xx_hal_dma.c **** {
 840:Drivers/STM32L1xx_HAL_Driver/Src/stm32l1xx_hal_dma.c ****   return hdma->ErrorCode;
 841:Drivers/STM32L1xx_HAL_Driver/Src/stm32l1xx_hal_dma.c **** }
 842:Drivers/STM32L1xx_HAL_Driver/Src/stm32l1xx_hal_dma.c **** 
 843:Drivers/STM32L1xx_HAL_Driver/Src/stm32l1xx_hal_dma.c **** /**
 844:Drivers/STM32L1xx_HAL_Driver/Src/stm32l1xx_hal_dma.c ****   * @}
 845:Drivers/STM32L1xx_HAL_Driver/Src/stm32l1xx_hal_dma.c ****   */
 846:Drivers/STM32L1xx_HAL_Driver/Src/stm32l1xx_hal_dma.c **** 
 847:Drivers/STM32L1xx_HAL_Driver/Src/stm32l1xx_hal_dma.c **** /**
 848:Drivers/STM32L1xx_HAL_Driver/Src/stm32l1xx_hal_dma.c ****   * @}
 849:Drivers/STM32L1xx_HAL_Driver/Src/stm32l1xx_hal_dma.c ****   */
 850:Drivers/STM32L1xx_HAL_Driver/Src/stm32l1xx_hal_dma.c **** 
 851:Drivers/STM32L1xx_HAL_Driver/Src/stm32l1xx_hal_dma.c **** /** @addtogroup DMA_Private_Functions
 852:Drivers/STM32L1xx_HAL_Driver/Src/stm32l1xx_hal_dma.c ****   * @{
 853:Drivers/STM32L1xx_HAL_Driver/Src/stm32l1xx_hal_dma.c ****   */
 854:Drivers/STM32L1xx_HAL_Driver/Src/stm32l1xx_hal_dma.c **** 
 855:Drivers/STM32L1xx_HAL_Driver/Src/stm32l1xx_hal_dma.c **** /**
 856:Drivers/STM32L1xx_HAL_Driver/Src/stm32l1xx_hal_dma.c ****   * @brief  Sets the DMA Transfer parameter.
 857:Drivers/STM32L1xx_HAL_Driver/Src/stm32l1xx_hal_dma.c ****   * @param  hdma       pointer to a DMA_HandleTypeDef structure that contains
 858:Drivers/STM32L1xx_HAL_Driver/Src/stm32l1xx_hal_dma.c ****   *                     the configuration information for the specified DMA Channel.
 859:Drivers/STM32L1xx_HAL_Driver/Src/stm32l1xx_hal_dma.c ****   * @param  SrcAddress The source memory Buffer address
 860:Drivers/STM32L1xx_HAL_Driver/Src/stm32l1xx_hal_dma.c ****   * @param  DstAddress The destination memory Buffer address
 861:Drivers/STM32L1xx_HAL_Driver/Src/stm32l1xx_hal_dma.c ****   * @param  DataLength The length of data to be transferred from source to destination
 862:Drivers/STM32L1xx_HAL_Driver/Src/stm32l1xx_hal_dma.c ****   * @retval HAL status
 863:Drivers/STM32L1xx_HAL_Driver/Src/stm32l1xx_hal_dma.c ****   */
 864:Drivers/STM32L1xx_HAL_Driver/Src/stm32l1xx_hal_dma.c **** static void DMA_SetConfig(DMA_HandleTypeDef *hdma, uint32_t SrcAddress, uint32_t DstAddress, uint32
 865:Drivers/STM32L1xx_HAL_Driver/Src/stm32l1xx_hal_dma.c **** {
  27              		.loc 1 865 1 view -0
  28              		.cfi_startproc
  29              		@ args = 0, pretend = 0, frame = 0
  30              		@ frame_needed = 0, uses_anonymous_args = 0
  31              		@ link register save eliminated.
  32              		.loc 1 865 1 is_stmt 0 view .LVU1
  33 0000 10B4     		push	{r4}
  34              	.LCFI0:
  35              		.cfi_def_cfa_offset 4
  36              		.cfi_offset 4, -4
 866:Drivers/STM32L1xx_HAL_Driver/Src/stm32l1xx_hal_dma.c ****   /* Clear all flags */
 867:Drivers/STM32L1xx_HAL_Driver/Src/stm32l1xx_hal_dma.c ****   hdma->DmaBaseAddress->IFCR = (DMA_ISR_GIF1 << (hdma->ChannelIndex & 0x1CU));
  37              		.loc 1 867 3 is_stmt 1 view .LVU2
  38              		.loc 1 867 54 is_stmt 0 view .LVU3
  39 0002 046C     		ldr	r4, [r0, #64]
  40              		.loc 1 867 69 view .LVU4
  41 0004 04F01C0C 		and	ip, r4, #28
  42              		.loc 1 867 46 view .LVU5
  43 0008 0124     		movs	r4, #1
  44 000a 04FA0CF4 		lsl	r4, r4, ip
  45              		.loc 1 867 30 view .LVU6
  46 000e D0F83CC0 		ldr	ip, [r0, #60]
ARM GAS  /tmp/cc6rMAp7.s 			page 17


  47 0012 CCF80440 		str	r4, [ip, #4]
 868:Drivers/STM32L1xx_HAL_Driver/Src/stm32l1xx_hal_dma.c **** 
 869:Drivers/STM32L1xx_HAL_Driver/Src/stm32l1xx_hal_dma.c ****   /* Configure DMA Channel data length */
 870:Drivers/STM32L1xx_HAL_Driver/Src/stm32l1xx_hal_dma.c ****   hdma->Instance->CNDTR = DataLength;
  48              		.loc 1 870 3 is_stmt 1 view .LVU7
  49              		.loc 1 870 7 is_stmt 0 view .LVU8
  50 0016 0468     		ldr	r4, [r0]
  51              		.loc 1 870 25 view .LVU9
  52 0018 6360     		str	r3, [r4, #4]
 871:Drivers/STM32L1xx_HAL_Driver/Src/stm32l1xx_hal_dma.c **** 
 872:Drivers/STM32L1xx_HAL_Driver/Src/stm32l1xx_hal_dma.c ****   /* Memory to Peripheral */
 873:Drivers/STM32L1xx_HAL_Driver/Src/stm32l1xx_hal_dma.c ****   if((hdma->Init.Direction) == DMA_MEMORY_TO_PERIPH)
  53              		.loc 1 873 3 is_stmt 1 view .LVU10
  54              		.loc 1 873 17 is_stmt 0 view .LVU11
  55 001a 4368     		ldr	r3, [r0, #4]
  56              	.LVL1:
  57              		.loc 1 873 5 view .LVU12
  58 001c 102B     		cmp	r3, #16
  59 001e 05D0     		beq	.L5
 874:Drivers/STM32L1xx_HAL_Driver/Src/stm32l1xx_hal_dma.c ****   {
 875:Drivers/STM32L1xx_HAL_Driver/Src/stm32l1xx_hal_dma.c ****     /* Configure DMA Channel destination address */
 876:Drivers/STM32L1xx_HAL_Driver/Src/stm32l1xx_hal_dma.c ****     hdma->Instance->CPAR = DstAddress;
 877:Drivers/STM32L1xx_HAL_Driver/Src/stm32l1xx_hal_dma.c **** 
 878:Drivers/STM32L1xx_HAL_Driver/Src/stm32l1xx_hal_dma.c ****     /* Configure DMA Channel source address */
 879:Drivers/STM32L1xx_HAL_Driver/Src/stm32l1xx_hal_dma.c ****     hdma->Instance->CMAR = SrcAddress;
 880:Drivers/STM32L1xx_HAL_Driver/Src/stm32l1xx_hal_dma.c ****   }
 881:Drivers/STM32L1xx_HAL_Driver/Src/stm32l1xx_hal_dma.c ****   /* Peripheral to Memory */
 882:Drivers/STM32L1xx_HAL_Driver/Src/stm32l1xx_hal_dma.c ****   else
 883:Drivers/STM32L1xx_HAL_Driver/Src/stm32l1xx_hal_dma.c ****   {
 884:Drivers/STM32L1xx_HAL_Driver/Src/stm32l1xx_hal_dma.c ****     /* Configure DMA Channel source address */
 885:Drivers/STM32L1xx_HAL_Driver/Src/stm32l1xx_hal_dma.c ****     hdma->Instance->CPAR = SrcAddress;
  60              		.loc 1 885 5 is_stmt 1 view .LVU13
  61              		.loc 1 885 9 is_stmt 0 view .LVU14
  62 0020 0368     		ldr	r3, [r0]
  63              		.loc 1 885 26 view .LVU15
  64 0022 9960     		str	r1, [r3, #8]
  65              	.LVL2:
 886:Drivers/STM32L1xx_HAL_Driver/Src/stm32l1xx_hal_dma.c **** 
 887:Drivers/STM32L1xx_HAL_Driver/Src/stm32l1xx_hal_dma.c ****     /* Configure DMA Channel destination address */
 888:Drivers/STM32L1xx_HAL_Driver/Src/stm32l1xx_hal_dma.c ****     hdma->Instance->CMAR = DstAddress;
  66              		.loc 1 888 5 is_stmt 1 view .LVU16
  67              		.loc 1 888 9 is_stmt 0 view .LVU17
  68 0024 0368     		ldr	r3, [r0]
  69              		.loc 1 888 26 view .LVU18
  70 0026 DA60     		str	r2, [r3, #12]
  71              	.L1:
 889:Drivers/STM32L1xx_HAL_Driver/Src/stm32l1xx_hal_dma.c ****   }
 890:Drivers/STM32L1xx_HAL_Driver/Src/stm32l1xx_hal_dma.c **** }
  72              		.loc 1 890 1 view .LVU19
  73 0028 10BC     		pop	{r4}
  74              	.LCFI1:
  75              		.cfi_remember_state
  76              		.cfi_restore 4
  77              		.cfi_def_cfa_offset 0
  78 002a 7047     		bx	lr
  79              	.LVL3:
  80              	.L5:
ARM GAS  /tmp/cc6rMAp7.s 			page 18


  81              	.LCFI2:
  82              		.cfi_restore_state
 876:Drivers/STM32L1xx_HAL_Driver/Src/stm32l1xx_hal_dma.c **** 
  83              		.loc 1 876 5 is_stmt 1 view .LVU20
 876:Drivers/STM32L1xx_HAL_Driver/Src/stm32l1xx_hal_dma.c **** 
  84              		.loc 1 876 9 is_stmt 0 view .LVU21
  85 002c 0368     		ldr	r3, [r0]
 876:Drivers/STM32L1xx_HAL_Driver/Src/stm32l1xx_hal_dma.c **** 
  86              		.loc 1 876 26 view .LVU22
  87 002e 9A60     		str	r2, [r3, #8]
  88              	.LVL4:
 879:Drivers/STM32L1xx_HAL_Driver/Src/stm32l1xx_hal_dma.c ****   }
  89              		.loc 1 879 5 is_stmt 1 view .LVU23
 879:Drivers/STM32L1xx_HAL_Driver/Src/stm32l1xx_hal_dma.c ****   }
  90              		.loc 1 879 9 is_stmt 0 view .LVU24
  91 0030 0368     		ldr	r3, [r0]
 879:Drivers/STM32L1xx_HAL_Driver/Src/stm32l1xx_hal_dma.c ****   }
  92              		.loc 1 879 26 view .LVU25
  93 0032 D960     		str	r1, [r3, #12]
  94 0034 F8E7     		b	.L1
  95              		.cfi_endproc
  96              	.LFE84:
  98              		.section	.text.HAL_DMA_Init,"ax",%progbits
  99              		.align	1
 100              		.global	HAL_DMA_Init
 101              		.syntax unified
 102              		.thumb
 103              		.thumb_func
 105              	HAL_DMA_Init:
 106              	.LVL5:
 107              	.LFB72:
 145:Drivers/STM32L1xx_HAL_Driver/Src/stm32l1xx_hal_dma.c ****   uint32_t tmp;
 108              		.loc 1 145 1 is_stmt 1 view -0
 109              		.cfi_startproc
 110              		@ args = 0, pretend = 0, frame = 0
 111              		@ frame_needed = 0, uses_anonymous_args = 0
 112              		@ link register save eliminated.
 146:Drivers/STM32L1xx_HAL_Driver/Src/stm32l1xx_hal_dma.c **** 
 113              		.loc 1 146 3 view .LVU27
 149:Drivers/STM32L1xx_HAL_Driver/Src/stm32l1xx_hal_dma.c ****   {
 114              		.loc 1 149 3 view .LVU28
 149:Drivers/STM32L1xx_HAL_Driver/Src/stm32l1xx_hal_dma.c ****   {
 115              		.loc 1 149 5 is_stmt 0 view .LVU29
 116 0000 60B3     		cbz	r0, .L8
 145:Drivers/STM32L1xx_HAL_Driver/Src/stm32l1xx_hal_dma.c ****   uint32_t tmp;
 117              		.loc 1 145 1 view .LVU30
 118 0002 10B4     		push	{r4}
 119              	.LCFI3:
 120              		.cfi_def_cfa_offset 4
 121              		.cfi_offset 4, -4
 122 0004 0246     		mov	r2, r0
 155:Drivers/STM32L1xx_HAL_Driver/Src/stm32l1xx_hal_dma.c ****   assert_param(IS_DMA_DIRECTION(hdma->Init.Direction));
 123              		.loc 1 155 3 is_stmt 1 view .LVU31
 156:Drivers/STM32L1xx_HAL_Driver/Src/stm32l1xx_hal_dma.c ****   assert_param(IS_DMA_PERIPHERAL_INC_STATE(hdma->Init.PeriphInc));
 124              		.loc 1 156 3 view .LVU32
 157:Drivers/STM32L1xx_HAL_Driver/Src/stm32l1xx_hal_dma.c ****   assert_param(IS_DMA_MEMORY_INC_STATE(hdma->Init.MemInc));
 125              		.loc 1 157 3 view .LVU33
ARM GAS  /tmp/cc6rMAp7.s 			page 19


 158:Drivers/STM32L1xx_HAL_Driver/Src/stm32l1xx_hal_dma.c ****   assert_param(IS_DMA_PERIPHERAL_DATA_SIZE(hdma->Init.PeriphDataAlignment));
 126              		.loc 1 158 3 view .LVU34
 159:Drivers/STM32L1xx_HAL_Driver/Src/stm32l1xx_hal_dma.c ****   assert_param(IS_DMA_MEMORY_DATA_SIZE(hdma->Init.MemDataAlignment));
 127              		.loc 1 159 3 view .LVU35
 160:Drivers/STM32L1xx_HAL_Driver/Src/stm32l1xx_hal_dma.c ****   assert_param(IS_DMA_MODE(hdma->Init.Mode));
 128              		.loc 1 160 3 view .LVU36
 161:Drivers/STM32L1xx_HAL_Driver/Src/stm32l1xx_hal_dma.c ****   assert_param(IS_DMA_PRIORITY(hdma->Init.Priority));
 129              		.loc 1 161 3 view .LVU37
 162:Drivers/STM32L1xx_HAL_Driver/Src/stm32l1xx_hal_dma.c **** 
 130              		.loc 1 162 3 view .LVU38
 181:Drivers/STM32L1xx_HAL_Driver/Src/stm32l1xx_hal_dma.c ****   hdma->DmaBaseAddress = DMA1;
 131              		.loc 1 181 3 view .LVU39
 181:Drivers/STM32L1xx_HAL_Driver/Src/stm32l1xx_hal_dma.c ****   hdma->DmaBaseAddress = DMA1;
 132              		.loc 1 181 40 is_stmt 0 view .LVU40
 133 0006 0168     		ldr	r1, [r0]
 181:Drivers/STM32L1xx_HAL_Driver/Src/stm32l1xx_hal_dma.c ****   hdma->DmaBaseAddress = DMA1;
 134              		.loc 1 181 51 view .LVU41
 135 0008 154B     		ldr	r3, .L13
 136 000a 0B44     		add	r3, r3, r1
 181:Drivers/STM32L1xx_HAL_Driver/Src/stm32l1xx_hal_dma.c ****   hdma->DmaBaseAddress = DMA1;
 137              		.loc 1 181 78 view .LVU42
 138 000c 1548     		ldr	r0, .L13+4
 139              	.LVL6:
 181:Drivers/STM32L1xx_HAL_Driver/Src/stm32l1xx_hal_dma.c ****   hdma->DmaBaseAddress = DMA1;
 140              		.loc 1 181 78 view .LVU43
 141 000e A0FB0303 		umull	r0, r3, r0, r3
 142 0012 1B09     		lsrs	r3, r3, #4
 181:Drivers/STM32L1xx_HAL_Driver/Src/stm32l1xx_hal_dma.c ****   hdma->DmaBaseAddress = DMA1;
 143              		.loc 1 181 133 view .LVU44
 144 0014 9B00     		lsls	r3, r3, #2
 181:Drivers/STM32L1xx_HAL_Driver/Src/stm32l1xx_hal_dma.c ****   hdma->DmaBaseAddress = DMA1;
 145              		.loc 1 181 22 view .LVU45
 146 0016 1364     		str	r3, [r2, #64]
 182:Drivers/STM32L1xx_HAL_Driver/Src/stm32l1xx_hal_dma.c **** #endif
 147              		.loc 1 182 3 is_stmt 1 view .LVU46
 182:Drivers/STM32L1xx_HAL_Driver/Src/stm32l1xx_hal_dma.c **** #endif
 148              		.loc 1 182 24 is_stmt 0 view .LVU47
 149 0018 134B     		ldr	r3, .L13+8
 150 001a D363     		str	r3, [r2, #60]
 186:Drivers/STM32L1xx_HAL_Driver/Src/stm32l1xx_hal_dma.c **** 
 151              		.loc 1 186 3 is_stmt 1 view .LVU48
 186:Drivers/STM32L1xx_HAL_Driver/Src/stm32l1xx_hal_dma.c **** 
 152              		.loc 1 186 15 is_stmt 0 view .LVU49
 153 001c 0223     		movs	r3, #2
 154 001e 82F82130 		strb	r3, [r2, #33]
 189:Drivers/STM32L1xx_HAL_Driver/Src/stm32l1xx_hal_dma.c **** 
 155              		.loc 1 189 3 is_stmt 1 view .LVU50
 189:Drivers/STM32L1xx_HAL_Driver/Src/stm32l1xx_hal_dma.c **** 
 156              		.loc 1 189 7 is_stmt 0 view .LVU51
 157 0022 0868     		ldr	r0, [r1]
 158              	.LVL7:
 192:Drivers/STM32L1xx_HAL_Driver/Src/stm32l1xx_hal_dma.c ****                       DMA_CCR_MINC  | DMA_CCR_PINC    | DMA_CCR_CIRC   |
 159              		.loc 1 192 3 is_stmt 1 view .LVU52
 192:Drivers/STM32L1xx_HAL_Driver/Src/stm32l1xx_hal_dma.c ****                       DMA_CCR_MINC  | DMA_CCR_PINC    | DMA_CCR_CIRC   |
 160              		.loc 1 192 7 is_stmt 0 view .LVU53
 161 0024 20F4FF40 		bic	r0, r0, #32640
 162              	.LVL8:
ARM GAS  /tmp/cc6rMAp7.s 			page 20


 192:Drivers/STM32L1xx_HAL_Driver/Src/stm32l1xx_hal_dma.c ****                       DMA_CCR_MINC  | DMA_CCR_PINC    | DMA_CCR_CIRC   |
 163              		.loc 1 192 7 view .LVU54
 164 0028 20F07000 		bic	r0, r0, #112
 165              	.LVL9:
 197:Drivers/STM32L1xx_HAL_Driver/Src/stm32l1xx_hal_dma.c ****           hdma->Init.PeriphInc           | hdma->Init.MemInc           |
 166              		.loc 1 197 3 is_stmt 1 view .LVU55
 197:Drivers/STM32L1xx_HAL_Driver/Src/stm32l1xx_hal_dma.c ****           hdma->Init.PeriphInc           | hdma->Init.MemInc           |
 167              		.loc 1 197 21 is_stmt 0 view .LVU56
 168 002c 5368     		ldr	r3, [r2, #4]
 197:Drivers/STM32L1xx_HAL_Driver/Src/stm32l1xx_hal_dma.c ****           hdma->Init.PeriphInc           | hdma->Init.MemInc           |
 169              		.loc 1 197 39 view .LVU57
 170 002e 9468     		ldr	r4, [r2, #8]
 171 0030 2343     		orrs	r3, r3, r4
 198:Drivers/STM32L1xx_HAL_Driver/Src/stm32l1xx_hal_dma.c ****           hdma->Init.PeriphDataAlignment | hdma->Init.MemDataAlignment |
 172              		.loc 1 198 42 view .LVU58
 173 0032 D468     		ldr	r4, [r2, #12]
 174 0034 2343     		orrs	r3, r3, r4
 198:Drivers/STM32L1xx_HAL_Driver/Src/stm32l1xx_hal_dma.c ****           hdma->Init.PeriphDataAlignment | hdma->Init.MemDataAlignment |
 175              		.loc 1 198 72 view .LVU59
 176 0036 1469     		ldr	r4, [r2, #16]
 177 0038 2343     		orrs	r3, r3, r4
 199:Drivers/STM32L1xx_HAL_Driver/Src/stm32l1xx_hal_dma.c ****           hdma->Init.Mode                | hdma->Init.Priority;
 178              		.loc 1 199 42 view .LVU60
 179 003a 5469     		ldr	r4, [r2, #20]
 180 003c 2343     		orrs	r3, r3, r4
 199:Drivers/STM32L1xx_HAL_Driver/Src/stm32l1xx_hal_dma.c ****           hdma->Init.Mode                | hdma->Init.Priority;
 181              		.loc 1 199 72 view .LVU61
 182 003e 9469     		ldr	r4, [r2, #24]
 183 0040 2343     		orrs	r3, r3, r4
 200:Drivers/STM32L1xx_HAL_Driver/Src/stm32l1xx_hal_dma.c **** 
 184              		.loc 1 200 42 view .LVU62
 185 0042 D469     		ldr	r4, [r2, #28]
 186 0044 2343     		orrs	r3, r3, r4
 197:Drivers/STM32L1xx_HAL_Driver/Src/stm32l1xx_hal_dma.c ****           hdma->Init.PeriphInc           | hdma->Init.MemInc           |
 187              		.loc 1 197 7 view .LVU63
 188 0046 0343     		orrs	r3, r3, r0
 189              	.LVL10:
 203:Drivers/STM32L1xx_HAL_Driver/Src/stm32l1xx_hal_dma.c **** 
 190              		.loc 1 203 3 is_stmt 1 view .LVU64
 203:Drivers/STM32L1xx_HAL_Driver/Src/stm32l1xx_hal_dma.c **** 
 191              		.loc 1 203 23 is_stmt 0 view .LVU65
 192 0048 0B60     		str	r3, [r1]
 206:Drivers/STM32L1xx_HAL_Driver/Src/stm32l1xx_hal_dma.c **** 
 193              		.loc 1 206 3 is_stmt 1 view .LVU66
 206:Drivers/STM32L1xx_HAL_Driver/Src/stm32l1xx_hal_dma.c **** 
 194              		.loc 1 206 19 is_stmt 0 view .LVU67
 195 004a 0020     		movs	r0, #0
 196 004c 9063     		str	r0, [r2, #56]
 209:Drivers/STM32L1xx_HAL_Driver/Src/stm32l1xx_hal_dma.c **** 
 197              		.loc 1 209 3 is_stmt 1 view .LVU68
 209:Drivers/STM32L1xx_HAL_Driver/Src/stm32l1xx_hal_dma.c **** 
 198              		.loc 1 209 15 is_stmt 0 view .LVU69
 199 004e 0123     		movs	r3, #1
 200              	.LVL11:
 209:Drivers/STM32L1xx_HAL_Driver/Src/stm32l1xx_hal_dma.c **** 
 201              		.loc 1 209 15 view .LVU70
 202 0050 82F82130 		strb	r3, [r2, #33]
ARM GAS  /tmp/cc6rMAp7.s 			page 21


 212:Drivers/STM32L1xx_HAL_Driver/Src/stm32l1xx_hal_dma.c **** 
 203              		.loc 1 212 3 is_stmt 1 view .LVU71
 212:Drivers/STM32L1xx_HAL_Driver/Src/stm32l1xx_hal_dma.c **** 
 204              		.loc 1 212 14 is_stmt 0 view .LVU72
 205 0054 82F82000 		strb	r0, [r2, #32]
 214:Drivers/STM32L1xx_HAL_Driver/Src/stm32l1xx_hal_dma.c **** }
 206              		.loc 1 214 3 is_stmt 1 view .LVU73
 215:Drivers/STM32L1xx_HAL_Driver/Src/stm32l1xx_hal_dma.c **** 
 207              		.loc 1 215 1 is_stmt 0 view .LVU74
 208 0058 10BC     		pop	{r4}
 209              	.LCFI4:
 210              		.cfi_restore 4
 211              		.cfi_def_cfa_offset 0
 212 005a 7047     		bx	lr
 213              	.LVL12:
 214              	.L8:
 151:Drivers/STM32L1xx_HAL_Driver/Src/stm32l1xx_hal_dma.c ****   }
 215              		.loc 1 151 12 view .LVU75
 216 005c 0120     		movs	r0, #1
 217              	.LVL13:
 215:Drivers/STM32L1xx_HAL_Driver/Src/stm32l1xx_hal_dma.c **** 
 218              		.loc 1 215 1 view .LVU76
 219 005e 7047     		bx	lr
 220              	.L14:
 221              		.align	2
 222              	.L13:
 223 0060 F89FFDBF 		.word	-1073897480
 224 0064 CDCCCCCC 		.word	-858993459
 225 0068 00600240 		.word	1073897472
 226              		.cfi_endproc
 227              	.LFE72:
 229              		.section	.text.HAL_DMA_DeInit,"ax",%progbits
 230              		.align	1
 231              		.global	HAL_DMA_DeInit
 232              		.syntax unified
 233              		.thumb
 234              		.thumb_func
 236              	HAL_DMA_DeInit:
 237              	.LVL14:
 238              	.LFB73:
 224:Drivers/STM32L1xx_HAL_Driver/Src/stm32l1xx_hal_dma.c **** 
 239              		.loc 1 224 1 is_stmt 1 view -0
 240              		.cfi_startproc
 241              		@ args = 0, pretend = 0, frame = 0
 242              		@ frame_needed = 0, uses_anonymous_args = 0
 243              		@ link register save eliminated.
 227:Drivers/STM32L1xx_HAL_Driver/Src/stm32l1xx_hal_dma.c ****   {
 244              		.loc 1 227 3 view .LVU78
 227:Drivers/STM32L1xx_HAL_Driver/Src/stm32l1xx_hal_dma.c ****   {
 245              		.loc 1 227 6 is_stmt 0 view .LVU79
 246 0000 0346     		mov	r3, r0
 247 0002 10B3     		cbz	r0, .L17
 233:Drivers/STM32L1xx_HAL_Driver/Src/stm32l1xx_hal_dma.c **** 
 248              		.loc 1 233 3 is_stmt 1 view .LVU80
 236:Drivers/STM32L1xx_HAL_Driver/Src/stm32l1xx_hal_dma.c **** 
 249              		.loc 1 236 3 view .LVU81
 250 0004 0168     		ldr	r1, [r0]
ARM GAS  /tmp/cc6rMAp7.s 			page 22


 251 0006 0A68     		ldr	r2, [r1]
 252 0008 22F00102 		bic	r2, r2, #1
 253 000c 0A60     		str	r2, [r1]
 255:Drivers/STM32L1xx_HAL_Driver/Src/stm32l1xx_hal_dma.c ****   hdma->DmaBaseAddress = DMA1;
 254              		.loc 1 255 3 view .LVU82
 255:Drivers/STM32L1xx_HAL_Driver/Src/stm32l1xx_hal_dma.c ****   hdma->DmaBaseAddress = DMA1;
 255              		.loc 1 255 40 is_stmt 0 view .LVU83
 256 000e 0168     		ldr	r1, [r0]
 255:Drivers/STM32L1xx_HAL_Driver/Src/stm32l1xx_hal_dma.c ****   hdma->DmaBaseAddress = DMA1;
 257              		.loc 1 255 51 view .LVU84
 258 0010 0F4A     		ldr	r2, .L18
 259 0012 0A44     		add	r2, r2, r1
 255:Drivers/STM32L1xx_HAL_Driver/Src/stm32l1xx_hal_dma.c ****   hdma->DmaBaseAddress = DMA1;
 260              		.loc 1 255 78 view .LVU85
 261 0014 0F48     		ldr	r0, .L18+4
 262              	.LVL15:
 255:Drivers/STM32L1xx_HAL_Driver/Src/stm32l1xx_hal_dma.c ****   hdma->DmaBaseAddress = DMA1;
 263              		.loc 1 255 78 view .LVU86
 264 0016 A0FB0202 		umull	r0, r2, r0, r2
 265 001a 1209     		lsrs	r2, r2, #4
 255:Drivers/STM32L1xx_HAL_Driver/Src/stm32l1xx_hal_dma.c ****   hdma->DmaBaseAddress = DMA1;
 266              		.loc 1 255 133 view .LVU87
 267 001c 9200     		lsls	r2, r2, #2
 255:Drivers/STM32L1xx_HAL_Driver/Src/stm32l1xx_hal_dma.c ****   hdma->DmaBaseAddress = DMA1;
 268              		.loc 1 255 22 view .LVU88
 269 001e 1A64     		str	r2, [r3, #64]
 256:Drivers/STM32L1xx_HAL_Driver/Src/stm32l1xx_hal_dma.c **** #endif
 270              		.loc 1 256 3 is_stmt 1 view .LVU89
 256:Drivers/STM32L1xx_HAL_Driver/Src/stm32l1xx_hal_dma.c **** #endif
 271              		.loc 1 256 24 is_stmt 0 view .LVU90
 272 0020 0D4A     		ldr	r2, .L18+8
 273 0022 DA63     		str	r2, [r3, #60]
 260:Drivers/STM32L1xx_HAL_Driver/Src/stm32l1xx_hal_dma.c **** 
 274              		.loc 1 260 3 is_stmt 1 view .LVU91
 260:Drivers/STM32L1xx_HAL_Driver/Src/stm32l1xx_hal_dma.c **** 
 275              		.loc 1 260 23 is_stmt 0 view .LVU92
 276 0024 0020     		movs	r0, #0
 277 0026 0860     		str	r0, [r1]
 263:Drivers/STM32L1xx_HAL_Driver/Src/stm32l1xx_hal_dma.c **** 
 278              		.loc 1 263 3 is_stmt 1 view .LVU93
 263:Drivers/STM32L1xx_HAL_Driver/Src/stm32l1xx_hal_dma.c **** 
 279              		.loc 1 263 54 is_stmt 0 view .LVU94
 280 0028 1A6C     		ldr	r2, [r3, #64]
 263:Drivers/STM32L1xx_HAL_Driver/Src/stm32l1xx_hal_dma.c **** 
 281              		.loc 1 263 69 view .LVU95
 282 002a 02F01C01 		and	r1, r2, #28
 263:Drivers/STM32L1xx_HAL_Driver/Src/stm32l1xx_hal_dma.c **** 
 283              		.loc 1 263 46 view .LVU96
 284 002e 0122     		movs	r2, #1
 285 0030 8A40     		lsls	r2, r2, r1
 263:Drivers/STM32L1xx_HAL_Driver/Src/stm32l1xx_hal_dma.c **** 
 286              		.loc 1 263 30 view .LVU97
 287 0032 D96B     		ldr	r1, [r3, #60]
 288 0034 4A60     		str	r2, [r1, #4]
 266:Drivers/STM32L1xx_HAL_Driver/Src/stm32l1xx_hal_dma.c ****   hdma->XferHalfCpltCallback = NULL;
 289              		.loc 1 266 3 is_stmt 1 view .LVU98
 266:Drivers/STM32L1xx_HAL_Driver/Src/stm32l1xx_hal_dma.c ****   hdma->XferHalfCpltCallback = NULL;
ARM GAS  /tmp/cc6rMAp7.s 			page 23


 290              		.loc 1 266 26 is_stmt 0 view .LVU99
 291 0036 9862     		str	r0, [r3, #40]
 267:Drivers/STM32L1xx_HAL_Driver/Src/stm32l1xx_hal_dma.c ****   hdma->XferErrorCallback = NULL;
 292              		.loc 1 267 3 is_stmt 1 view .LVU100
 267:Drivers/STM32L1xx_HAL_Driver/Src/stm32l1xx_hal_dma.c ****   hdma->XferErrorCallback = NULL;
 293              		.loc 1 267 30 is_stmt 0 view .LVU101
 294 0038 D862     		str	r0, [r3, #44]
 268:Drivers/STM32L1xx_HAL_Driver/Src/stm32l1xx_hal_dma.c ****   hdma->XferAbortCallback = NULL;
 295              		.loc 1 268 3 is_stmt 1 view .LVU102
 268:Drivers/STM32L1xx_HAL_Driver/Src/stm32l1xx_hal_dma.c ****   hdma->XferAbortCallback = NULL;
 296              		.loc 1 268 27 is_stmt 0 view .LVU103
 297 003a 1863     		str	r0, [r3, #48]
 269:Drivers/STM32L1xx_HAL_Driver/Src/stm32l1xx_hal_dma.c **** 
 298              		.loc 1 269 3 is_stmt 1 view .LVU104
 269:Drivers/STM32L1xx_HAL_Driver/Src/stm32l1xx_hal_dma.c **** 
 299              		.loc 1 269 27 is_stmt 0 view .LVU105
 300 003c 5863     		str	r0, [r3, #52]
 272:Drivers/STM32L1xx_HAL_Driver/Src/stm32l1xx_hal_dma.c **** 
 301              		.loc 1 272 3 is_stmt 1 view .LVU106
 272:Drivers/STM32L1xx_HAL_Driver/Src/stm32l1xx_hal_dma.c **** 
 302              		.loc 1 272 19 is_stmt 0 view .LVU107
 303 003e 9863     		str	r0, [r3, #56]
 275:Drivers/STM32L1xx_HAL_Driver/Src/stm32l1xx_hal_dma.c **** 
 304              		.loc 1 275 3 is_stmt 1 view .LVU108
 275:Drivers/STM32L1xx_HAL_Driver/Src/stm32l1xx_hal_dma.c **** 
 305              		.loc 1 275 15 is_stmt 0 view .LVU109
 306 0040 83F82100 		strb	r0, [r3, #33]
 278:Drivers/STM32L1xx_HAL_Driver/Src/stm32l1xx_hal_dma.c **** 
 307              		.loc 1 278 3 is_stmt 1 view .LVU110
 278:Drivers/STM32L1xx_HAL_Driver/Src/stm32l1xx_hal_dma.c **** 
 308              		.loc 1 278 3 view .LVU111
 309 0044 83F82000 		strb	r0, [r3, #32]
 278:Drivers/STM32L1xx_HAL_Driver/Src/stm32l1xx_hal_dma.c **** 
 310              		.loc 1 278 3 view .LVU112
 280:Drivers/STM32L1xx_HAL_Driver/Src/stm32l1xx_hal_dma.c **** }
 311              		.loc 1 280 3 view .LVU113
 280:Drivers/STM32L1xx_HAL_Driver/Src/stm32l1xx_hal_dma.c **** }
 312              		.loc 1 280 10 is_stmt 0 view .LVU114
 313 0048 7047     		bx	lr
 314              	.LVL16:
 315              	.L17:
 229:Drivers/STM32L1xx_HAL_Driver/Src/stm32l1xx_hal_dma.c ****   }
 316              		.loc 1 229 12 view .LVU115
 317 004a 0120     		movs	r0, #1
 318              	.LVL17:
 281:Drivers/STM32L1xx_HAL_Driver/Src/stm32l1xx_hal_dma.c **** 
 319              		.loc 1 281 1 view .LVU116
 320 004c 7047     		bx	lr
 321              	.L19:
 322 004e 00BF     		.align	2
 323              	.L18:
 324 0050 F89FFDBF 		.word	-1073897480
 325 0054 CDCCCCCC 		.word	-858993459
 326 0058 00600240 		.word	1073897472
 327              		.cfi_endproc
 328              	.LFE73:
 330              		.section	.text.HAL_DMA_Start,"ax",%progbits
ARM GAS  /tmp/cc6rMAp7.s 			page 24


 331              		.align	1
 332              		.global	HAL_DMA_Start
 333              		.syntax unified
 334              		.thumb
 335              		.thumb_func
 337              	HAL_DMA_Start:
 338              	.LVL18:
 339              	.LFB74:
 316:Drivers/STM32L1xx_HAL_Driver/Src/stm32l1xx_hal_dma.c ****   HAL_StatusTypeDef status = HAL_OK;
 340              		.loc 1 316 1 is_stmt 1 view -0
 341              		.cfi_startproc
 342              		@ args = 0, pretend = 0, frame = 0
 343              		@ frame_needed = 0, uses_anonymous_args = 0
 316:Drivers/STM32L1xx_HAL_Driver/Src/stm32l1xx_hal_dma.c ****   HAL_StatusTypeDef status = HAL_OK;
 344              		.loc 1 316 1 is_stmt 0 view .LVU118
 345 0000 70B5     		push	{r4, r5, r6, lr}
 346              	.LCFI5:
 347              		.cfi_def_cfa_offset 16
 348              		.cfi_offset 4, -16
 349              		.cfi_offset 5, -12
 350              		.cfi_offset 6, -8
 351              		.cfi_offset 14, -4
 352 0002 0446     		mov	r4, r0
 317:Drivers/STM32L1xx_HAL_Driver/Src/stm32l1xx_hal_dma.c **** 
 353              		.loc 1 317 3 is_stmt 1 view .LVU119
 354              	.LVL19:
 320:Drivers/STM32L1xx_HAL_Driver/Src/stm32l1xx_hal_dma.c **** 
 355              		.loc 1 320 3 view .LVU120
 323:Drivers/STM32L1xx_HAL_Driver/Src/stm32l1xx_hal_dma.c **** 
 356              		.loc 1 323 3 view .LVU121
 323:Drivers/STM32L1xx_HAL_Driver/Src/stm32l1xx_hal_dma.c **** 
 357              		.loc 1 323 3 view .LVU122
 358 0004 90F82000 		ldrb	r0, [r0, #32]	@ zero_extendqisi2
 359              	.LVL20:
 323:Drivers/STM32L1xx_HAL_Driver/Src/stm32l1xx_hal_dma.c **** 
 360              		.loc 1 323 3 is_stmt 0 view .LVU123
 361 0008 0128     		cmp	r0, #1
 362 000a 20D0     		beq	.L23
 323:Drivers/STM32L1xx_HAL_Driver/Src/stm32l1xx_hal_dma.c **** 
 363              		.loc 1 323 3 is_stmt 1 discriminator 2 view .LVU124
 364 000c 0120     		movs	r0, #1
 365 000e 84F82000 		strb	r0, [r4, #32]
 323:Drivers/STM32L1xx_HAL_Driver/Src/stm32l1xx_hal_dma.c **** 
 366              		.loc 1 323 3 discriminator 2 view .LVU125
 325:Drivers/STM32L1xx_HAL_Driver/Src/stm32l1xx_hal_dma.c ****   {
 367              		.loc 1 325 3 discriminator 2 view .LVU126
 325:Drivers/STM32L1xx_HAL_Driver/Src/stm32l1xx_hal_dma.c ****   {
 368              		.loc 1 325 33 is_stmt 0 discriminator 2 view .LVU127
 369 0012 94F82100 		ldrb	r0, [r4, #33]	@ zero_extendqisi2
 370 0016 C0B2     		uxtb	r0, r0
 325:Drivers/STM32L1xx_HAL_Driver/Src/stm32l1xx_hal_dma.c ****   {
 371              		.loc 1 325 5 discriminator 2 view .LVU128
 372 0018 0128     		cmp	r0, #1
 373 001a 04D0     		beq	.L25
 343:Drivers/STM32L1xx_HAL_Driver/Src/stm32l1xx_hal_dma.c ****     status = HAL_BUSY;
 374              		.loc 1 343 5 is_stmt 1 view .LVU129
 343:Drivers/STM32L1xx_HAL_Driver/Src/stm32l1xx_hal_dma.c ****     status = HAL_BUSY;
ARM GAS  /tmp/cc6rMAp7.s 			page 25


 375              		.loc 1 343 5 view .LVU130
 376 001c 0023     		movs	r3, #0
 377              	.LVL21:
 343:Drivers/STM32L1xx_HAL_Driver/Src/stm32l1xx_hal_dma.c ****     status = HAL_BUSY;
 378              		.loc 1 343 5 is_stmt 0 view .LVU131
 379 001e 84F82030 		strb	r3, [r4, #32]
 343:Drivers/STM32L1xx_HAL_Driver/Src/stm32l1xx_hal_dma.c ****     status = HAL_BUSY;
 380              		.loc 1 343 5 is_stmt 1 view .LVU132
 344:Drivers/STM32L1xx_HAL_Driver/Src/stm32l1xx_hal_dma.c ****   }
 381              		.loc 1 344 5 view .LVU133
 382              	.LVL22:
 344:Drivers/STM32L1xx_HAL_Driver/Src/stm32l1xx_hal_dma.c ****   }
 383              		.loc 1 344 12 is_stmt 0 view .LVU134
 384 0022 0220     		movs	r0, #2
 385              	.LVL23:
 386              	.L21:
 347:Drivers/STM32L1xx_HAL_Driver/Src/stm32l1xx_hal_dma.c **** 
 387              		.loc 1 347 1 view .LVU135
 388 0024 70BD     		pop	{r4, r5, r6, pc}
 389              	.LVL24:
 390              	.L25:
 328:Drivers/STM32L1xx_HAL_Driver/Src/stm32l1xx_hal_dma.c ****     hdma->ErrorCode = HAL_DMA_ERROR_NONE;
 391              		.loc 1 328 5 is_stmt 1 view .LVU136
 328:Drivers/STM32L1xx_HAL_Driver/Src/stm32l1xx_hal_dma.c ****     hdma->ErrorCode = HAL_DMA_ERROR_NONE;
 392              		.loc 1 328 17 is_stmt 0 view .LVU137
 393 0026 0220     		movs	r0, #2
 394 0028 84F82100 		strb	r0, [r4, #33]
 329:Drivers/STM32L1xx_HAL_Driver/Src/stm32l1xx_hal_dma.c **** 
 395              		.loc 1 329 5 is_stmt 1 view .LVU138
 329:Drivers/STM32L1xx_HAL_Driver/Src/stm32l1xx_hal_dma.c **** 
 396              		.loc 1 329 21 is_stmt 0 view .LVU139
 397 002c 0025     		movs	r5, #0
 398 002e A563     		str	r5, [r4, #56]
 332:Drivers/STM32L1xx_HAL_Driver/Src/stm32l1xx_hal_dma.c **** 
 399              		.loc 1 332 5 is_stmt 1 view .LVU140
 400 0030 2668     		ldr	r6, [r4]
 401 0032 3068     		ldr	r0, [r6]
 402 0034 20F00100 		bic	r0, r0, #1
 403 0038 3060     		str	r0, [r6]
 335:Drivers/STM32L1xx_HAL_Driver/Src/stm32l1xx_hal_dma.c **** 
 404              		.loc 1 335 5 view .LVU141
 405 003a 2046     		mov	r0, r4
 406 003c FFF7FEFF 		bl	DMA_SetConfig
 407              	.LVL25:
 338:Drivers/STM32L1xx_HAL_Driver/Src/stm32l1xx_hal_dma.c ****   }
 408              		.loc 1 338 5 view .LVU142
 409 0040 2268     		ldr	r2, [r4]
 410 0042 1368     		ldr	r3, [r2]
 411 0044 43F00103 		orr	r3, r3, #1
 412 0048 1360     		str	r3, [r2]
 317:Drivers/STM32L1xx_HAL_Driver/Src/stm32l1xx_hal_dma.c **** 
 413              		.loc 1 317 21 is_stmt 0 view .LVU143
 414 004a 2846     		mov	r0, r5
 415 004c EAE7     		b	.L21
 416              	.LVL26:
 417              	.L23:
 323:Drivers/STM32L1xx_HAL_Driver/Src/stm32l1xx_hal_dma.c **** 
ARM GAS  /tmp/cc6rMAp7.s 			page 26


 418              		.loc 1 323 3 view .LVU144
 419 004e 0220     		movs	r0, #2
 420 0050 E8E7     		b	.L21
 421              		.cfi_endproc
 422              	.LFE74:
 424              		.section	.text.HAL_DMA_Start_IT,"ax",%progbits
 425              		.align	1
 426              		.global	HAL_DMA_Start_IT
 427              		.syntax unified
 428              		.thumb
 429              		.thumb_func
 431              	HAL_DMA_Start_IT:
 432              	.LVL27:
 433              	.LFB75:
 359:Drivers/STM32L1xx_HAL_Driver/Src/stm32l1xx_hal_dma.c ****   HAL_StatusTypeDef status = HAL_OK;
 434              		.loc 1 359 1 is_stmt 1 view -0
 435              		.cfi_startproc
 436              		@ args = 0, pretend = 0, frame = 0
 437              		@ frame_needed = 0, uses_anonymous_args = 0
 359:Drivers/STM32L1xx_HAL_Driver/Src/stm32l1xx_hal_dma.c ****   HAL_StatusTypeDef status = HAL_OK;
 438              		.loc 1 359 1 is_stmt 0 view .LVU146
 439 0000 38B5     		push	{r3, r4, r5, lr}
 440              	.LCFI6:
 441              		.cfi_def_cfa_offset 16
 442              		.cfi_offset 3, -16
 443              		.cfi_offset 4, -12
 444              		.cfi_offset 5, -8
 445              		.cfi_offset 14, -4
 446 0002 0446     		mov	r4, r0
 360:Drivers/STM32L1xx_HAL_Driver/Src/stm32l1xx_hal_dma.c **** 
 447              		.loc 1 360 3 is_stmt 1 view .LVU147
 448              	.LVL28:
 363:Drivers/STM32L1xx_HAL_Driver/Src/stm32l1xx_hal_dma.c **** 
 449              		.loc 1 363 3 view .LVU148
 366:Drivers/STM32L1xx_HAL_Driver/Src/stm32l1xx_hal_dma.c **** 
 450              		.loc 1 366 3 view .LVU149
 366:Drivers/STM32L1xx_HAL_Driver/Src/stm32l1xx_hal_dma.c **** 
 451              		.loc 1 366 3 view .LVU150
 452 0004 90F82000 		ldrb	r0, [r0, #32]	@ zero_extendqisi2
 453              	.LVL29:
 366:Drivers/STM32L1xx_HAL_Driver/Src/stm32l1xx_hal_dma.c **** 
 454              		.loc 1 366 3 is_stmt 0 view .LVU151
 455 0008 0128     		cmp	r0, #1
 456 000a 32D0     		beq	.L31
 366:Drivers/STM32L1xx_HAL_Driver/Src/stm32l1xx_hal_dma.c **** 
 457              		.loc 1 366 3 is_stmt 1 discriminator 2 view .LVU152
 458 000c 0120     		movs	r0, #1
 459 000e 84F82000 		strb	r0, [r4, #32]
 366:Drivers/STM32L1xx_HAL_Driver/Src/stm32l1xx_hal_dma.c **** 
 460              		.loc 1 366 3 discriminator 2 view .LVU153
 368:Drivers/STM32L1xx_HAL_Driver/Src/stm32l1xx_hal_dma.c ****   {
 461              		.loc 1 368 3 discriminator 2 view .LVU154
 368:Drivers/STM32L1xx_HAL_Driver/Src/stm32l1xx_hal_dma.c ****   {
 462              		.loc 1 368 33 is_stmt 0 discriminator 2 view .LVU155
 463 0012 94F82100 		ldrb	r0, [r4, #33]	@ zero_extendqisi2
 464 0016 C0B2     		uxtb	r0, r0
 368:Drivers/STM32L1xx_HAL_Driver/Src/stm32l1xx_hal_dma.c ****   {
ARM GAS  /tmp/cc6rMAp7.s 			page 27


 465              		.loc 1 368 5 discriminator 2 view .LVU156
 466 0018 0128     		cmp	r0, #1
 467 001a 04D0     		beq	.L33
 399:Drivers/STM32L1xx_HAL_Driver/Src/stm32l1xx_hal_dma.c **** 
 468              		.loc 1 399 5 is_stmt 1 view .LVU157
 399:Drivers/STM32L1xx_HAL_Driver/Src/stm32l1xx_hal_dma.c **** 
 469              		.loc 1 399 5 view .LVU158
 470 001c 0023     		movs	r3, #0
 471              	.LVL30:
 399:Drivers/STM32L1xx_HAL_Driver/Src/stm32l1xx_hal_dma.c **** 
 472              		.loc 1 399 5 is_stmt 0 view .LVU159
 473 001e 84F82030 		strb	r3, [r4, #32]
 399:Drivers/STM32L1xx_HAL_Driver/Src/stm32l1xx_hal_dma.c **** 
 474              		.loc 1 399 5 is_stmt 1 view .LVU160
 402:Drivers/STM32L1xx_HAL_Driver/Src/stm32l1xx_hal_dma.c ****   }
 475              		.loc 1 402 5 view .LVU161
 476              	.LVL31:
 402:Drivers/STM32L1xx_HAL_Driver/Src/stm32l1xx_hal_dma.c ****   }
 477              		.loc 1 402 12 is_stmt 0 view .LVU162
 478 0022 0220     		movs	r0, #2
 479              	.LVL32:
 480              	.L27:
 405:Drivers/STM32L1xx_HAL_Driver/Src/stm32l1xx_hal_dma.c **** 
 481              		.loc 1 405 1 view .LVU163
 482 0024 38BD     		pop	{r3, r4, r5, pc}
 483              	.LVL33:
 484              	.L33:
 371:Drivers/STM32L1xx_HAL_Driver/Src/stm32l1xx_hal_dma.c ****     hdma->ErrorCode = HAL_DMA_ERROR_NONE;
 485              		.loc 1 371 5 is_stmt 1 view .LVU164
 371:Drivers/STM32L1xx_HAL_Driver/Src/stm32l1xx_hal_dma.c ****     hdma->ErrorCode = HAL_DMA_ERROR_NONE;
 486              		.loc 1 371 17 is_stmt 0 view .LVU165
 487 0026 0220     		movs	r0, #2
 488 0028 84F82100 		strb	r0, [r4, #33]
 372:Drivers/STM32L1xx_HAL_Driver/Src/stm32l1xx_hal_dma.c **** 
 489              		.loc 1 372 5 is_stmt 1 view .LVU166
 372:Drivers/STM32L1xx_HAL_Driver/Src/stm32l1xx_hal_dma.c **** 
 490              		.loc 1 372 21 is_stmt 0 view .LVU167
 491 002c 0020     		movs	r0, #0
 492 002e A063     		str	r0, [r4, #56]
 375:Drivers/STM32L1xx_HAL_Driver/Src/stm32l1xx_hal_dma.c **** 
 493              		.loc 1 375 5 is_stmt 1 view .LVU168
 494 0030 2568     		ldr	r5, [r4]
 495 0032 2868     		ldr	r0, [r5]
 496 0034 20F00100 		bic	r0, r0, #1
 497 0038 2860     		str	r0, [r5]
 378:Drivers/STM32L1xx_HAL_Driver/Src/stm32l1xx_hal_dma.c **** 
 498              		.loc 1 378 5 view .LVU169
 499 003a 2046     		mov	r0, r4
 500 003c FFF7FEFF 		bl	DMA_SetConfig
 501              	.LVL34:
 382:Drivers/STM32L1xx_HAL_Driver/Src/stm32l1xx_hal_dma.c ****     {
 502              		.loc 1 382 5 view .LVU170
 382:Drivers/STM32L1xx_HAL_Driver/Src/stm32l1xx_hal_dma.c ****     {
 503              		.loc 1 382 20 is_stmt 0 view .LVU171
 504 0040 E36A     		ldr	r3, [r4, #44]
 382:Drivers/STM32L1xx_HAL_Driver/Src/stm32l1xx_hal_dma.c ****     {
 505              		.loc 1 382 7 view .LVU172
ARM GAS  /tmp/cc6rMAp7.s 			page 28


 506 0042 5BB1     		cbz	r3, .L29
 385:Drivers/STM32L1xx_HAL_Driver/Src/stm32l1xx_hal_dma.c ****     }
 507              		.loc 1 385 7 is_stmt 1 view .LVU173
 508 0044 2268     		ldr	r2, [r4]
 509 0046 1368     		ldr	r3, [r2]
 510 0048 43F00E03 		orr	r3, r3, #14
 511 004c 1360     		str	r3, [r2]
 512              	.L30:
 394:Drivers/STM32L1xx_HAL_Driver/Src/stm32l1xx_hal_dma.c ****   }
 513              		.loc 1 394 5 view .LVU174
 514 004e 2268     		ldr	r2, [r4]
 515 0050 1368     		ldr	r3, [r2]
 516 0052 43F00103 		orr	r3, r3, #1
 517 0056 1360     		str	r3, [r2]
 360:Drivers/STM32L1xx_HAL_Driver/Src/stm32l1xx_hal_dma.c **** 
 518              		.loc 1 360 21 is_stmt 0 view .LVU175
 519 0058 0020     		movs	r0, #0
 520 005a E3E7     		b	.L27
 521              	.L29:
 389:Drivers/STM32L1xx_HAL_Driver/Src/stm32l1xx_hal_dma.c ****       __HAL_DMA_ENABLE_IT(hdma, (DMA_IT_TC | DMA_IT_TE));
 522              		.loc 1 389 7 is_stmt 1 view .LVU176
 523 005c 2268     		ldr	r2, [r4]
 524 005e 1368     		ldr	r3, [r2]
 525 0060 23F00403 		bic	r3, r3, #4
 526 0064 1360     		str	r3, [r2]
 390:Drivers/STM32L1xx_HAL_Driver/Src/stm32l1xx_hal_dma.c ****     }
 527              		.loc 1 390 7 view .LVU177
 528 0066 2268     		ldr	r2, [r4]
 529 0068 1368     		ldr	r3, [r2]
 530 006a 43F00A03 		orr	r3, r3, #10
 531 006e 1360     		str	r3, [r2]
 532 0070 EDE7     		b	.L30
 533              	.LVL35:
 534              	.L31:
 366:Drivers/STM32L1xx_HAL_Driver/Src/stm32l1xx_hal_dma.c **** 
 535              		.loc 1 366 3 is_stmt 0 view .LVU178
 536 0072 0220     		movs	r0, #2
 537 0074 D6E7     		b	.L27
 538              		.cfi_endproc
 539              	.LFE75:
 541              		.section	.text.HAL_DMA_Abort,"ax",%progbits
 542              		.align	1
 543              		.global	HAL_DMA_Abort
 544              		.syntax unified
 545              		.thumb
 546              		.thumb_func
 548              	HAL_DMA_Abort:
 549              	.LVL36:
 550              	.LFB76:
 414:Drivers/STM32L1xx_HAL_Driver/Src/stm32l1xx_hal_dma.c ****   HAL_StatusTypeDef status = HAL_OK;
 551              		.loc 1 414 1 is_stmt 1 view -0
 552              		.cfi_startproc
 553              		@ args = 0, pretend = 0, frame = 0
 554              		@ frame_needed = 0, uses_anonymous_args = 0
 555              		@ link register save eliminated.
 415:Drivers/STM32L1xx_HAL_Driver/Src/stm32l1xx_hal_dma.c **** 
 556              		.loc 1 415 3 view .LVU180
ARM GAS  /tmp/cc6rMAp7.s 			page 29


 418:Drivers/STM32L1xx_HAL_Driver/Src/stm32l1xx_hal_dma.c ****   {
 557              		.loc 1 418 3 view .LVU181
 418:Drivers/STM32L1xx_HAL_Driver/Src/stm32l1xx_hal_dma.c ****   {
 558              		.loc 1 418 10 is_stmt 0 view .LVU182
 559 0000 90F82130 		ldrb	r3, [r0, #33]	@ zero_extendqisi2
 560 0004 DBB2     		uxtb	r3, r3
 418:Drivers/STM32L1xx_HAL_Driver/Src/stm32l1xx_hal_dma.c ****   {
 561              		.loc 1 418 5 view .LVU183
 562 0006 022B     		cmp	r3, #2
 563 0008 06D0     		beq	.L35
 420:Drivers/STM32L1xx_HAL_Driver/Src/stm32l1xx_hal_dma.c **** 
 564              		.loc 1 420 5 is_stmt 1 view .LVU184
 420:Drivers/STM32L1xx_HAL_Driver/Src/stm32l1xx_hal_dma.c **** 
 565              		.loc 1 420 21 is_stmt 0 view .LVU185
 566 000a 0423     		movs	r3, #4
 567 000c 8363     		str	r3, [r0, #56]
 423:Drivers/STM32L1xx_HAL_Driver/Src/stm32l1xx_hal_dma.c **** 
 568              		.loc 1 423 5 is_stmt 1 view .LVU186
 423:Drivers/STM32L1xx_HAL_Driver/Src/stm32l1xx_hal_dma.c **** 
 569              		.loc 1 423 5 view .LVU187
 570 000e 0023     		movs	r3, #0
 571 0010 80F82030 		strb	r3, [r0, #32]
 423:Drivers/STM32L1xx_HAL_Driver/Src/stm32l1xx_hal_dma.c **** 
 572              		.loc 1 423 5 view .LVU188
 425:Drivers/STM32L1xx_HAL_Driver/Src/stm32l1xx_hal_dma.c ****   }
 573              		.loc 1 425 5 view .LVU189
 425:Drivers/STM32L1xx_HAL_Driver/Src/stm32l1xx_hal_dma.c ****   }
 574              		.loc 1 425 12 is_stmt 0 view .LVU190
 575 0014 0120     		movs	r0, #1
 576              	.LVL37:
 425:Drivers/STM32L1xx_HAL_Driver/Src/stm32l1xx_hal_dma.c ****   }
 577              		.loc 1 425 12 view .LVU191
 578 0016 7047     		bx	lr
 579              	.LVL38:
 580              	.L35:
 430:Drivers/STM32L1xx_HAL_Driver/Src/stm32l1xx_hal_dma.c **** 
 581              		.loc 1 430 5 is_stmt 1 view .LVU192
 582 0018 0268     		ldr	r2, [r0]
 583 001a 1368     		ldr	r3, [r2]
 584 001c 23F00E03 		bic	r3, r3, #14
 585 0020 1360     		str	r3, [r2]
 433:Drivers/STM32L1xx_HAL_Driver/Src/stm32l1xx_hal_dma.c **** 
 586              		.loc 1 433 5 view .LVU193
 587 0022 0268     		ldr	r2, [r0]
 588 0024 1368     		ldr	r3, [r2]
 589 0026 23F00103 		bic	r3, r3, #1
 590 002a 1360     		str	r3, [r2]
 436:Drivers/STM32L1xx_HAL_Driver/Src/stm32l1xx_hal_dma.c **** 
 591              		.loc 1 436 5 view .LVU194
 436:Drivers/STM32L1xx_HAL_Driver/Src/stm32l1xx_hal_dma.c **** 
 592              		.loc 1 436 56 is_stmt 0 view .LVU195
 593 002c 036C     		ldr	r3, [r0, #64]
 436:Drivers/STM32L1xx_HAL_Driver/Src/stm32l1xx_hal_dma.c **** 
 594              		.loc 1 436 71 view .LVU196
 595 002e 03F01C03 		and	r3, r3, #28
 436:Drivers/STM32L1xx_HAL_Driver/Src/stm32l1xx_hal_dma.c **** 
 596              		.loc 1 436 9 view .LVU197
ARM GAS  /tmp/cc6rMAp7.s 			page 30


 597 0032 C16B     		ldr	r1, [r0, #60]
 436:Drivers/STM32L1xx_HAL_Driver/Src/stm32l1xx_hal_dma.c **** 
 598              		.loc 1 436 48 view .LVU198
 599 0034 0122     		movs	r2, #1
 600 0036 02FA03F3 		lsl	r3, r2, r3
 436:Drivers/STM32L1xx_HAL_Driver/Src/stm32l1xx_hal_dma.c **** 
 601              		.loc 1 436 32 view .LVU199
 602 003a 4B60     		str	r3, [r1, #4]
 439:Drivers/STM32L1xx_HAL_Driver/Src/stm32l1xx_hal_dma.c **** 
 603              		.loc 1 439 5 is_stmt 1 view .LVU200
 439:Drivers/STM32L1xx_HAL_Driver/Src/stm32l1xx_hal_dma.c **** 
 604              		.loc 1 439 17 is_stmt 0 view .LVU201
 605 003c 80F82120 		strb	r2, [r0, #33]
 442:Drivers/STM32L1xx_HAL_Driver/Src/stm32l1xx_hal_dma.c **** 
 606              		.loc 1 442 5 is_stmt 1 view .LVU202
 442:Drivers/STM32L1xx_HAL_Driver/Src/stm32l1xx_hal_dma.c **** 
 607              		.loc 1 442 5 view .LVU203
 608 0040 0023     		movs	r3, #0
 609 0042 80F82030 		strb	r3, [r0, #32]
 442:Drivers/STM32L1xx_HAL_Driver/Src/stm32l1xx_hal_dma.c **** 
 610              		.loc 1 442 5 view .LVU204
 444:Drivers/STM32L1xx_HAL_Driver/Src/stm32l1xx_hal_dma.c ****   }
 611              		.loc 1 444 5 view .LVU205
 444:Drivers/STM32L1xx_HAL_Driver/Src/stm32l1xx_hal_dma.c ****   }
 612              		.loc 1 444 12 is_stmt 0 view .LVU206
 613 0046 1846     		mov	r0, r3
 614              	.LVL39:
 446:Drivers/STM32L1xx_HAL_Driver/Src/stm32l1xx_hal_dma.c **** 
 615              		.loc 1 446 1 view .LVU207
 616 0048 7047     		bx	lr
 617              		.cfi_endproc
 618              	.LFE76:
 620              		.section	.text.HAL_DMA_Abort_IT,"ax",%progbits
 621              		.align	1
 622              		.global	HAL_DMA_Abort_IT
 623              		.syntax unified
 624              		.thumb
 625              		.thumb_func
 627              	HAL_DMA_Abort_IT:
 628              	.LVL40:
 629              	.LFB77:
 455:Drivers/STM32L1xx_HAL_Driver/Src/stm32l1xx_hal_dma.c ****   HAL_StatusTypeDef status = HAL_OK;
 630              		.loc 1 455 1 is_stmt 1 view -0
 631              		.cfi_startproc
 632              		@ args = 0, pretend = 0, frame = 0
 633              		@ frame_needed = 0, uses_anonymous_args = 0
 455:Drivers/STM32L1xx_HAL_Driver/Src/stm32l1xx_hal_dma.c ****   HAL_StatusTypeDef status = HAL_OK;
 634              		.loc 1 455 1 is_stmt 0 view .LVU209
 635 0000 08B5     		push	{r3, lr}
 636              	.LCFI7:
 637              		.cfi_def_cfa_offset 8
 638              		.cfi_offset 3, -8
 639              		.cfi_offset 14, -4
 456:Drivers/STM32L1xx_HAL_Driver/Src/stm32l1xx_hal_dma.c **** 
 640              		.loc 1 456 3 is_stmt 1 view .LVU210
 641              	.LVL41:
 458:Drivers/STM32L1xx_HAL_Driver/Src/stm32l1xx_hal_dma.c ****   {
ARM GAS  /tmp/cc6rMAp7.s 			page 31


 642              		.loc 1 458 3 view .LVU211
 458:Drivers/STM32L1xx_HAL_Driver/Src/stm32l1xx_hal_dma.c ****   {
 643              		.loc 1 458 32 is_stmt 0 view .LVU212
 644 0002 90F82130 		ldrb	r3, [r0, #33]	@ zero_extendqisi2
 645 0006 DBB2     		uxtb	r3, r3
 458:Drivers/STM32L1xx_HAL_Driver/Src/stm32l1xx_hal_dma.c ****   {
 646              		.loc 1 458 5 view .LVU213
 647 0008 022B     		cmp	r3, #2
 648 000a 03D0     		beq	.L38
 461:Drivers/STM32L1xx_HAL_Driver/Src/stm32l1xx_hal_dma.c **** 
 649              		.loc 1 461 5 is_stmt 1 view .LVU214
 461:Drivers/STM32L1xx_HAL_Driver/Src/stm32l1xx_hal_dma.c **** 
 650              		.loc 1 461 21 is_stmt 0 view .LVU215
 651 000c 0423     		movs	r3, #4
 652 000e 8363     		str	r3, [r0, #56]
 463:Drivers/STM32L1xx_HAL_Driver/Src/stm32l1xx_hal_dma.c ****   }
 653              		.loc 1 463 5 is_stmt 1 view .LVU216
 654              	.LVL42:
 463:Drivers/STM32L1xx_HAL_Driver/Src/stm32l1xx_hal_dma.c ****   }
 655              		.loc 1 463 12 is_stmt 0 view .LVU217
 656 0010 0120     		movs	r0, #1
 657              	.LVL43:
 658              	.L39:
 488:Drivers/STM32L1xx_HAL_Driver/Src/stm32l1xx_hal_dma.c **** }
 659              		.loc 1 488 3 is_stmt 1 view .LVU218
 489:Drivers/STM32L1xx_HAL_Driver/Src/stm32l1xx_hal_dma.c **** 
 660              		.loc 1 489 1 is_stmt 0 view .LVU219
 661 0012 08BD     		pop	{r3, pc}
 662              	.LVL44:
 663              	.L38:
 468:Drivers/STM32L1xx_HAL_Driver/Src/stm32l1xx_hal_dma.c **** 
 664              		.loc 1 468 5 is_stmt 1 view .LVU220
 665 0014 0268     		ldr	r2, [r0]
 666 0016 1368     		ldr	r3, [r2]
 667 0018 23F00E03 		bic	r3, r3, #14
 668 001c 1360     		str	r3, [r2]
 471:Drivers/STM32L1xx_HAL_Driver/Src/stm32l1xx_hal_dma.c **** 
 669              		.loc 1 471 5 view .LVU221
 670 001e 0268     		ldr	r2, [r0]
 671 0020 1368     		ldr	r3, [r2]
 672 0022 23F00103 		bic	r3, r3, #1
 673 0026 1360     		str	r3, [r2]
 474:Drivers/STM32L1xx_HAL_Driver/Src/stm32l1xx_hal_dma.c **** 
 674              		.loc 1 474 5 view .LVU222
 474:Drivers/STM32L1xx_HAL_Driver/Src/stm32l1xx_hal_dma.c **** 
 675              		.loc 1 474 56 is_stmt 0 view .LVU223
 676 0028 036C     		ldr	r3, [r0, #64]
 474:Drivers/STM32L1xx_HAL_Driver/Src/stm32l1xx_hal_dma.c **** 
 677              		.loc 1 474 71 view .LVU224
 678 002a 03F01C03 		and	r3, r3, #28
 474:Drivers/STM32L1xx_HAL_Driver/Src/stm32l1xx_hal_dma.c **** 
 679              		.loc 1 474 9 view .LVU225
 680 002e C16B     		ldr	r1, [r0, #60]
 474:Drivers/STM32L1xx_HAL_Driver/Src/stm32l1xx_hal_dma.c **** 
 681              		.loc 1 474 48 view .LVU226
 682 0030 0122     		movs	r2, #1
 683 0032 02FA03F3 		lsl	r3, r2, r3
ARM GAS  /tmp/cc6rMAp7.s 			page 32


 474:Drivers/STM32L1xx_HAL_Driver/Src/stm32l1xx_hal_dma.c **** 
 684              		.loc 1 474 32 view .LVU227
 685 0036 4B60     		str	r3, [r1, #4]
 477:Drivers/STM32L1xx_HAL_Driver/Src/stm32l1xx_hal_dma.c **** 
 686              		.loc 1 477 5 is_stmt 1 view .LVU228
 477:Drivers/STM32L1xx_HAL_Driver/Src/stm32l1xx_hal_dma.c **** 
 687              		.loc 1 477 17 is_stmt 0 view .LVU229
 688 0038 80F82120 		strb	r2, [r0, #33]
 480:Drivers/STM32L1xx_HAL_Driver/Src/stm32l1xx_hal_dma.c **** 
 689              		.loc 1 480 5 is_stmt 1 view .LVU230
 480:Drivers/STM32L1xx_HAL_Driver/Src/stm32l1xx_hal_dma.c **** 
 690              		.loc 1 480 5 view .LVU231
 691 003c 0023     		movs	r3, #0
 692 003e 80F82030 		strb	r3, [r0, #32]
 480:Drivers/STM32L1xx_HAL_Driver/Src/stm32l1xx_hal_dma.c **** 
 693              		.loc 1 480 5 view .LVU232
 483:Drivers/STM32L1xx_HAL_Driver/Src/stm32l1xx_hal_dma.c ****     {
 694              		.loc 1 483 5 view .LVU233
 483:Drivers/STM32L1xx_HAL_Driver/Src/stm32l1xx_hal_dma.c ****     {
 695              		.loc 1 483 12 is_stmt 0 view .LVU234
 696 0042 436B     		ldr	r3, [r0, #52]
 483:Drivers/STM32L1xx_HAL_Driver/Src/stm32l1xx_hal_dma.c ****     {
 697              		.loc 1 483 7 view .LVU235
 698 0044 13B1     		cbz	r3, .L40
 485:Drivers/STM32L1xx_HAL_Driver/Src/stm32l1xx_hal_dma.c ****     }
 699              		.loc 1 485 7 is_stmt 1 view .LVU236
 700 0046 9847     		blx	r3
 701              	.LVL45:
 456:Drivers/STM32L1xx_HAL_Driver/Src/stm32l1xx_hal_dma.c **** 
 702              		.loc 1 456 21 is_stmt 0 view .LVU237
 703 0048 0020     		movs	r0, #0
 704 004a E2E7     		b	.L39
 705              	.LVL46:
 706              	.L40:
 456:Drivers/STM32L1xx_HAL_Driver/Src/stm32l1xx_hal_dma.c **** 
 707              		.loc 1 456 21 view .LVU238
 708 004c 0020     		movs	r0, #0
 709              	.LVL47:
 456:Drivers/STM32L1xx_HAL_Driver/Src/stm32l1xx_hal_dma.c **** 
 710              		.loc 1 456 21 view .LVU239
 711 004e E0E7     		b	.L39
 712              		.cfi_endproc
 713              	.LFE77:
 715              		.section	.text.HAL_DMA_PollForTransfer,"ax",%progbits
 716              		.align	1
 717              		.global	HAL_DMA_PollForTransfer
 718              		.syntax unified
 719              		.thumb
 720              		.thumb_func
 722              	HAL_DMA_PollForTransfer:
 723              	.LVL48:
 724              	.LFB78:
 500:Drivers/STM32L1xx_HAL_Driver/Src/stm32l1xx_hal_dma.c ****   uint32_t temp;
 725              		.loc 1 500 1 is_stmt 1 view -0
 726              		.cfi_startproc
 727              		@ args = 0, pretend = 0, frame = 0
 728              		@ frame_needed = 0, uses_anonymous_args = 0
ARM GAS  /tmp/cc6rMAp7.s 			page 33


 500:Drivers/STM32L1xx_HAL_Driver/Src/stm32l1xx_hal_dma.c ****   uint32_t temp;
 729              		.loc 1 500 1 is_stmt 0 view .LVU241
 730 0000 2DE9F041 		push	{r4, r5, r6, r7, r8, lr}
 731              	.LCFI8:
 732              		.cfi_def_cfa_offset 24
 733              		.cfi_offset 4, -24
 734              		.cfi_offset 5, -20
 735              		.cfi_offset 6, -16
 736              		.cfi_offset 7, -12
 737              		.cfi_offset 8, -8
 738              		.cfi_offset 14, -4
 739 0004 0446     		mov	r4, r0
 501:Drivers/STM32L1xx_HAL_Driver/Src/stm32l1xx_hal_dma.c ****   uint32_t tickstart;
 740              		.loc 1 501 3 is_stmt 1 view .LVU242
 502:Drivers/STM32L1xx_HAL_Driver/Src/stm32l1xx_hal_dma.c **** 
 741              		.loc 1 502 3 view .LVU243
 504:Drivers/STM32L1xx_HAL_Driver/Src/stm32l1xx_hal_dma.c ****   {
 742              		.loc 1 504 3 view .LVU244
 504:Drivers/STM32L1xx_HAL_Driver/Src/stm32l1xx_hal_dma.c ****   {
 743              		.loc 1 504 32 is_stmt 0 view .LVU245
 744 0006 90F82130 		ldrb	r3, [r0, #33]	@ zero_extendqisi2
 745 000a DBB2     		uxtb	r3, r3
 504:Drivers/STM32L1xx_HAL_Driver/Src/stm32l1xx_hal_dma.c ****   {
 746              		.loc 1 504 5 view .LVU246
 747 000c 022B     		cmp	r3, #2
 748 000e 07D0     		beq	.L43
 507:Drivers/STM32L1xx_HAL_Driver/Src/stm32l1xx_hal_dma.c ****     __HAL_UNLOCK(hdma);
 749              		.loc 1 507 5 is_stmt 1 view .LVU247
 507:Drivers/STM32L1xx_HAL_Driver/Src/stm32l1xx_hal_dma.c ****     __HAL_UNLOCK(hdma);
 750              		.loc 1 507 21 is_stmt 0 view .LVU248
 751 0010 0423     		movs	r3, #4
 752 0012 8363     		str	r3, [r0, #56]
 508:Drivers/STM32L1xx_HAL_Driver/Src/stm32l1xx_hal_dma.c ****     return HAL_ERROR;
 753              		.loc 1 508 5 is_stmt 1 view .LVU249
 508:Drivers/STM32L1xx_HAL_Driver/Src/stm32l1xx_hal_dma.c ****     return HAL_ERROR;
 754              		.loc 1 508 5 view .LVU250
 755 0014 0023     		movs	r3, #0
 756 0016 80F82030 		strb	r3, [r0, #32]
 508:Drivers/STM32L1xx_HAL_Driver/Src/stm32l1xx_hal_dma.c ****     return HAL_ERROR;
 757              		.loc 1 508 5 view .LVU251
 509:Drivers/STM32L1xx_HAL_Driver/Src/stm32l1xx_hal_dma.c ****   }
 758              		.loc 1 509 5 view .LVU252
 509:Drivers/STM32L1xx_HAL_Driver/Src/stm32l1xx_hal_dma.c ****   }
 759              		.loc 1 509 12 is_stmt 0 view .LVU253
 760 001a 0120     		movs	r0, #1
 761              	.LVL49:
 762              	.L44:
 592:Drivers/STM32L1xx_HAL_Driver/Src/stm32l1xx_hal_dma.c **** 
 763              		.loc 1 592 1 view .LVU254
 764 001c BDE8F081 		pop	{r4, r5, r6, r7, r8, pc}
 765              	.LVL50:
 766              	.L43:
 592:Drivers/STM32L1xx_HAL_Driver/Src/stm32l1xx_hal_dma.c **** 
 767              		.loc 1 592 1 view .LVU255
 768 0020 0F46     		mov	r7, r1
 769 0022 1546     		mov	r5, r2
 513:Drivers/STM32L1xx_HAL_Driver/Src/stm32l1xx_hal_dma.c ****   {
ARM GAS  /tmp/cc6rMAp7.s 			page 34


 770              		.loc 1 513 3 is_stmt 1 view .LVU256
 513:Drivers/STM32L1xx_HAL_Driver/Src/stm32l1xx_hal_dma.c ****   {
 771              		.loc 1 513 12 is_stmt 0 view .LVU257
 772 0024 0368     		ldr	r3, [r0]
 513:Drivers/STM32L1xx_HAL_Driver/Src/stm32l1xx_hal_dma.c ****   {
 773              		.loc 1 513 22 view .LVU258
 774 0026 1B68     		ldr	r3, [r3]
 513:Drivers/STM32L1xx_HAL_Driver/Src/stm32l1xx_hal_dma.c ****   {
 775              		.loc 1 513 6 view .LVU259
 776 0028 13F0200F 		tst	r3, #32
 777 002c 2CD1     		bne	.L56
 520:Drivers/STM32L1xx_HAL_Driver/Src/stm32l1xx_hal_dma.c ****   {
 778              		.loc 1 520 3 is_stmt 1 view .LVU260
 520:Drivers/STM32L1xx_HAL_Driver/Src/stm32l1xx_hal_dma.c ****   {
 779              		.loc 1 520 6 is_stmt 0 view .LVU261
 780 002e 81BB     		cbnz	r1, .L46
 523:Drivers/STM32L1xx_HAL_Driver/Src/stm32l1xx_hal_dma.c ****   }
 781              		.loc 1 523 5 is_stmt 1 view .LVU262
 523:Drivers/STM32L1xx_HAL_Driver/Src/stm32l1xx_hal_dma.c ****   }
 782              		.loc 1 523 33 is_stmt 0 view .LVU263
 783 0030 066C     		ldr	r6, [r0, #64]
 523:Drivers/STM32L1xx_HAL_Driver/Src/stm32l1xx_hal_dma.c ****   }
 784              		.loc 1 523 48 view .LVU264
 785 0032 06F01C06 		and	r6, r6, #28
 523:Drivers/STM32L1xx_HAL_Driver/Src/stm32l1xx_hal_dma.c ****   }
 786              		.loc 1 523 10 view .LVU265
 787 0036 0223     		movs	r3, #2
 788 0038 03FA06F6 		lsl	r6, r3, r6
 789              	.LVL51:
 790              	.L47:
 532:Drivers/STM32L1xx_HAL_Driver/Src/stm32l1xx_hal_dma.c **** 
 791              		.loc 1 532 3 is_stmt 1 view .LVU266
 532:Drivers/STM32L1xx_HAL_Driver/Src/stm32l1xx_hal_dma.c **** 
 792              		.loc 1 532 15 is_stmt 0 view .LVU267
 793 003c FFF7FEFF 		bl	HAL_GetTick
 794              	.LVL52:
 532:Drivers/STM32L1xx_HAL_Driver/Src/stm32l1xx_hal_dma.c **** 
 795              		.loc 1 532 15 view .LVU268
 796 0040 8046     		mov	r8, r0
 797              	.LVL53:
 534:Drivers/STM32L1xx_HAL_Driver/Src/stm32l1xx_hal_dma.c ****   {
 798              		.loc 1 534 3 is_stmt 1 view .LVU269
 799              	.L50:
 534:Drivers/STM32L1xx_HAL_Driver/Src/stm32l1xx_hal_dma.c ****   {
 800              		.loc 1 534 8 view .LVU270
 534:Drivers/STM32L1xx_HAL_Driver/Src/stm32l1xx_hal_dma.c ****   {
 801              		.loc 1 534 14 is_stmt 0 view .LVU271
 802 0042 E26B     		ldr	r2, [r4, #60]
 534:Drivers/STM32L1xx_HAL_Driver/Src/stm32l1xx_hal_dma.c ****   {
 803              		.loc 1 534 30 view .LVU272
 804 0044 1368     		ldr	r3, [r2]
 534:Drivers/STM32L1xx_HAL_Driver/Src/stm32l1xx_hal_dma.c ****   {
 805              		.loc 1 534 8 view .LVU273
 806 0046 3342     		tst	r3, r6
 807 0048 35D1     		bne	.L57
 536:Drivers/STM32L1xx_HAL_Driver/Src/stm32l1xx_hal_dma.c ****     {
 808              		.loc 1 536 5 is_stmt 1 view .LVU274
ARM GAS  /tmp/cc6rMAp7.s 			page 35


 536:Drivers/STM32L1xx_HAL_Driver/Src/stm32l1xx_hal_dma.c ****     {
 809              		.loc 1 536 29 is_stmt 0 view .LVU275
 810 004a 1168     		ldr	r1, [r2]
 536:Drivers/STM32L1xx_HAL_Driver/Src/stm32l1xx_hal_dma.c ****     {
 811              		.loc 1 536 59 view .LVU276
 812 004c 236C     		ldr	r3, [r4, #64]
 536:Drivers/STM32L1xx_HAL_Driver/Src/stm32l1xx_hal_dma.c ****     {
 813              		.loc 1 536 73 view .LVU277
 814 004e 03F01C03 		and	r3, r3, #28
 536:Drivers/STM32L1xx_HAL_Driver/Src/stm32l1xx_hal_dma.c ****     {
 815              		.loc 1 536 51 view .LVU278
 816 0052 4FF0080C 		mov	ip, #8
 817 0056 0CFA03FC 		lsl	ip, ip, r3
 536:Drivers/STM32L1xx_HAL_Driver/Src/stm32l1xx_hal_dma.c ****     {
 818              		.loc 1 536 7 view .LVU279
 819 005a 11EA0C0F 		tst	r1, ip
 820 005e 1FD1     		bne	.L58
 555:Drivers/STM32L1xx_HAL_Driver/Src/stm32l1xx_hal_dma.c ****     {
 821              		.loc 1 555 5 is_stmt 1 view .LVU280
 555:Drivers/STM32L1xx_HAL_Driver/Src/stm32l1xx_hal_dma.c ****     {
 822              		.loc 1 555 7 is_stmt 0 view .LVU281
 823 0060 B5F1FF3F 		cmp	r5, #-1
 824 0064 EDD0     		beq	.L50
 557:Drivers/STM32L1xx_HAL_Driver/Src/stm32l1xx_hal_dma.c ****       {
 825              		.loc 1 557 7 is_stmt 1 view .LVU282
 557:Drivers/STM32L1xx_HAL_Driver/Src/stm32l1xx_hal_dma.c ****       {
 826              		.loc 1 557 12 is_stmt 0 view .LVU283
 827 0066 FFF7FEFF 		bl	HAL_GetTick
 828              	.LVL54:
 557:Drivers/STM32L1xx_HAL_Driver/Src/stm32l1xx_hal_dma.c ****       {
 829              		.loc 1 557 26 view .LVU284
 830 006a A0EB0800 		sub	r0, r0, r8
 557:Drivers/STM32L1xx_HAL_Driver/Src/stm32l1xx_hal_dma.c ****       {
 831              		.loc 1 557 9 view .LVU285
 832 006e A842     		cmp	r0, r5
 833 0070 01D8     		bhi	.L51
 557:Drivers/STM32L1xx_HAL_Driver/Src/stm32l1xx_hal_dma.c ****       {
 834              		.loc 1 557 50 discriminator 1 view .LVU286
 835 0072 002D     		cmp	r5, #0
 836 0074 E5D1     		bne	.L50
 837              	.L51:
 560:Drivers/STM32L1xx_HAL_Driver/Src/stm32l1xx_hal_dma.c **** 
 838              		.loc 1 560 9 is_stmt 1 view .LVU287
 560:Drivers/STM32L1xx_HAL_Driver/Src/stm32l1xx_hal_dma.c **** 
 839              		.loc 1 560 25 is_stmt 0 view .LVU288
 840 0076 2023     		movs	r3, #32
 841 0078 A363     		str	r3, [r4, #56]
 563:Drivers/STM32L1xx_HAL_Driver/Src/stm32l1xx_hal_dma.c **** 
 842              		.loc 1 563 9 is_stmt 1 view .LVU289
 563:Drivers/STM32L1xx_HAL_Driver/Src/stm32l1xx_hal_dma.c **** 
 843              		.loc 1 563 21 is_stmt 0 view .LVU290
 844 007a 0120     		movs	r0, #1
 845 007c 84F82100 		strb	r0, [r4, #33]
 566:Drivers/STM32L1xx_HAL_Driver/Src/stm32l1xx_hal_dma.c **** 
 846              		.loc 1 566 9 is_stmt 1 view .LVU291
 566:Drivers/STM32L1xx_HAL_Driver/Src/stm32l1xx_hal_dma.c **** 
 847              		.loc 1 566 9 view .LVU292
ARM GAS  /tmp/cc6rMAp7.s 			page 36


 848 0080 0023     		movs	r3, #0
 849 0082 84F82030 		strb	r3, [r4, #32]
 566:Drivers/STM32L1xx_HAL_Driver/Src/stm32l1xx_hal_dma.c **** 
 850              		.loc 1 566 9 view .LVU293
 568:Drivers/STM32L1xx_HAL_Driver/Src/stm32l1xx_hal_dma.c ****       }
 851              		.loc 1 568 9 view .LVU294
 568:Drivers/STM32L1xx_HAL_Driver/Src/stm32l1xx_hal_dma.c ****       }
 852              		.loc 1 568 16 is_stmt 0 view .LVU295
 853 0086 C9E7     		b	.L44
 854              	.LVL55:
 855              	.L56:
 515:Drivers/STM32L1xx_HAL_Driver/Src/stm32l1xx_hal_dma.c ****     return HAL_ERROR;
 856              		.loc 1 515 5 is_stmt 1 view .LVU296
 515:Drivers/STM32L1xx_HAL_Driver/Src/stm32l1xx_hal_dma.c ****     return HAL_ERROR;
 857              		.loc 1 515 21 is_stmt 0 view .LVU297
 858 0088 4FF48073 		mov	r3, #256
 859 008c 8363     		str	r3, [r0, #56]
 516:Drivers/STM32L1xx_HAL_Driver/Src/stm32l1xx_hal_dma.c ****   }
 860              		.loc 1 516 5 is_stmt 1 view .LVU298
 516:Drivers/STM32L1xx_HAL_Driver/Src/stm32l1xx_hal_dma.c ****   }
 861              		.loc 1 516 12 is_stmt 0 view .LVU299
 862 008e 0120     		movs	r0, #1
 863              	.LVL56:
 516:Drivers/STM32L1xx_HAL_Driver/Src/stm32l1xx_hal_dma.c ****   }
 864              		.loc 1 516 12 view .LVU300
 865 0090 C4E7     		b	.L44
 866              	.LVL57:
 867              	.L46:
 528:Drivers/STM32L1xx_HAL_Driver/Src/stm32l1xx_hal_dma.c ****   }
 868              		.loc 1 528 5 is_stmt 1 view .LVU301
 528:Drivers/STM32L1xx_HAL_Driver/Src/stm32l1xx_hal_dma.c ****   }
 869              		.loc 1 528 33 is_stmt 0 view .LVU302
 870 0092 066C     		ldr	r6, [r0, #64]
 528:Drivers/STM32L1xx_HAL_Driver/Src/stm32l1xx_hal_dma.c ****   }
 871              		.loc 1 528 48 view .LVU303
 872 0094 06F01C06 		and	r6, r6, #28
 528:Drivers/STM32L1xx_HAL_Driver/Src/stm32l1xx_hal_dma.c ****   }
 873              		.loc 1 528 10 view .LVU304
 874 0098 0423     		movs	r3, #4
 875 009a 03FA06F6 		lsl	r6, r3, r6
 876              	.LVL58:
 528:Drivers/STM32L1xx_HAL_Driver/Src/stm32l1xx_hal_dma.c ****   }
 877              		.loc 1 528 10 view .LVU305
 878 009e CDE7     		b	.L47
 879              	.LVL59:
 880              	.L58:
 541:Drivers/STM32L1xx_HAL_Driver/Src/stm32l1xx_hal_dma.c **** 
 881              		.loc 1 541 7 is_stmt 1 view .LVU306
 541:Drivers/STM32L1xx_HAL_Driver/Src/stm32l1xx_hal_dma.c **** 
 882              		.loc 1 541 50 is_stmt 0 view .LVU307
 883 00a0 0120     		movs	r0, #1
 884 00a2 00FA03F3 		lsl	r3, r0, r3
 541:Drivers/STM32L1xx_HAL_Driver/Src/stm32l1xx_hal_dma.c **** 
 885              		.loc 1 541 34 view .LVU308
 886 00a6 5360     		str	r3, [r2, #4]
 544:Drivers/STM32L1xx_HAL_Driver/Src/stm32l1xx_hal_dma.c **** 
 887              		.loc 1 544 7 is_stmt 1 view .LVU309
ARM GAS  /tmp/cc6rMAp7.s 			page 37


 544:Drivers/STM32L1xx_HAL_Driver/Src/stm32l1xx_hal_dma.c **** 
 888              		.loc 1 544 23 is_stmt 0 view .LVU310
 889 00a8 A063     		str	r0, [r4, #56]
 547:Drivers/STM32L1xx_HAL_Driver/Src/stm32l1xx_hal_dma.c **** 
 890              		.loc 1 547 7 is_stmt 1 view .LVU311
 547:Drivers/STM32L1xx_HAL_Driver/Src/stm32l1xx_hal_dma.c **** 
 891              		.loc 1 547 18 is_stmt 0 view .LVU312
 892 00aa 84F82100 		strb	r0, [r4, #33]
 550:Drivers/STM32L1xx_HAL_Driver/Src/stm32l1xx_hal_dma.c **** 
 893              		.loc 1 550 7 is_stmt 1 view .LVU313
 550:Drivers/STM32L1xx_HAL_Driver/Src/stm32l1xx_hal_dma.c **** 
 894              		.loc 1 550 7 view .LVU314
 895 00ae 0023     		movs	r3, #0
 896 00b0 84F82030 		strb	r3, [r4, #32]
 550:Drivers/STM32L1xx_HAL_Driver/Src/stm32l1xx_hal_dma.c **** 
 897              		.loc 1 550 7 view .LVU315
 552:Drivers/STM32L1xx_HAL_Driver/Src/stm32l1xx_hal_dma.c ****     }
 898              		.loc 1 552 7 view .LVU316
 552:Drivers/STM32L1xx_HAL_Driver/Src/stm32l1xx_hal_dma.c ****     }
 899              		.loc 1 552 14 is_stmt 0 view .LVU317
 900 00b4 B2E7     		b	.L44
 901              	.L57:
 573:Drivers/STM32L1xx_HAL_Driver/Src/stm32l1xx_hal_dma.c ****   {
 902              		.loc 1 573 3 is_stmt 1 view .LVU318
 573:Drivers/STM32L1xx_HAL_Driver/Src/stm32l1xx_hal_dma.c ****   {
 903              		.loc 1 573 5 is_stmt 0 view .LVU319
 904 00b6 67B9     		cbnz	r7, .L53
 576:Drivers/STM32L1xx_HAL_Driver/Src/stm32l1xx_hal_dma.c **** 
 905              		.loc 1 576 5 is_stmt 1 view .LVU320
 576:Drivers/STM32L1xx_HAL_Driver/Src/stm32l1xx_hal_dma.c **** 
 906              		.loc 1 576 56 is_stmt 0 view .LVU321
 907 00b8 236C     		ldr	r3, [r4, #64]
 576:Drivers/STM32L1xx_HAL_Driver/Src/stm32l1xx_hal_dma.c **** 
 908              		.loc 1 576 70 view .LVU322
 909 00ba 03F01C01 		and	r1, r3, #28
 576:Drivers/STM32L1xx_HAL_Driver/Src/stm32l1xx_hal_dma.c **** 
 910              		.loc 1 576 48 view .LVU323
 911 00be 0223     		movs	r3, #2
 912 00c0 8B40     		lsls	r3, r3, r1
 576:Drivers/STM32L1xx_HAL_Driver/Src/stm32l1xx_hal_dma.c **** 
 913              		.loc 1 576 32 view .LVU324
 914 00c2 5360     		str	r3, [r2, #4]
 580:Drivers/STM32L1xx_HAL_Driver/Src/stm32l1xx_hal_dma.c ****   }
 915              		.loc 1 580 5 is_stmt 1 view .LVU325
 580:Drivers/STM32L1xx_HAL_Driver/Src/stm32l1xx_hal_dma.c ****   }
 916              		.loc 1 580 17 is_stmt 0 view .LVU326
 917 00c4 0123     		movs	r3, #1
 918 00c6 84F82130 		strb	r3, [r4, #33]
 919              	.L54:
 589:Drivers/STM32L1xx_HAL_Driver/Src/stm32l1xx_hal_dma.c **** 
 920              		.loc 1 589 3 is_stmt 1 view .LVU327
 589:Drivers/STM32L1xx_HAL_Driver/Src/stm32l1xx_hal_dma.c **** 
 921              		.loc 1 589 3 view .LVU328
 922 00ca 0020     		movs	r0, #0
 923 00cc 84F82000 		strb	r0, [r4, #32]
 589:Drivers/STM32L1xx_HAL_Driver/Src/stm32l1xx_hal_dma.c **** 
 924              		.loc 1 589 3 view .LVU329
ARM GAS  /tmp/cc6rMAp7.s 			page 38


 591:Drivers/STM32L1xx_HAL_Driver/Src/stm32l1xx_hal_dma.c **** }
 925              		.loc 1 591 3 view .LVU330
 591:Drivers/STM32L1xx_HAL_Driver/Src/stm32l1xx_hal_dma.c **** }
 926              		.loc 1 591 10 is_stmt 0 view .LVU331
 927 00d0 A4E7     		b	.L44
 928              	.L53:
 585:Drivers/STM32L1xx_HAL_Driver/Src/stm32l1xx_hal_dma.c ****   }
 929              		.loc 1 585 5 is_stmt 1 view .LVU332
 585:Drivers/STM32L1xx_HAL_Driver/Src/stm32l1xx_hal_dma.c ****   }
 930              		.loc 1 585 56 is_stmt 0 view .LVU333
 931 00d2 236C     		ldr	r3, [r4, #64]
 585:Drivers/STM32L1xx_HAL_Driver/Src/stm32l1xx_hal_dma.c ****   }
 932              		.loc 1 585 71 view .LVU334
 933 00d4 03F01C01 		and	r1, r3, #28
 585:Drivers/STM32L1xx_HAL_Driver/Src/stm32l1xx_hal_dma.c ****   }
 934              		.loc 1 585 48 view .LVU335
 935 00d8 0423     		movs	r3, #4
 936 00da 8B40     		lsls	r3, r3, r1
 585:Drivers/STM32L1xx_HAL_Driver/Src/stm32l1xx_hal_dma.c ****   }
 937              		.loc 1 585 32 view .LVU336
 938 00dc 5360     		str	r3, [r2, #4]
 939 00de F4E7     		b	.L54
 940              		.cfi_endproc
 941              	.LFE78:
 943              		.section	.text.HAL_DMA_IRQHandler,"ax",%progbits
 944              		.align	1
 945              		.global	HAL_DMA_IRQHandler
 946              		.syntax unified
 947              		.thumb
 948              		.thumb_func
 950              	HAL_DMA_IRQHandler:
 951              	.LVL60:
 952              	.LFB79:
 601:Drivers/STM32L1xx_HAL_Driver/Src/stm32l1xx_hal_dma.c ****   uint32_t flag_it = hdma->DmaBaseAddress->ISR;
 953              		.loc 1 601 1 is_stmt 1 view -0
 954              		.cfi_startproc
 955              		@ args = 0, pretend = 0, frame = 0
 956              		@ frame_needed = 0, uses_anonymous_args = 0
 601:Drivers/STM32L1xx_HAL_Driver/Src/stm32l1xx_hal_dma.c ****   uint32_t flag_it = hdma->DmaBaseAddress->ISR;
 957              		.loc 1 601 1 is_stmt 0 view .LVU338
 958 0000 38B5     		push	{r3, r4, r5, lr}
 959              	.LCFI9:
 960              		.cfi_def_cfa_offset 16
 961              		.cfi_offset 3, -16
 962              		.cfi_offset 4, -12
 963              		.cfi_offset 5, -8
 964              		.cfi_offset 14, -4
 602:Drivers/STM32L1xx_HAL_Driver/Src/stm32l1xx_hal_dma.c ****   uint32_t source_it = hdma->Instance->CCR;
 965              		.loc 1 602 3 is_stmt 1 view .LVU339
 602:Drivers/STM32L1xx_HAL_Driver/Src/stm32l1xx_hal_dma.c ****   uint32_t source_it = hdma->Instance->CCR;
 966              		.loc 1 602 26 is_stmt 0 view .LVU340
 967 0002 C36B     		ldr	r3, [r0, #60]
 602:Drivers/STM32L1xx_HAL_Driver/Src/stm32l1xx_hal_dma.c ****   uint32_t source_it = hdma->Instance->CCR;
 968              		.loc 1 602 12 view .LVU341
 969 0004 1968     		ldr	r1, [r3]
 970              	.LVL61:
 603:Drivers/STM32L1xx_HAL_Driver/Src/stm32l1xx_hal_dma.c **** 
ARM GAS  /tmp/cc6rMAp7.s 			page 39


 971              		.loc 1 603 3 is_stmt 1 view .LVU342
 603:Drivers/STM32L1xx_HAL_Driver/Src/stm32l1xx_hal_dma.c **** 
 972              		.loc 1 603 28 is_stmt 0 view .LVU343
 973 0006 0468     		ldr	r4, [r0]
 603:Drivers/STM32L1xx_HAL_Driver/Src/stm32l1xx_hal_dma.c **** 
 974              		.loc 1 603 12 view .LVU344
 975 0008 2568     		ldr	r5, [r4]
 976              	.LVL62:
 606:Drivers/STM32L1xx_HAL_Driver/Src/stm32l1xx_hal_dma.c ****   {
 977              		.loc 1 606 3 is_stmt 1 view .LVU345
 606:Drivers/STM32L1xx_HAL_Driver/Src/stm32l1xx_hal_dma.c ****   {
 978              		.loc 1 606 41 is_stmt 0 view .LVU346
 979 000a 036C     		ldr	r3, [r0, #64]
 606:Drivers/STM32L1xx_HAL_Driver/Src/stm32l1xx_hal_dma.c ****   {
 980              		.loc 1 606 56 view .LVU347
 981 000c 03F01C03 		and	r3, r3, #28
 606:Drivers/STM32L1xx_HAL_Driver/Src/stm32l1xx_hal_dma.c ****   {
 982              		.loc 1 606 33 view .LVU348
 983 0010 0422     		movs	r2, #4
 984 0012 9A40     		lsls	r2, r2, r3
 606:Drivers/STM32L1xx_HAL_Driver/Src/stm32l1xx_hal_dma.c ****   {
 985              		.loc 1 606 6 view .LVU349
 986 0014 0A42     		tst	r2, r1
 987 0016 15D0     		beq	.L60
 606:Drivers/STM32L1xx_HAL_Driver/Src/stm32l1xx_hal_dma.c ****   {
 988              		.loc 1 606 74 discriminator 1 view .LVU350
 989 0018 15F0040F 		tst	r5, #4
 990 001c 12D0     		beq	.L60
 609:Drivers/STM32L1xx_HAL_Driver/Src/stm32l1xx_hal_dma.c ****     {
 991              		.loc 1 609 5 is_stmt 1 view .LVU351
 609:Drivers/STM32L1xx_HAL_Driver/Src/stm32l1xx_hal_dma.c ****     {
 992              		.loc 1 609 23 is_stmt 0 view .LVU352
 993 001e 2368     		ldr	r3, [r4]
 609:Drivers/STM32L1xx_HAL_Driver/Src/stm32l1xx_hal_dma.c ****     {
 994              		.loc 1 609 7 view .LVU353
 995 0020 13F0200F 		tst	r3, #32
 996 0024 03D1     		bne	.L61
 612:Drivers/STM32L1xx_HAL_Driver/Src/stm32l1xx_hal_dma.c ****     }
 997              		.loc 1 612 7 is_stmt 1 view .LVU354
 998 0026 2368     		ldr	r3, [r4]
 999 0028 23F00403 		bic	r3, r3, #4
 1000 002c 2360     		str	r3, [r4]
 1001              	.L61:
 615:Drivers/STM32L1xx_HAL_Driver/Src/stm32l1xx_hal_dma.c **** 
 1002              		.loc 1 615 5 view .LVU355
 615:Drivers/STM32L1xx_HAL_Driver/Src/stm32l1xx_hal_dma.c **** 
 1003              		.loc 1 615 56 is_stmt 0 view .LVU356
 1004 002e 036C     		ldr	r3, [r0, #64]
 615:Drivers/STM32L1xx_HAL_Driver/Src/stm32l1xx_hal_dma.c **** 
 1005              		.loc 1 615 71 view .LVU357
 1006 0030 03F01C02 		and	r2, r3, #28
 615:Drivers/STM32L1xx_HAL_Driver/Src/stm32l1xx_hal_dma.c **** 
 1007              		.loc 1 615 9 view .LVU358
 1008 0034 C16B     		ldr	r1, [r0, #60]
 1009              	.LVL63:
 615:Drivers/STM32L1xx_HAL_Driver/Src/stm32l1xx_hal_dma.c **** 
 1010              		.loc 1 615 48 view .LVU359
ARM GAS  /tmp/cc6rMAp7.s 			page 40


 1011 0036 0423     		movs	r3, #4
 1012 0038 9340     		lsls	r3, r3, r2
 615:Drivers/STM32L1xx_HAL_Driver/Src/stm32l1xx_hal_dma.c **** 
 1013              		.loc 1 615 32 view .LVU360
 1014 003a 4B60     		str	r3, [r1, #4]
 620:Drivers/STM32L1xx_HAL_Driver/Src/stm32l1xx_hal_dma.c ****     {
 1015              		.loc 1 620 5 is_stmt 1 view .LVU361
 620:Drivers/STM32L1xx_HAL_Driver/Src/stm32l1xx_hal_dma.c ****     {
 1016              		.loc 1 620 12 is_stmt 0 view .LVU362
 1017 003c C36A     		ldr	r3, [r0, #44]
 620:Drivers/STM32L1xx_HAL_Driver/Src/stm32l1xx_hal_dma.c ****     {
 1018              		.loc 1 620 7 view .LVU363
 1019 003e 03B1     		cbz	r3, .L59
 623:Drivers/STM32L1xx_HAL_Driver/Src/stm32l1xx_hal_dma.c ****     }
 1020              		.loc 1 623 7 is_stmt 1 view .LVU364
 1021 0040 9847     		blx	r3
 1022              	.LVL64:
 1023              	.L59:
 685:Drivers/STM32L1xx_HAL_Driver/Src/stm32l1xx_hal_dma.c **** 
 1024              		.loc 1 685 1 is_stmt 0 view .LVU365
 1025 0042 38BD     		pop	{r3, r4, r5, pc}
 1026              	.LVL65:
 1027              	.L60:
 628:Drivers/STM32L1xx_HAL_Driver/Src/stm32l1xx_hal_dma.c ****   {
 1028              		.loc 1 628 8 is_stmt 1 view .LVU366
 628:Drivers/STM32L1xx_HAL_Driver/Src/stm32l1xx_hal_dma.c ****   {
 1029              		.loc 1 628 38 is_stmt 0 view .LVU367
 1030 0044 0222     		movs	r2, #2
 1031 0046 9A40     		lsls	r2, r2, r3
 628:Drivers/STM32L1xx_HAL_Driver/Src/stm32l1xx_hal_dma.c ****   {
 1032              		.loc 1 628 11 view .LVU368
 1033 0048 0A42     		tst	r2, r1
 1034 004a 1CD0     		beq	.L63
 628:Drivers/STM32L1xx_HAL_Driver/Src/stm32l1xx_hal_dma.c ****   {
 1035              		.loc 1 628 79 discriminator 1 view .LVU369
 1036 004c 15F0020F 		tst	r5, #2
 1037 0050 19D0     		beq	.L63
 631:Drivers/STM32L1xx_HAL_Driver/Src/stm32l1xx_hal_dma.c ****     {
 1038              		.loc 1 631 5 is_stmt 1 view .LVU370
 631:Drivers/STM32L1xx_HAL_Driver/Src/stm32l1xx_hal_dma.c ****     {
 1039              		.loc 1 631 23 is_stmt 0 view .LVU371
 1040 0052 2368     		ldr	r3, [r4]
 631:Drivers/STM32L1xx_HAL_Driver/Src/stm32l1xx_hal_dma.c ****     {
 1041              		.loc 1 631 7 view .LVU372
 1042 0054 13F0200F 		tst	r3, #32
 1043 0058 06D1     		bne	.L64
 636:Drivers/STM32L1xx_HAL_Driver/Src/stm32l1xx_hal_dma.c **** 
 1044              		.loc 1 636 7 is_stmt 1 view .LVU373
 1045 005a 2368     		ldr	r3, [r4]
 1046 005c 23F00A03 		bic	r3, r3, #10
 1047 0060 2360     		str	r3, [r4]
 639:Drivers/STM32L1xx_HAL_Driver/Src/stm32l1xx_hal_dma.c ****     }
 1048              		.loc 1 639 7 view .LVU374
 639:Drivers/STM32L1xx_HAL_Driver/Src/stm32l1xx_hal_dma.c ****     }
 1049              		.loc 1 639 19 is_stmt 0 view .LVU375
 1050 0062 0123     		movs	r3, #1
 1051 0064 80F82130 		strb	r3, [r0, #33]
ARM GAS  /tmp/cc6rMAp7.s 			page 41


 1052              	.L64:
 642:Drivers/STM32L1xx_HAL_Driver/Src/stm32l1xx_hal_dma.c **** 
 1053              		.loc 1 642 5 is_stmt 1 view .LVU376
 642:Drivers/STM32L1xx_HAL_Driver/Src/stm32l1xx_hal_dma.c **** 
 1054              		.loc 1 642 57 is_stmt 0 view .LVU377
 1055 0068 036C     		ldr	r3, [r0, #64]
 642:Drivers/STM32L1xx_HAL_Driver/Src/stm32l1xx_hal_dma.c **** 
 1056              		.loc 1 642 72 view .LVU378
 1057 006a 03F01C02 		and	r2, r3, #28
 642:Drivers/STM32L1xx_HAL_Driver/Src/stm32l1xx_hal_dma.c **** 
 1058              		.loc 1 642 9 view .LVU379
 1059 006e C16B     		ldr	r1, [r0, #60]
 1060              	.LVL66:
 642:Drivers/STM32L1xx_HAL_Driver/Src/stm32l1xx_hal_dma.c **** 
 1061              		.loc 1 642 49 view .LVU380
 1062 0070 0223     		movs	r3, #2
 1063 0072 9340     		lsls	r3, r3, r2
 642:Drivers/STM32L1xx_HAL_Driver/Src/stm32l1xx_hal_dma.c **** 
 1064              		.loc 1 642 32 view .LVU381
 1065 0074 4B60     		str	r3, [r1, #4]
 645:Drivers/STM32L1xx_HAL_Driver/Src/stm32l1xx_hal_dma.c **** 
 1066              		.loc 1 645 5 is_stmt 1 view .LVU382
 645:Drivers/STM32L1xx_HAL_Driver/Src/stm32l1xx_hal_dma.c **** 
 1067              		.loc 1 645 5 view .LVU383
 1068 0076 0023     		movs	r3, #0
 1069 0078 80F82030 		strb	r3, [r0, #32]
 645:Drivers/STM32L1xx_HAL_Driver/Src/stm32l1xx_hal_dma.c **** 
 1070              		.loc 1 645 5 view .LVU384
 647:Drivers/STM32L1xx_HAL_Driver/Src/stm32l1xx_hal_dma.c ****     {
 1071              		.loc 1 647 5 view .LVU385
 647:Drivers/STM32L1xx_HAL_Driver/Src/stm32l1xx_hal_dma.c ****     {
 1072              		.loc 1 647 12 is_stmt 0 view .LVU386
 1073 007c 836A     		ldr	r3, [r0, #40]
 647:Drivers/STM32L1xx_HAL_Driver/Src/stm32l1xx_hal_dma.c ****     {
 1074              		.loc 1 647 7 view .LVU387
 1075 007e 002B     		cmp	r3, #0
 1076 0080 DFD0     		beq	.L59
 650:Drivers/STM32L1xx_HAL_Driver/Src/stm32l1xx_hal_dma.c ****     }
 1077              		.loc 1 650 7 is_stmt 1 view .LVU388
 1078 0082 9847     		blx	r3
 1079              	.LVL67:
 650:Drivers/STM32L1xx_HAL_Driver/Src/stm32l1xx_hal_dma.c ****     }
 1080              		.loc 1 650 7 is_stmt 0 view .LVU389
 1081 0084 DDE7     		b	.L59
 1082              	.LVL68:
 1083              	.L63:
 655:Drivers/STM32L1xx_HAL_Driver/Src/stm32l1xx_hal_dma.c ****   {
 1084              		.loc 1 655 8 is_stmt 1 view .LVU390
 655:Drivers/STM32L1xx_HAL_Driver/Src/stm32l1xx_hal_dma.c ****   {
 1085              		.loc 1 655 38 is_stmt 0 view .LVU391
 1086 0086 0822     		movs	r2, #8
 1087 0088 02FA03F3 		lsl	r3, r2, r3
 655:Drivers/STM32L1xx_HAL_Driver/Src/stm32l1xx_hal_dma.c ****   {
 1088              		.loc 1 655 11 view .LVU392
 1089 008c 0B42     		tst	r3, r1
 1090 008e D8D0     		beq	.L59
 655:Drivers/STM32L1xx_HAL_Driver/Src/stm32l1xx_hal_dma.c ****   {
ARM GAS  /tmp/cc6rMAp7.s 			page 42


 1091              		.loc 1 655 79 discriminator 1 view .LVU393
 1092 0090 15F0080F 		tst	r5, #8
 1093 0094 D5D0     		beq	.L59
 660:Drivers/STM32L1xx_HAL_Driver/Src/stm32l1xx_hal_dma.c **** 
 1094              		.loc 1 660 5 is_stmt 1 view .LVU394
 1095 0096 2368     		ldr	r3, [r4]
 1096 0098 23F00E03 		bic	r3, r3, #14
 1097 009c 2360     		str	r3, [r4]
 663:Drivers/STM32L1xx_HAL_Driver/Src/stm32l1xx_hal_dma.c **** 
 1098              		.loc 1 663 5 view .LVU395
 663:Drivers/STM32L1xx_HAL_Driver/Src/stm32l1xx_hal_dma.c **** 
 1099              		.loc 1 663 56 is_stmt 0 view .LVU396
 1100 009e 036C     		ldr	r3, [r0, #64]
 663:Drivers/STM32L1xx_HAL_Driver/Src/stm32l1xx_hal_dma.c **** 
 1101              		.loc 1 663 71 view .LVU397
 1102 00a0 03F01C03 		and	r3, r3, #28
 663:Drivers/STM32L1xx_HAL_Driver/Src/stm32l1xx_hal_dma.c **** 
 1103              		.loc 1 663 9 view .LVU398
 1104 00a4 C16B     		ldr	r1, [r0, #60]
 1105              	.LVL69:
 663:Drivers/STM32L1xx_HAL_Driver/Src/stm32l1xx_hal_dma.c **** 
 1106              		.loc 1 663 48 view .LVU399
 1107 00a6 0122     		movs	r2, #1
 1108 00a8 02FA03F3 		lsl	r3, r2, r3
 663:Drivers/STM32L1xx_HAL_Driver/Src/stm32l1xx_hal_dma.c **** 
 1109              		.loc 1 663 32 view .LVU400
 1110 00ac 4B60     		str	r3, [r1, #4]
 666:Drivers/STM32L1xx_HAL_Driver/Src/stm32l1xx_hal_dma.c **** 
 1111              		.loc 1 666 5 is_stmt 1 view .LVU401
 666:Drivers/STM32L1xx_HAL_Driver/Src/stm32l1xx_hal_dma.c **** 
 1112              		.loc 1 666 21 is_stmt 0 view .LVU402
 1113 00ae 8263     		str	r2, [r0, #56]
 669:Drivers/STM32L1xx_HAL_Driver/Src/stm32l1xx_hal_dma.c **** 
 1114              		.loc 1 669 5 is_stmt 1 view .LVU403
 669:Drivers/STM32L1xx_HAL_Driver/Src/stm32l1xx_hal_dma.c **** 
 1115              		.loc 1 669 17 is_stmt 0 view .LVU404
 1116 00b0 80F82120 		strb	r2, [r0, #33]
 672:Drivers/STM32L1xx_HAL_Driver/Src/stm32l1xx_hal_dma.c **** 
 1117              		.loc 1 672 5 is_stmt 1 view .LVU405
 672:Drivers/STM32L1xx_HAL_Driver/Src/stm32l1xx_hal_dma.c **** 
 1118              		.loc 1 672 5 view .LVU406
 1119 00b4 0023     		movs	r3, #0
 1120 00b6 80F82030 		strb	r3, [r0, #32]
 672:Drivers/STM32L1xx_HAL_Driver/Src/stm32l1xx_hal_dma.c **** 
 1121              		.loc 1 672 5 view .LVU407
 674:Drivers/STM32L1xx_HAL_Driver/Src/stm32l1xx_hal_dma.c ****     {
 1122              		.loc 1 674 5 view .LVU408
 674:Drivers/STM32L1xx_HAL_Driver/Src/stm32l1xx_hal_dma.c ****     {
 1123              		.loc 1 674 13 is_stmt 0 view .LVU409
 1124 00ba 036B     		ldr	r3, [r0, #48]
 674:Drivers/STM32L1xx_HAL_Driver/Src/stm32l1xx_hal_dma.c ****     {
 1125              		.loc 1 674 8 view .LVU410
 1126 00bc 002B     		cmp	r3, #0
 1127 00be C0D0     		beq	.L59
 677:Drivers/STM32L1xx_HAL_Driver/Src/stm32l1xx_hal_dma.c ****     }
 1128              		.loc 1 677 7 is_stmt 1 view .LVU411
 1129 00c0 9847     		blx	r3
ARM GAS  /tmp/cc6rMAp7.s 			page 43


 1130              	.LVL70:
 683:Drivers/STM32L1xx_HAL_Driver/Src/stm32l1xx_hal_dma.c ****   return;
 1131              		.loc 1 683 3 view .LVU412
 684:Drivers/STM32L1xx_HAL_Driver/Src/stm32l1xx_hal_dma.c **** }
 1132              		.loc 1 684 3 view .LVU413
 1133 00c2 BEE7     		b	.L59
 1134              		.cfi_endproc
 1135              	.LFE79:
 1137              		.section	.text.HAL_DMA_RegisterCallback,"ax",%progbits
 1138              		.align	1
 1139              		.global	HAL_DMA_RegisterCallback
 1140              		.syntax unified
 1141              		.thumb
 1142              		.thumb_func
 1144              	HAL_DMA_RegisterCallback:
 1145              	.LVL71:
 1146              	.LFB80:
 698:Drivers/STM32L1xx_HAL_Driver/Src/stm32l1xx_hal_dma.c ****   HAL_StatusTypeDef status = HAL_OK;
 1147              		.loc 1 698 1 view -0
 1148              		.cfi_startproc
 1149              		@ args = 0, pretend = 0, frame = 0
 1150              		@ frame_needed = 0, uses_anonymous_args = 0
 1151              		@ link register save eliminated.
 698:Drivers/STM32L1xx_HAL_Driver/Src/stm32l1xx_hal_dma.c ****   HAL_StatusTypeDef status = HAL_OK;
 1152              		.loc 1 698 1 is_stmt 0 view .LVU415
 1153 0000 0346     		mov	r3, r0
 699:Drivers/STM32L1xx_HAL_Driver/Src/stm32l1xx_hal_dma.c **** 
 1154              		.loc 1 699 3 is_stmt 1 view .LVU416
 1155              	.LVL72:
 702:Drivers/STM32L1xx_HAL_Driver/Src/stm32l1xx_hal_dma.c **** 
 1156              		.loc 1 702 3 view .LVU417
 702:Drivers/STM32L1xx_HAL_Driver/Src/stm32l1xx_hal_dma.c **** 
 1157              		.loc 1 702 3 view .LVU418
 1158 0002 90F82000 		ldrb	r0, [r0, #32]	@ zero_extendqisi2
 1159              	.LVL73:
 702:Drivers/STM32L1xx_HAL_Driver/Src/stm32l1xx_hal_dma.c **** 
 1160              		.loc 1 702 3 is_stmt 0 view .LVU419
 1161 0006 0128     		cmp	r0, #1
 1162 0008 1ED0     		beq	.L74
 702:Drivers/STM32L1xx_HAL_Driver/Src/stm32l1xx_hal_dma.c **** 
 1163              		.loc 1 702 3 is_stmt 1 discriminator 2 view .LVU420
 1164 000a 0120     		movs	r0, #1
 1165 000c 83F82000 		strb	r0, [r3, #32]
 702:Drivers/STM32L1xx_HAL_Driver/Src/stm32l1xx_hal_dma.c **** 
 1166              		.loc 1 702 3 discriminator 2 view .LVU421
 704:Drivers/STM32L1xx_HAL_Driver/Src/stm32l1xx_hal_dma.c ****   {
 1167              		.loc 1 704 3 discriminator 2 view .LVU422
 704:Drivers/STM32L1xx_HAL_Driver/Src/stm32l1xx_hal_dma.c ****   {
 1168              		.loc 1 704 33 is_stmt 0 discriminator 2 view .LVU423
 1169 0010 93F82100 		ldrb	r0, [r3, #33]	@ zero_extendqisi2
 1170 0014 C0B2     		uxtb	r0, r0
 704:Drivers/STM32L1xx_HAL_Driver/Src/stm32l1xx_hal_dma.c ****   {
 1171              		.loc 1 704 5 discriminator 2 view .LVU424
 1172 0016 0128     		cmp	r0, #1
 1173 0018 04D0     		beq	.L76
 731:Drivers/STM32L1xx_HAL_Driver/Src/stm32l1xx_hal_dma.c ****   }
 1174              		.loc 1 731 12 view .LVU425
ARM GAS  /tmp/cc6rMAp7.s 			page 44


 1175 001a 0120     		movs	r0, #1
 1176              	.L68:
 1177              	.LVL74:
 735:Drivers/STM32L1xx_HAL_Driver/Src/stm32l1xx_hal_dma.c **** 
 1178              		.loc 1 735 3 is_stmt 1 view .LVU426
 735:Drivers/STM32L1xx_HAL_Driver/Src/stm32l1xx_hal_dma.c **** 
 1179              		.loc 1 735 3 view .LVU427
 1180 001c 0022     		movs	r2, #0
 1181              	.LVL75:
 735:Drivers/STM32L1xx_HAL_Driver/Src/stm32l1xx_hal_dma.c **** 
 1182              		.loc 1 735 3 is_stmt 0 view .LVU428
 1183 001e 83F82020 		strb	r2, [r3, #32]
 735:Drivers/STM32L1xx_HAL_Driver/Src/stm32l1xx_hal_dma.c **** 
 1184              		.loc 1 735 3 is_stmt 1 view .LVU429
 737:Drivers/STM32L1xx_HAL_Driver/Src/stm32l1xx_hal_dma.c **** }
 1185              		.loc 1 737 3 view .LVU430
 737:Drivers/STM32L1xx_HAL_Driver/Src/stm32l1xx_hal_dma.c **** }
 1186              		.loc 1 737 10 is_stmt 0 view .LVU431
 1187 0022 7047     		bx	lr
 1188              	.LVL76:
 1189              	.L76:
 706:Drivers/STM32L1xx_HAL_Driver/Src/stm32l1xx_hal_dma.c ****     {
 1190              		.loc 1 706 5 is_stmt 1 view .LVU432
 1191 0024 0329     		cmp	r1, #3
 1192 0026 F9D8     		bhi	.L68
 1193 0028 DFE801F0 		tbb	[pc, r1]
 1194              	.L70:
 1195 002c 02       		.byte	(.L73-.L70)/2
 1196 002d 05       		.byte	(.L72-.L70)/2
 1197 002e 08       		.byte	(.L71-.L70)/2
 1198 002f 0B       		.byte	(.L69-.L70)/2
 1199              		.p2align 1
 1200              	.L73:
 709:Drivers/STM32L1xx_HAL_Driver/Src/stm32l1xx_hal_dma.c ****            break;
 1201              		.loc 1 709 12 view .LVU433
 709:Drivers/STM32L1xx_HAL_Driver/Src/stm32l1xx_hal_dma.c ****            break;
 1202              		.loc 1 709 35 is_stmt 0 view .LVU434
 1203 0030 9A62     		str	r2, [r3, #40]
 710:Drivers/STM32L1xx_HAL_Driver/Src/stm32l1xx_hal_dma.c **** 
 1204              		.loc 1 710 12 is_stmt 1 view .LVU435
 699:Drivers/STM32L1xx_HAL_Driver/Src/stm32l1xx_hal_dma.c **** 
 1205              		.loc 1 699 21 is_stmt 0 view .LVU436
 1206 0032 0846     		mov	r0, r1
 710:Drivers/STM32L1xx_HAL_Driver/Src/stm32l1xx_hal_dma.c **** 
 1207              		.loc 1 710 12 view .LVU437
 1208 0034 F2E7     		b	.L68
 1209              	.L72:
 713:Drivers/STM32L1xx_HAL_Driver/Src/stm32l1xx_hal_dma.c ****            break;
 1210              		.loc 1 713 12 is_stmt 1 view .LVU438
 713:Drivers/STM32L1xx_HAL_Driver/Src/stm32l1xx_hal_dma.c ****            break;
 1211              		.loc 1 713 39 is_stmt 0 view .LVU439
 1212 0036 DA62     		str	r2, [r3, #44]
 714:Drivers/STM32L1xx_HAL_Driver/Src/stm32l1xx_hal_dma.c **** 
 1213              		.loc 1 714 12 is_stmt 1 view .LVU440
 699:Drivers/STM32L1xx_HAL_Driver/Src/stm32l1xx_hal_dma.c **** 
 1214              		.loc 1 699 21 is_stmt 0 view .LVU441
 1215 0038 0020     		movs	r0, #0
ARM GAS  /tmp/cc6rMAp7.s 			page 45


 714:Drivers/STM32L1xx_HAL_Driver/Src/stm32l1xx_hal_dma.c **** 
 1216              		.loc 1 714 12 view .LVU442
 1217 003a EFE7     		b	.L68
 1218              	.L71:
 717:Drivers/STM32L1xx_HAL_Driver/Src/stm32l1xx_hal_dma.c ****            break;
 1219              		.loc 1 717 12 is_stmt 1 view .LVU443
 717:Drivers/STM32L1xx_HAL_Driver/Src/stm32l1xx_hal_dma.c ****            break;
 1220              		.loc 1 717 36 is_stmt 0 view .LVU444
 1221 003c 1A63     		str	r2, [r3, #48]
 718:Drivers/STM32L1xx_HAL_Driver/Src/stm32l1xx_hal_dma.c **** 
 1222              		.loc 1 718 12 is_stmt 1 view .LVU445
 699:Drivers/STM32L1xx_HAL_Driver/Src/stm32l1xx_hal_dma.c **** 
 1223              		.loc 1 699 21 is_stmt 0 view .LVU446
 1224 003e 0020     		movs	r0, #0
 718:Drivers/STM32L1xx_HAL_Driver/Src/stm32l1xx_hal_dma.c **** 
 1225              		.loc 1 718 12 view .LVU447
 1226 0040 ECE7     		b	.L68
 1227              	.L69:
 721:Drivers/STM32L1xx_HAL_Driver/Src/stm32l1xx_hal_dma.c ****            break;
 1228              		.loc 1 721 12 is_stmt 1 view .LVU448
 721:Drivers/STM32L1xx_HAL_Driver/Src/stm32l1xx_hal_dma.c ****            break;
 1229              		.loc 1 721 36 is_stmt 0 view .LVU449
 1230 0042 5A63     		str	r2, [r3, #52]
 722:Drivers/STM32L1xx_HAL_Driver/Src/stm32l1xx_hal_dma.c **** 
 1231              		.loc 1 722 12 is_stmt 1 view .LVU450
 699:Drivers/STM32L1xx_HAL_Driver/Src/stm32l1xx_hal_dma.c **** 
 1232              		.loc 1 699 21 is_stmt 0 view .LVU451
 1233 0044 0020     		movs	r0, #0
 722:Drivers/STM32L1xx_HAL_Driver/Src/stm32l1xx_hal_dma.c **** 
 1234              		.loc 1 722 12 view .LVU452
 1235 0046 E9E7     		b	.L68
 1236              	.L74:
 702:Drivers/STM32L1xx_HAL_Driver/Src/stm32l1xx_hal_dma.c **** 
 1237              		.loc 1 702 3 view .LVU453
 1238 0048 0220     		movs	r0, #2
 738:Drivers/STM32L1xx_HAL_Driver/Src/stm32l1xx_hal_dma.c **** 
 1239              		.loc 1 738 1 view .LVU454
 1240 004a 7047     		bx	lr
 1241              		.cfi_endproc
 1242              	.LFE80:
 1244              		.section	.text.HAL_DMA_UnRegisterCallback,"ax",%progbits
 1245              		.align	1
 1246              		.global	HAL_DMA_UnRegisterCallback
 1247              		.syntax unified
 1248              		.thumb
 1249              		.thumb_func
 1251              	HAL_DMA_UnRegisterCallback:
 1252              	.LVL77:
 1253              	.LFB81:
 749:Drivers/STM32L1xx_HAL_Driver/Src/stm32l1xx_hal_dma.c ****   HAL_StatusTypeDef status = HAL_OK;
 1254              		.loc 1 749 1 is_stmt 1 view -0
 1255              		.cfi_startproc
 1256              		@ args = 0, pretend = 0, frame = 0
 1257              		@ frame_needed = 0, uses_anonymous_args = 0
 1258              		@ link register save eliminated.
 749:Drivers/STM32L1xx_HAL_Driver/Src/stm32l1xx_hal_dma.c ****   HAL_StatusTypeDef status = HAL_OK;
 1259              		.loc 1 749 1 is_stmt 0 view .LVU456
ARM GAS  /tmp/cc6rMAp7.s 			page 46


 1260 0000 0346     		mov	r3, r0
 750:Drivers/STM32L1xx_HAL_Driver/Src/stm32l1xx_hal_dma.c **** 
 1261              		.loc 1 750 3 is_stmt 1 view .LVU457
 1262              	.LVL78:
 753:Drivers/STM32L1xx_HAL_Driver/Src/stm32l1xx_hal_dma.c **** 
 1263              		.loc 1 753 3 view .LVU458
 753:Drivers/STM32L1xx_HAL_Driver/Src/stm32l1xx_hal_dma.c **** 
 1264              		.loc 1 753 3 view .LVU459
 1265 0002 90F82020 		ldrb	r2, [r0, #32]	@ zero_extendqisi2
 1266 0006 012A     		cmp	r2, #1
 1267 0008 26D0     		beq	.L86
 753:Drivers/STM32L1xx_HAL_Driver/Src/stm32l1xx_hal_dma.c **** 
 1268              		.loc 1 753 3 discriminator 2 view .LVU460
 1269 000a 0122     		movs	r2, #1
 1270 000c 80F82020 		strb	r2, [r0, #32]
 753:Drivers/STM32L1xx_HAL_Driver/Src/stm32l1xx_hal_dma.c **** 
 1271              		.loc 1 753 3 discriminator 2 view .LVU461
 755:Drivers/STM32L1xx_HAL_Driver/Src/stm32l1xx_hal_dma.c ****   {
 1272              		.loc 1 755 3 discriminator 2 view .LVU462
 755:Drivers/STM32L1xx_HAL_Driver/Src/stm32l1xx_hal_dma.c ****   {
 1273              		.loc 1 755 33 is_stmt 0 discriminator 2 view .LVU463
 1274 0010 90F82100 		ldrb	r0, [r0, #33]	@ zero_extendqisi2
 1275              	.LVL79:
 755:Drivers/STM32L1xx_HAL_Driver/Src/stm32l1xx_hal_dma.c ****   {
 1276              		.loc 1 755 33 discriminator 2 view .LVU464
 1277 0014 C0B2     		uxtb	r0, r0
 755:Drivers/STM32L1xx_HAL_Driver/Src/stm32l1xx_hal_dma.c ****   {
 1278              		.loc 1 755 5 discriminator 2 view .LVU465
 1279 0016 9042     		cmp	r0, r2
 1280 0018 04D0     		beq	.L88
 789:Drivers/STM32L1xx_HAL_Driver/Src/stm32l1xx_hal_dma.c ****   }
 1281              		.loc 1 789 12 view .LVU466
 1282 001a 0120     		movs	r0, #1
 1283              	.L79:
 1284              	.LVL80:
 793:Drivers/STM32L1xx_HAL_Driver/Src/stm32l1xx_hal_dma.c **** 
 1285              		.loc 1 793 3 is_stmt 1 view .LVU467
 793:Drivers/STM32L1xx_HAL_Driver/Src/stm32l1xx_hal_dma.c **** 
 1286              		.loc 1 793 3 view .LVU468
 1287 001c 0022     		movs	r2, #0
 1288 001e 83F82020 		strb	r2, [r3, #32]
 793:Drivers/STM32L1xx_HAL_Driver/Src/stm32l1xx_hal_dma.c **** 
 1289              		.loc 1 793 3 view .LVU469
 795:Drivers/STM32L1xx_HAL_Driver/Src/stm32l1xx_hal_dma.c **** }
 1290              		.loc 1 795 3 view .LVU470
 795:Drivers/STM32L1xx_HAL_Driver/Src/stm32l1xx_hal_dma.c **** }
 1291              		.loc 1 795 10 is_stmt 0 view .LVU471
 1292 0022 7047     		bx	lr
 1293              	.LVL81:
 1294              	.L88:
 757:Drivers/STM32L1xx_HAL_Driver/Src/stm32l1xx_hal_dma.c ****     {
 1295              		.loc 1 757 5 is_stmt 1 view .LVU472
 1296 0024 0429     		cmp	r1, #4
 1297 0026 F9D8     		bhi	.L79
 1298 0028 DFE801F0 		tbb	[pc, r1]
 1299              	.L81:
 1300 002c 03       		.byte	(.L85-.L81)/2
ARM GAS  /tmp/cc6rMAp7.s 			page 47


 1301 002d 07       		.byte	(.L84-.L81)/2
 1302 002e 0A       		.byte	(.L83-.L81)/2
 1303 002f 0D       		.byte	(.L82-.L81)/2
 1304 0030 10       		.byte	(.L80-.L81)/2
 1305 0031 00       		.p2align 1
 1306              	.L85:
 760:Drivers/STM32L1xx_HAL_Driver/Src/stm32l1xx_hal_dma.c ****            break;
 1307              		.loc 1 760 12 view .LVU473
 760:Drivers/STM32L1xx_HAL_Driver/Src/stm32l1xx_hal_dma.c ****            break;
 1308              		.loc 1 760 35 is_stmt 0 view .LVU474
 1309 0032 0022     		movs	r2, #0
 1310 0034 9A62     		str	r2, [r3, #40]
 761:Drivers/STM32L1xx_HAL_Driver/Src/stm32l1xx_hal_dma.c **** 
 1311              		.loc 1 761 12 is_stmt 1 view .LVU475
 750:Drivers/STM32L1xx_HAL_Driver/Src/stm32l1xx_hal_dma.c **** 
 1312              		.loc 1 750 21 is_stmt 0 view .LVU476
 1313 0036 0846     		mov	r0, r1
 761:Drivers/STM32L1xx_HAL_Driver/Src/stm32l1xx_hal_dma.c **** 
 1314              		.loc 1 761 12 view .LVU477
 1315 0038 F0E7     		b	.L79
 1316              	.L84:
 764:Drivers/STM32L1xx_HAL_Driver/Src/stm32l1xx_hal_dma.c ****            break;
 1317              		.loc 1 764 12 is_stmt 1 view .LVU478
 764:Drivers/STM32L1xx_HAL_Driver/Src/stm32l1xx_hal_dma.c ****            break;
 1318              		.loc 1 764 39 is_stmt 0 view .LVU479
 1319 003a 0020     		movs	r0, #0
 1320 003c D862     		str	r0, [r3, #44]
 765:Drivers/STM32L1xx_HAL_Driver/Src/stm32l1xx_hal_dma.c **** 
 1321              		.loc 1 765 12 is_stmt 1 view .LVU480
 1322 003e EDE7     		b	.L79
 1323              	.L83:
 768:Drivers/STM32L1xx_HAL_Driver/Src/stm32l1xx_hal_dma.c ****            break;
 1324              		.loc 1 768 12 view .LVU481
 768:Drivers/STM32L1xx_HAL_Driver/Src/stm32l1xx_hal_dma.c ****            break;
 1325              		.loc 1 768 36 is_stmt 0 view .LVU482
 1326 0040 0020     		movs	r0, #0
 1327 0042 1863     		str	r0, [r3, #48]
 769:Drivers/STM32L1xx_HAL_Driver/Src/stm32l1xx_hal_dma.c **** 
 1328              		.loc 1 769 12 is_stmt 1 view .LVU483
 1329 0044 EAE7     		b	.L79
 1330              	.L82:
 772:Drivers/STM32L1xx_HAL_Driver/Src/stm32l1xx_hal_dma.c ****            break;
 1331              		.loc 1 772 12 view .LVU484
 772:Drivers/STM32L1xx_HAL_Driver/Src/stm32l1xx_hal_dma.c ****            break;
 1332              		.loc 1 772 36 is_stmt 0 view .LVU485
 1333 0046 0020     		movs	r0, #0
 1334 0048 5863     		str	r0, [r3, #52]
 773:Drivers/STM32L1xx_HAL_Driver/Src/stm32l1xx_hal_dma.c **** 
 1335              		.loc 1 773 12 is_stmt 1 view .LVU486
 1336 004a E7E7     		b	.L79
 1337              	.L80:
 776:Drivers/STM32L1xx_HAL_Driver/Src/stm32l1xx_hal_dma.c ****            hdma->XferHalfCpltCallback = NULL;
 1338              		.loc 1 776 12 view .LVU487
 776:Drivers/STM32L1xx_HAL_Driver/Src/stm32l1xx_hal_dma.c ****            hdma->XferHalfCpltCallback = NULL;
 1339              		.loc 1 776 35 is_stmt 0 view .LVU488
 1340 004c 0020     		movs	r0, #0
 1341 004e 9862     		str	r0, [r3, #40]
ARM GAS  /tmp/cc6rMAp7.s 			page 48


 777:Drivers/STM32L1xx_HAL_Driver/Src/stm32l1xx_hal_dma.c ****            hdma->XferErrorCallback = NULL;
 1342              		.loc 1 777 12 is_stmt 1 view .LVU489
 777:Drivers/STM32L1xx_HAL_Driver/Src/stm32l1xx_hal_dma.c ****            hdma->XferErrorCallback = NULL;
 1343              		.loc 1 777 39 is_stmt 0 view .LVU490
 1344 0050 D862     		str	r0, [r3, #44]
 778:Drivers/STM32L1xx_HAL_Driver/Src/stm32l1xx_hal_dma.c ****            hdma->XferAbortCallback = NULL;
 1345              		.loc 1 778 12 is_stmt 1 view .LVU491
 778:Drivers/STM32L1xx_HAL_Driver/Src/stm32l1xx_hal_dma.c ****            hdma->XferAbortCallback = NULL;
 1346              		.loc 1 778 36 is_stmt 0 view .LVU492
 1347 0052 1863     		str	r0, [r3, #48]
 779:Drivers/STM32L1xx_HAL_Driver/Src/stm32l1xx_hal_dma.c ****            break;
 1348              		.loc 1 779 12 is_stmt 1 view .LVU493
 779:Drivers/STM32L1xx_HAL_Driver/Src/stm32l1xx_hal_dma.c ****            break;
 1349              		.loc 1 779 36 is_stmt 0 view .LVU494
 1350 0054 5863     		str	r0, [r3, #52]
 780:Drivers/STM32L1xx_HAL_Driver/Src/stm32l1xx_hal_dma.c **** 
 1351              		.loc 1 780 12 is_stmt 1 view .LVU495
 1352 0056 E1E7     		b	.L79
 1353              	.LVL82:
 1354              	.L86:
 753:Drivers/STM32L1xx_HAL_Driver/Src/stm32l1xx_hal_dma.c **** 
 1355              		.loc 1 753 3 is_stmt 0 view .LVU496
 1356 0058 0220     		movs	r0, #2
 1357              	.LVL83:
 796:Drivers/STM32L1xx_HAL_Driver/Src/stm32l1xx_hal_dma.c **** 
 1358              		.loc 1 796 1 view .LVU497
 1359 005a 7047     		bx	lr
 1360              		.cfi_endproc
 1361              	.LFE81:
 1363              		.section	.text.HAL_DMA_GetState,"ax",%progbits
 1364              		.align	1
 1365              		.global	HAL_DMA_GetState
 1366              		.syntax unified
 1367              		.thumb
 1368              		.thumb_func
 1370              	HAL_DMA_GetState:
 1371              	.LVL84:
 1372              	.LFB82:
 827:Drivers/STM32L1xx_HAL_Driver/Src/stm32l1xx_hal_dma.c ****   /* Return DMA handle state */
 1373              		.loc 1 827 1 is_stmt 1 view -0
 1374              		.cfi_startproc
 1375              		@ args = 0, pretend = 0, frame = 0
 1376              		@ frame_needed = 0, uses_anonymous_args = 0
 1377              		@ link register save eliminated.
 829:Drivers/STM32L1xx_HAL_Driver/Src/stm32l1xx_hal_dma.c **** }
 1378              		.loc 1 829 3 view .LVU499
 829:Drivers/STM32L1xx_HAL_Driver/Src/stm32l1xx_hal_dma.c **** }
 1379              		.loc 1 829 14 is_stmt 0 view .LVU500
 1380 0000 90F82100 		ldrb	r0, [r0, #33]	@ zero_extendqisi2
 1381              	.LVL85:
 830:Drivers/STM32L1xx_HAL_Driver/Src/stm32l1xx_hal_dma.c **** 
 1382              		.loc 1 830 1 view .LVU501
 1383 0004 7047     		bx	lr
 1384              		.cfi_endproc
 1385              	.LFE82:
 1387              		.section	.text.HAL_DMA_GetError,"ax",%progbits
 1388              		.align	1
ARM GAS  /tmp/cc6rMAp7.s 			page 49


 1389              		.global	HAL_DMA_GetError
 1390              		.syntax unified
 1391              		.thumb
 1392              		.thumb_func
 1394              	HAL_DMA_GetError:
 1395              	.LVL86:
 1396              	.LFB83:
 839:Drivers/STM32L1xx_HAL_Driver/Src/stm32l1xx_hal_dma.c ****   return hdma->ErrorCode;
 1397              		.loc 1 839 1 is_stmt 1 view -0
 1398              		.cfi_startproc
 1399              		@ args = 0, pretend = 0, frame = 0
 1400              		@ frame_needed = 0, uses_anonymous_args = 0
 1401              		@ link register save eliminated.
 840:Drivers/STM32L1xx_HAL_Driver/Src/stm32l1xx_hal_dma.c **** }
 1402              		.loc 1 840 3 view .LVU503
 840:Drivers/STM32L1xx_HAL_Driver/Src/stm32l1xx_hal_dma.c **** }
 1403              		.loc 1 840 14 is_stmt 0 view .LVU504
 1404 0000 806B     		ldr	r0, [r0, #56]
 1405              	.LVL87:
 841:Drivers/STM32L1xx_HAL_Driver/Src/stm32l1xx_hal_dma.c **** 
 1406              		.loc 1 841 1 view .LVU505
 1407 0002 7047     		bx	lr
 1408              		.cfi_endproc
 1409              	.LFE83:
 1411              		.text
 1412              	.Letext0:
 1413              		.file 2 "/home/arashamf/soft/ARM_toolchains/gcc-arm-none-eabi-10.3-2021.10/arm-none-eabi/include/m
 1414              		.file 3 "/home/arashamf/soft/ARM_toolchains/gcc-arm-none-eabi-10.3-2021.10/arm-none-eabi/include/s
 1415              		.file 4 "Drivers/CMSIS/Device/ST/STM32L1xx/Include/stm32l151xb.h"
 1416              		.file 5 "Drivers/STM32L1xx_HAL_Driver/Inc/stm32l1xx_hal_def.h"
 1417              		.file 6 "Drivers/STM32L1xx_HAL_Driver/Inc/stm32l1xx_hal_dma.h"
 1418              		.file 7 "Drivers/STM32L1xx_HAL_Driver/Inc/stm32l1xx_hal.h"
ARM GAS  /tmp/cc6rMAp7.s 			page 50

