ARM GAS  /tmp/ccRvBgNS.s 			page 1


   1              		.cpu cortex-m3
   2              		.arch armv7-m
   3              		.fpu softvfp
   4              		.eabi_attribute 20, 1
   5              		.eabi_attribute 21, 1
   6              		.eabi_attribute 23, 3
   7              		.eabi_attribute 24, 1
   8              		.eabi_attribute 25, 1
   9              		.eabi_attribute 26, 1
  10              		.eabi_attribute 30, 1
  11              		.eabi_attribute 34, 1
  12              		.eabi_attribute 18, 4
  13              		.file	"time_protocol.c"
  14              		.text
  15              	.Ltext0:
  16              		.cfi_sections	.debug_frame
  17              		.section	.text.calc_CRC8,"ax",%progbits
  18              		.align	1
  19              		.syntax unified
  20              		.thumb
  21              		.thumb_func
  23              	calc_CRC8:
  24              	.LVL0:
  25              	.LFB820:
  26              		.file 1 "IO_drivers/time_protocol.c"
   1:IO_drivers/time_protocol.c **** //Includes -------------------------------------------------------------------------//
   2:IO_drivers/time_protocol.c **** #include "time_protocol.h"
   3:IO_drivers/time_protocol.c **** #include "typedef.h"
   4:IO_drivers/time_protocol.c **** #include "usart.h"
   5:IO_drivers/time_protocol.c **** #include <stdio.h>
   6:IO_drivers/time_protocol.c **** #include "rtc.h"
   7:IO_drivers/time_protocol.c **** 
   8:IO_drivers/time_protocol.c **** //variables-------------------------------------------------------------------------//
   9:IO_drivers/time_protocol.c **** UART_msg_t UART_msg ; //—Å—Ç—Ä—É–∫—Ç—É—Ä–∞ –Ω–µ–æ–±—Ö–æ–¥–∏–º–∞—è –¥–ª—è –ø–∞—Ä—Å–∏–Ω–≥–∞ –ø–æ–ª—É—
  10:IO_drivers/time_protocol.c **** uint8_t * ptr_PDTmsg = UART_msg.PDT_struct.raw_bytes; //—É–∫–∞–∑–∞—Ç–µ–ª—å –Ω–∞ –±—É—Ñ–µ—Ä —Å "—Å—ã
  11:IO_drivers/time_protocol.c **** uint32_t TimeUART = 0; //UNIX-–≤—Ä–µ–º—è –ø–æ–ª—É—á–µ–Ω–Ω–æ–µ –∏–∑ PDT —Å–æ–æ–±—â–µ–Ω–∏—è
  12:IO_drivers/time_protocol.c **** RING_buffer_t RING_buffer; //—Å—Ç—Ä—É–∫—Ç—É—Ä–∞ —Å –∫–æ–ª—å—Ü–µ–≤—ã–º –±—É—Ñ—Ñ–µ—Ä–æ–º
  13:IO_drivers/time_protocol.c **** 
  14:IO_drivers/time_protocol.c **** //prototypes-----------------------------------------------------------------------//
  15:IO_drivers/time_protocol.c **** static uint8_t calc_CRC8 (uint8_t * );
  16:IO_drivers/time_protocol.c **** static uint32_t  calcUNIXtime_from_PDTmsg (uint8_t * );
  17:IO_drivers/time_protocol.c **** 
  18:IO_drivers/time_protocol.c **** //---------------------------------------------------------------------------------//
  19:IO_drivers/time_protocol.c **** void PutCharRingBuf(char smb)
  20:IO_drivers/time_protocol.c **** {
  21:IO_drivers/time_protocol.c ****   RING_Put(&RING_buffer, smb); //–æ—Ç–ø—Ä–∞–≤–∫–∞ –±–∞–π—Ç–∞ –≤ –∫–æ–ª—å—Ü–µ–≤–æ–π –±—É—Ñ—Ñ–µ—Ä
  22:IO_drivers/time_protocol.c **** }
  23:IO_drivers/time_protocol.c **** 
  24:IO_drivers/time_protocol.c **** //---------------------------------------------------------------------------------//
  25:IO_drivers/time_protocol.c **** void UARTbuf_init (void)
  26:IO_drivers/time_protocol.c **** {
  27:IO_drivers/time_protocol.c ****   UART_msg.machine_state = __START_BYTE;
  28:IO_drivers/time_protocol.c ****   RING_Init (&RING_buffer, returnPtrUARTbuf(), BUFFER_SIZE); //–∏–Ω–∏—Ü–∏–∞–ª–∏–∑–∞—Ü–∏—è –∫–æ–ª—å—
  29:IO_drivers/time_protocol.c ****   UART_msg.ptr_RINGbuff = &RING_buffer;
  30:IO_drivers/time_protocol.c ****   ptr_PDTmsg[0]=  '$';
  31:IO_drivers/time_protocol.c ****   ptr_PDTmsg[1]=  'P';
  32:IO_drivers/time_protocol.c ****   ptr_PDTmsg[2]=  'D';
ARM GAS  /tmp/ccRvBgNS.s 			page 2


  33:IO_drivers/time_protocol.c ****   ptr_PDTmsg[3]=  'T';
  34:IO_drivers/time_protocol.c ****   ptr_PDTmsg[4]=  ',';
  35:IO_drivers/time_protocol.c ****   ptr_PDTmsg[5]=  '1';
  36:IO_drivers/time_protocol.c ****   ptr_PDTmsg[6]=  ',';
  37:IO_drivers/time_protocol.c ****   ptr_PDTmsg[15]= '*';
  38:IO_drivers/time_protocol.c **** }
  39:IO_drivers/time_protocol.c **** 
  40:IO_drivers/time_protocol.c **** //------------------------------–ø—Ä–æ–≤–µ—Ä–∫–∞ —Å–æ—Å—Ç–æ—è–Ω–∏–µ –±—É—Ñ—Ñ–µ—Ä–∞ UART–∞----------
  41:IO_drivers/time_protocol.c **** uint8_t check_ring_buffer (void)
  42:IO_drivers/time_protocol.c **** {
  43:IO_drivers/time_protocol.c ****     uint8_t buffer_status =  NO_MSG;
  44:IO_drivers/time_protocol.c ****     uint8_t CRC8 = 0; //–ø–µ—Ä–µ–º–µ–Ω–Ω–∞—è –¥–ª—è —Ö—Ä–∞–Ω–µ–Ω–∏—è CRC
  45:IO_drivers/time_protocol.c ****     static uint8_t count  = 0; //—Å—á—ë—Ç—á–∏–∫ –ø—Ä–∏–Ω—è—Ç—ã—Ö –±–∞–π—Ç–æ–≤ —Ç–µ–ª–∞ —Å–æ–æ–±—â–µ
  46:IO_drivers/time_protocol.c ****     static uint8_t divider = 0x10; //–¥–µ–ª–∏—Ç–µ–ª—å –¥–ª—è –ø–µ—Ä–µ–≤–æ–¥–∞ –≤ 16—á–Ω—ã–π —Ñ–æ—Ä–
  47:IO_drivers/time_protocol.c ****     uint8_t byte; //–ø–æ–ª—É—á–µ–Ω–Ω—ã–π –∏–∑ –∫–æ–ª—å—Ü–µ–≤–æ–≥–æ –±—É—Ñ—Ñ–µ—Ä–∞ –±–∞–π—Ç
  48:IO_drivers/time_protocol.c **** 
  49:IO_drivers/time_protocol.c ****     if (RING_GetCount(UART_msg.ptr_RINGbuff) > 0)
  50:IO_drivers/time_protocol.c ****     {
  51:IO_drivers/time_protocol.c ****       byte = RING_Pop(UART_msg.ptr_RINGbuff);
  52:IO_drivers/time_protocol.c ****       switch (UART_msg.machine_state) //–ø—Ä–æ–≤–µ—Ä–∫–∞ —Å—Ç–∞–¥–∏–∏ –ø–æ–ª—É—á–µ–Ω–∏—è —Å–æ–æ–±—â
  53:IO_drivers/time_protocol.c **** 		  { 
  54:IO_drivers/time_protocol.c ****         case __START_BYTE: 
  55:IO_drivers/time_protocol.c ****           if ( byte == ptr_PDTmsg[0]) //–µ—Å–ª–∏ –ø–æ–ª—É—á–µ–Ω–Ω—ã–π —Å–∏–º–≤–æ–ª —Ä–∞–≤–µ–Ω '$' 
  56:IO_drivers/time_protocol.c **** 					{ UART_msg.machine_state = __SYNC_WORD1;  }
  57:IO_drivers/time_protocol.c **** 				break;
  58:IO_drivers/time_protocol.c **** 
  59:IO_drivers/time_protocol.c ****         case __SYNC_WORD1: 
  60:IO_drivers/time_protocol.c ****           if ( byte == ptr_PDTmsg[1]) //–µ—Å–ª–∏ –ø–æ–ª—É—á–µ–Ω–Ω—ã–π —Å–∏–º–≤–æ–ª —Ä–∞–≤–µ–Ω 'P' 
  61:IO_drivers/time_protocol.c **** 					{ UART_msg.machine_state = __SYNC_WORD2;  }
  62:IO_drivers/time_protocol.c ****           else
  63:IO_drivers/time_protocol.c ****           { UART_msg.machine_state = __START_BYTE;  }
  64:IO_drivers/time_protocol.c **** 				break;
  65:IO_drivers/time_protocol.c **** 
  66:IO_drivers/time_protocol.c ****         case __SYNC_WORD2: 
  67:IO_drivers/time_protocol.c ****           if ( byte == ptr_PDTmsg[2]) //–µ—Å–ª–∏ –ø–æ–ª—É—á–µ–Ω–Ω—ã–π —Å–∏–º–≤–æ–ª —Ä–∞–≤–µ–Ω 'D' 
  68:IO_drivers/time_protocol.c **** 					{ UART_msg.machine_state = __SYNC_WORD3;  }
  69:IO_drivers/time_protocol.c ****           else
  70:IO_drivers/time_protocol.c ****           { UART_msg.machine_state = __START_BYTE;  }
  71:IO_drivers/time_protocol.c **** 				break;
  72:IO_drivers/time_protocol.c **** 
  73:IO_drivers/time_protocol.c ****         case __SYNC_WORD3: 
  74:IO_drivers/time_protocol.c ****           if ( byte == ptr_PDTmsg[3]) //–µ—Å–ª–∏ –ø–æ–ª—É—á–µ–Ω–Ω—ã–π —Å–∏–º–≤–æ–ª —Ä–∞–≤–µ–Ω 'T' 
  75:IO_drivers/time_protocol.c **** 					{ UART_msg.machine_state = __SYNC_COMMA1;  }
  76:IO_drivers/time_protocol.c ****           else
  77:IO_drivers/time_protocol.c ****           { UART_msg.machine_state = __START_BYTE;  }
  78:IO_drivers/time_protocol.c **** 				break;
  79:IO_drivers/time_protocol.c **** 
  80:IO_drivers/time_protocol.c ****         case __SYNC_COMMA1: 
  81:IO_drivers/time_protocol.c ****           if ( byte == ptr_PDTmsg[4]) //–µ—Å–ª–∏ –ø–æ–ª—É—á–µ–Ω–Ω—ã–π —Å–∏–º–≤–æ–ª —Ä–∞–≤–µ–Ω ',' 
  82:IO_drivers/time_protocol.c **** 					{ UART_msg.machine_state = __ID_MSG;  }
  83:IO_drivers/time_protocol.c ****           else
  84:IO_drivers/time_protocol.c ****           { UART_msg.machine_state = __START_BYTE;  }
  85:IO_drivers/time_protocol.c **** 				break;
  86:IO_drivers/time_protocol.c **** 
  87:IO_drivers/time_protocol.c ****         case __ID_MSG: 
  88:IO_drivers/time_protocol.c ****           if ( byte == ptr_PDTmsg[5]) //–µ—Å–ª–∏ –ø–æ–ª—É—á–µ–Ω–Ω—ã–π —Å–∏–º–≤–æ–ª —Ä–∞–≤–µ–Ω '1' 
  89:IO_drivers/time_protocol.c **** 					{ UART_msg.machine_state = __SYNC_COMMA2;  }
ARM GAS  /tmp/ccRvBgNS.s 			page 3


  90:IO_drivers/time_protocol.c ****           else
  91:IO_drivers/time_protocol.c ****           { UART_msg.machine_state = __START_BYTE;  }
  92:IO_drivers/time_protocol.c **** 				break;
  93:IO_drivers/time_protocol.c **** 
  94:IO_drivers/time_protocol.c ****         case __SYNC_COMMA2: 
  95:IO_drivers/time_protocol.c ****           if ( byte == ptr_PDTmsg[6]) //–µ—Å–ª–∏ –ø–æ–ª—É—á–µ–Ω–Ω—ã–π —Å–∏–º–≤–æ–ª —Ä–∞–≤–µ–Ω ',' 
  96:IO_drivers/time_protocol.c **** 					{ UART_msg.machine_state = __USEFUL_PART_MSG;  }
  97:IO_drivers/time_protocol.c ****           else
  98:IO_drivers/time_protocol.c ****           { UART_msg.machine_state = __START_BYTE;  }
  99:IO_drivers/time_protocol.c **** 				break;
 100:IO_drivers/time_protocol.c **** 
 101:IO_drivers/time_protocol.c ****         case  __USEFUL_PART_MSG: 
 102:IO_drivers/time_protocol.c ****           if ( count < PDT_SIZE_MSG ) //–µ—Å–ª–∏ —Å—á—ë—Ç—á–∏–∫ –ø—Ä–∏–Ω—è—Ç—ã—Ö –±–∞–π—Ç–æ–≤ –º–µ–
 103:IO_drivers/time_protocol.c **** 				  {
 104:IO_drivers/time_protocol.c **** 					  ptr_PDTmsg[count+7] = byte; //—Å–æ—Ö—Ä–∞–Ω–µ–Ω–∏—è –ø—Ä–∏–Ω—è—Ç–æ–≥–æ –±–∞–π—Ç–∞					
 105:IO_drivers/time_protocol.c **** 					  count++;
 106:IO_drivers/time_protocol.c **** 				  } 
 107:IO_drivers/time_protocol.c **** 				  else //–µ—Å–ª–∏ –ø–æ–ª–µ–∑–Ω–∞—è —á–∞—Å—Ç—å —Å–æ–æ–±—â–µ–Ω–∏—è –ø–æ–ª—É—á–µ–Ω–∞ –ø–æ–ª–Ω–æ—Å—
 108:IO_drivers/time_protocol.c **** 				  {
 109:IO_drivers/time_protocol.c **** 					  count = 0; //—Å–±—Ä–æ—Å —Å—á—ë—Ç—á–∏–∫–∞ –ø—Ä–∏–Ω—è—Ç—ã—Ö —Å–∏–º–≤–æ–ª–æ–≤
 110:IO_drivers/time_protocol.c **** 
 111:IO_drivers/time_protocol.c ****             if (( byte == ptr_PDTmsg[15])) //–µ—Å–ª–∏ –ø–æ–ª—É—á–µ–Ω–Ω—ã–π —Å–∏–º–≤–æ–ª —Ä–∞–≤–µ–Ω 
 112:IO_drivers/time_protocol.c **** 					  { 
 113:IO_drivers/time_protocol.c ****               UART_msg.machine_state = __CRC_MSG; 
 114:IO_drivers/time_protocol.c ****               UART_msg.msg_CRC = 0;
 115:IO_drivers/time_protocol.c ****               divider = 0x10;
 116:IO_drivers/time_protocol.c ****             } 	
 117:IO_drivers/time_protocol.c **** 				  } 
 118:IO_drivers/time_protocol.c **** 				break;	
 119:IO_drivers/time_protocol.c **** 
 120:IO_drivers/time_protocol.c ****         case  __CRC_MSG: 
 121:IO_drivers/time_protocol.c ****           if (count < SIZE_CRC)
 122:IO_drivers/time_protocol.c ****           {
 123:IO_drivers/time_protocol.c ****             ptr_PDTmsg[16 + count] = byte;
 124:IO_drivers/time_protocol.c ****             if ((byte >= '0') && (byte <= '9')) //–ø—Ä–æ–≤–µ—Ä–∫–∞ –¥–∏–∞–ø–∞–∑–æ–Ω–∞ –ø—Ä–∏–Ω—è—Ç–
 125:IO_drivers/time_protocol.c ****             { UART_msg.msg_CRC |= (byte-0x30)*divider; }
 126:IO_drivers/time_protocol.c ****             else
 127:IO_drivers/time_protocol.c ****             {     
 128:IO_drivers/time_protocol.c ****               if ((byte >= 'A') && (byte <= 'F'))
 129:IO_drivers/time_protocol.c ****               { UART_msg.msg_CRC |= (byte-0x37)*divider; }
 130:IO_drivers/time_protocol.c ****             }
 131:IO_drivers/time_protocol.c ****             count++;
 132:IO_drivers/time_protocol.c ****             divider = (divider >> 4); //–¥–µ–ª–µ–Ω–∏–µ –Ω–∞ 0x10
 133:IO_drivers/time_protocol.c ****           }
 134:IO_drivers/time_protocol.c ****           else 
 135:IO_drivers/time_protocol.c ****           {
 136:IO_drivers/time_protocol.c ****             if ((CRC8 = calc_CRC8 ( &ptr_PDTmsg[1])) == UART_msg.msg_CRC)
 137:IO_drivers/time_protocol.c ****             {
 138:IO_drivers/time_protocol.c ****               UART_msg.ntp_UNIXtime =  calcUNIXtime_from_PDTmsg (&ptr_PDTmsg[7]);          
 139:IO_drivers/time_protocol.c ****             }
 140:IO_drivers/time_protocol.c ****             count = 0;
 141:IO_drivers/time_protocol.c ****             UART_msg.machine_state = __START_BYTE;
 142:IO_drivers/time_protocol.c ****             buffer_status =  GET_MSG;
 143:IO_drivers/time_protocol.c ****           }
 144:IO_drivers/time_protocol.c ****           
 145:IO_drivers/time_protocol.c ****         break;
 146:IO_drivers/time_protocol.c ****       }
ARM GAS  /tmp/ccRvBgNS.s 			page 4


 147:IO_drivers/time_protocol.c ****     }
 148:IO_drivers/time_protocol.c ****     
 149:IO_drivers/time_protocol.c ****     return buffer_status;
 150:IO_drivers/time_protocol.c **** }
 151:IO_drivers/time_protocol.c **** 
 152:IO_drivers/time_protocol.c **** //----------------------------------------------------------------------------//
 153:IO_drivers/time_protocol.c **** static uint8_t calc_CRC8 (uint8_t * ptr_msg)
 154:IO_drivers/time_protocol.c **** {
  27              		.loc 1 154 1 view -0
  28              		.cfi_startproc
  29              		@ args = 0, pretend = 0, frame = 0
  30              		@ frame_needed = 0, uses_anonymous_args = 0
  31              		@ link register save eliminated.
  32              		.loc 1 154 1 is_stmt 0 view .LVU1
  33 0000 0246     		mov	r2, r0
 155:IO_drivers/time_protocol.c ****     uint8_t CRC8 = *ptr_msg;
  34              		.loc 1 155 5 is_stmt 1 view .LVU2
  35              		.loc 1 155 13 is_stmt 0 view .LVU3
  36 0002 0078     		ldrb	r0, [r0]	@ zero_extendqisi2
  37              	.LVL1:
 156:IO_drivers/time_protocol.c **** 
 157:IO_drivers/time_protocol.c ****     while (*(++ptr_msg) != '*') 
  38              		.loc 1 157 5 is_stmt 1 view .LVU4
  39              		.loc 1 157 11 is_stmt 0 view .LVU5
  40 0004 00E0     		b	.L2
  41              	.L3:
 158:IO_drivers/time_protocol.c ****     { CRC8 = CRC8 ^ (*ptr_msg);  }
  42              		.loc 1 158 7 is_stmt 1 view .LVU6
  43              		.loc 1 158 12 is_stmt 0 view .LVU7
  44 0006 5840     		eors	r0, r0, r3
  45              	.LVL2:
  46              	.L2:
 157:IO_drivers/time_protocol.c ****     { CRC8 = CRC8 ^ (*ptr_msg);  }
  47              		.loc 1 157 11 is_stmt 1 view .LVU8
 157:IO_drivers/time_protocol.c ****     { CRC8 = CRC8 ^ (*ptr_msg);  }
  48              		.loc 1 157 12 is_stmt 0 view .LVU9
  49 0008 12F8013F 		ldrb	r3, [r2, #1]!	@ zero_extendqisi2
  50              	.LVL3:
 157:IO_drivers/time_protocol.c ****     { CRC8 = CRC8 ^ (*ptr_msg);  }
  51              		.loc 1 157 11 view .LVU10
  52 000c 2A2B     		cmp	r3, #42
  53 000e FAD1     		bne	.L3
 159:IO_drivers/time_protocol.c **** 
 160:IO_drivers/time_protocol.c ****     return CRC8;
  54              		.loc 1 160 5 is_stmt 1 view .LVU11
 161:IO_drivers/time_protocol.c **** }
  55              		.loc 1 161 1 is_stmt 0 view .LVU12
  56 0010 7047     		bx	lr
  57              		.cfi_endproc
  58              	.LFE820:
  60              		.section	.text.calcUNIXtime_from_PDTmsg,"ax",%progbits
  61              		.align	1
  62              		.syntax unified
  63              		.thumb
  64              		.thumb_func
  66              	calcUNIXtime_from_PDTmsg:
  67              	.LVL4:
ARM GAS  /tmp/ccRvBgNS.s 			page 5


  68              	.LFB821:
 162:IO_drivers/time_protocol.c **** 
 163:IO_drivers/time_protocol.c **** //----------------------------------------------------------------------------//
 164:IO_drivers/time_protocol.c **** static uint32_t calcUNIXtime_from_PDTmsg (uint8_t * ptr_msg)
 165:IO_drivers/time_protocol.c **** {
  69              		.loc 1 165 1 is_stmt 1 view -0
  70              		.cfi_startproc
  71              		@ args = 0, pretend = 0, frame = 0
  72              		@ frame_needed = 0, uses_anonymous_args = 0
  73              		.loc 1 165 1 is_stmt 0 view .LVU14
  74 0000 00B5     		push	{lr}
  75              	.LCFI0:
  76              		.cfi_def_cfa_offset 4
  77              		.cfi_offset 14, -4
  78 0002 8646     		mov	lr, r0
 166:IO_drivers/time_protocol.c ****   uint8_t byte = 0;
  79              		.loc 1 166 3 is_stmt 1 view .LVU15
  80              	.LVL5:
 167:IO_drivers/time_protocol.c ****   uint32_t UNIXtime = 0;
  81              		.loc 1 167 3 view .LVU16
 168:IO_drivers/time_protocol.c ****   uint32_t divider = 1;
  82              		.loc 1 168 3 view .LVU17
 169:IO_drivers/time_protocol.c ****   
 170:IO_drivers/time_protocol.c ****   for (uint8_t count = 0; count < 9; count++)
  83              		.loc 1 170 3 view .LVU18
  84              	.LBB2:
  85              		.loc 1 170 8 view .LVU19
  86              		.loc 1 170 16 is_stmt 0 view .LVU20
  87 0004 0023     		movs	r3, #0
  88              	.LBE2:
 168:IO_drivers/time_protocol.c ****   uint32_t divider = 1;
  89              		.loc 1 168 12 view .LVU21
  90 0006 4FF0010C 		mov	ip, #1
 167:IO_drivers/time_protocol.c ****   uint32_t divider = 1;
  91              		.loc 1 167 12 view .LVU22
  92 000a 1846     		mov	r0, r3
  93              	.LVL6:
  94              	.LBB3:
  95              		.loc 1 170 3 view .LVU23
  96 000c 0CE0     		b	.L5
  97              	.LVL7:
  98              	.L6:
 171:IO_drivers/time_protocol.c ****   {
 172:IO_drivers/time_protocol.c ****     byte = *(ptr_msg + (7 - count)) ;
 173:IO_drivers/time_protocol.c ****     if ((byte >= '0') && (byte <= '9')) //–ø—Ä–æ–≤–µ—Ä–∫–∞ –¥–∏–∞–ø–∞–∑–æ–Ω–∞ –ø—Ä–∏–Ω—è—Ç–æ–≥–æ —Å
 174:IO_drivers/time_protocol.c ****     {
 175:IO_drivers/time_protocol.c ****       UNIXtime |= (byte-0x30)*divider;
 176:IO_drivers/time_protocol.c ****     }
 177:IO_drivers/time_protocol.c ****     else
 178:IO_drivers/time_protocol.c ****     {
 179:IO_drivers/time_protocol.c ****       if ((byte >= 'A') && (byte <= 'F'))
  99              		.loc 1 179 7 is_stmt 1 view .LVU24
 100              		.loc 1 179 25 is_stmt 0 view .LVU25
 101 000e A2F14101 		sub	r1, r2, #65
 102 0012 C9B2     		uxtb	r1, r1
 103              		.loc 1 179 10 view .LVU26
 104 0014 0529     		cmp	r1, #5
ARM GAS  /tmp/ccRvBgNS.s 			page 6


 105 0016 03D8     		bhi	.L7
 180:IO_drivers/time_protocol.c ****       { UNIXtime |= (byte-0x37)*divider;  }
 106              		.loc 1 180 9 is_stmt 1 view .LVU27
 107              		.loc 1 180 26 is_stmt 0 view .LVU28
 108 0018 373A     		subs	r2, r2, #55
 109              	.LVL8:
 110              		.loc 1 180 32 view .LVU29
 111 001a 0CFB02F2 		mul	r2, ip, r2
 112              	.LVL9:
 113              		.loc 1 180 18 view .LVU30
 114 001e 1043     		orrs	r0, r0, r2
 115              	.LVL10:
 116              	.L7:
 181:IO_drivers/time_protocol.c ****     }
 182:IO_drivers/time_protocol.c ****     divider *= 0x10;
 117              		.loc 1 182 5 is_stmt 1 discriminator 2 view .LVU31
 118              		.loc 1 182 13 is_stmt 0 discriminator 2 view .LVU32
 119 0020 4FEA0C1C 		lsl	ip, ip, #4
 120              	.LVL11:
 170:IO_drivers/time_protocol.c ****   {
 121              		.loc 1 170 38 is_stmt 1 discriminator 2 view .LVU33
 170:IO_drivers/time_protocol.c ****   {
 122              		.loc 1 170 43 is_stmt 0 discriminator 2 view .LVU34
 123 0024 0133     		adds	r3, r3, #1
 124              	.LVL12:
 170:IO_drivers/time_protocol.c ****   {
 125              		.loc 1 170 43 discriminator 2 view .LVU35
 126 0026 DBB2     		uxtb	r3, r3
 127              	.LVL13:
 128              	.L5:
 170:IO_drivers/time_protocol.c ****   {
 129              		.loc 1 170 27 is_stmt 1 discriminator 1 view .LVU36
 170:IO_drivers/time_protocol.c ****   {
 130              		.loc 1 170 3 is_stmt 0 discriminator 1 view .LVU37
 131 0028 082B     		cmp	r3, #8
 132 002a 0DD8     		bhi	.L10
 172:IO_drivers/time_protocol.c ****     if ((byte >= '0') && (byte <= '9')) //–ø—Ä–æ–≤–µ—Ä–∫–∞ –¥–∏–∞–ø–∞–∑–æ–Ω–∞ –ø—Ä–∏–Ω—è—Ç–æ–≥–æ —Å
 133              		.loc 1 172 5 is_stmt 1 view .LVU38
 172:IO_drivers/time_protocol.c ****     if ((byte >= '0') && (byte <= '9')) //–ø—Ä–æ–≤–µ—Ä–∫–∞ –¥–∏–∞–ø–∞–∑–æ–Ω–∞ –ø—Ä–∏–Ω—è—Ç–æ–≥–æ —Å
 134              		.loc 1 172 27 is_stmt 0 view .LVU39
 135 002c C3F10702 		rsb	r2, r3, #7
 172:IO_drivers/time_protocol.c ****     if ((byte >= '0') && (byte <= '9')) //–ø—Ä–æ–≤–µ—Ä–∫–∞ –¥–∏–∞–ø–∞–∑–æ–Ω–∞ –ø—Ä–∏–Ω—è—Ç–æ–≥–æ —Å
 136              		.loc 1 172 10 view .LVU40
 137 0030 1EF80220 		ldrb	r2, [lr, r2]	@ zero_extendqisi2
 138              	.LVL14:
 173:IO_drivers/time_protocol.c ****     {
 139              		.loc 1 173 5 is_stmt 1 view .LVU41
 173:IO_drivers/time_protocol.c ****     {
 140              		.loc 1 173 23 is_stmt 0 view .LVU42
 141 0034 A2F13001 		sub	r1, r2, #48
 142 0038 C9B2     		uxtb	r1, r1
 173:IO_drivers/time_protocol.c ****     {
 143              		.loc 1 173 8 view .LVU43
 144 003a 0929     		cmp	r1, #9
 145 003c E7D8     		bhi	.L6
 175:IO_drivers/time_protocol.c ****     }
 146              		.loc 1 175 7 is_stmt 1 view .LVU44
ARM GAS  /tmp/ccRvBgNS.s 			page 7


 175:IO_drivers/time_protocol.c ****     }
 147              		.loc 1 175 24 is_stmt 0 view .LVU45
 148 003e 303A     		subs	r2, r2, #48
 149              	.LVL15:
 175:IO_drivers/time_protocol.c ****     }
 150              		.loc 1 175 30 view .LVU46
 151 0040 0CFB02F2 		mul	r2, ip, r2
 152              	.LVL16:
 175:IO_drivers/time_protocol.c ****     }
 153              		.loc 1 175 16 view .LVU47
 154 0044 1043     		orrs	r0, r0, r2
 155              	.LVL17:
 175:IO_drivers/time_protocol.c ****     }
 156              		.loc 1 175 16 view .LVU48
 157 0046 EBE7     		b	.L7
 158              	.LVL18:
 159              	.L10:
 175:IO_drivers/time_protocol.c ****     }
 160              		.loc 1 175 16 view .LVU49
 161              	.LBE3:
 183:IO_drivers/time_protocol.c ****   }
 184:IO_drivers/time_protocol.c ****  return UNIXtime;
 162              		.loc 1 184 2 is_stmt 1 view .LVU50
 185:IO_drivers/time_protocol.c **** }
 163              		.loc 1 185 1 is_stmt 0 view .LVU51
 164 0048 5DF804FB 		ldr	pc, [sp], #4
 165              		.cfi_endproc
 166              	.LFE821:
 168              		.section	.text.PutCharRingBuf,"ax",%progbits
 169              		.align	1
 170              		.global	PutCharRingBuf
 171              		.syntax unified
 172              		.thumb
 173              		.thumb_func
 175              	PutCharRingBuf:
 176              	.LVL19:
 177              	.LFB817:
  20:IO_drivers/time_protocol.c ****   RING_Put(&RING_buffer, smb); //–æ—Ç–ø—Ä–∞–≤–∫–∞ –±–∞–π—Ç–∞ –≤ –∫–æ–ª—å—Ü–µ–≤–æ–π –±—É—Ñ—Ñ–µ—Ä
 178              		.loc 1 20 1 is_stmt 1 view -0
 179              		.cfi_startproc
 180              		@ args = 0, pretend = 0, frame = 0
 181              		@ frame_needed = 0, uses_anonymous_args = 0
  20:IO_drivers/time_protocol.c ****   RING_Put(&RING_buffer, smb); //–æ—Ç–ø—Ä–∞–≤–∫–∞ –±–∞–π—Ç–∞ –≤ –∫–æ–ª—å—Ü–µ–≤–æ–π –±—É—Ñ—Ñ–µ—Ä
 182              		.loc 1 20 1 is_stmt 0 view .LVU53
 183 0000 08B5     		push	{r3, lr}
 184              	.LCFI1:
 185              		.cfi_def_cfa_offset 8
 186              		.cfi_offset 3, -8
 187              		.cfi_offset 14, -4
 188 0002 0146     		mov	r1, r0
  21:IO_drivers/time_protocol.c **** }
 189              		.loc 1 21 3 is_stmt 1 view .LVU54
 190 0004 0148     		ldr	r0, .L13
 191              	.LVL20:
  21:IO_drivers/time_protocol.c **** }
 192              		.loc 1 21 3 is_stmt 0 view .LVU55
 193 0006 FFF7FEFF 		bl	RING_Put
ARM GAS  /tmp/ccRvBgNS.s 			page 8


 194              	.LVL21:
  22:IO_drivers/time_protocol.c **** 
 195              		.loc 1 22 1 view .LVU56
 196 000a 08BD     		pop	{r3, pc}
 197              	.L14:
 198              		.align	2
 199              	.L13:
 200 000c 00000000 		.word	.LANCHOR0
 201              		.cfi_endproc
 202              	.LFE817:
 204              		.section	.text.UARTbuf_init,"ax",%progbits
 205              		.align	1
 206              		.global	UARTbuf_init
 207              		.syntax unified
 208              		.thumb
 209              		.thumb_func
 211              	UARTbuf_init:
 212              	.LFB818:
  26:IO_drivers/time_protocol.c ****   UART_msg.machine_state = __START_BYTE;
 213              		.loc 1 26 1 is_stmt 1 view -0
 214              		.cfi_startproc
 215              		@ args = 0, pretend = 0, frame = 0
 216              		@ frame_needed = 0, uses_anonymous_args = 0
 217 0000 38B5     		push	{r3, r4, r5, lr}
 218              	.LCFI2:
 219              		.cfi_def_cfa_offset 16
 220              		.cfi_offset 3, -16
 221              		.cfi_offset 4, -12
 222              		.cfi_offset 5, -8
 223              		.cfi_offset 14, -4
  27:IO_drivers/time_protocol.c ****   RING_Init (&RING_buffer, returnPtrUARTbuf(), BUFFER_SIZE); //–∏–Ω–∏—Ü–∏–∞–ª–∏–∑–∞—Ü–∏—è –∫–æ–ª—å—
 224              		.loc 1 27 3 view .LVU58
  27:IO_drivers/time_protocol.c ****   RING_Init (&RING_buffer, returnPtrUARTbuf(), BUFFER_SIZE); //–∏–Ω–∏—Ü–∏–∞–ª–∏–∑–∞—Ü–∏—è –∫–æ–ª—å—
 225              		.loc 1 27 26 is_stmt 0 view .LVU59
 226 0002 114C     		ldr	r4, .L17
 227 0004 0123     		movs	r3, #1
 228 0006 2370     		strb	r3, [r4]
  28:IO_drivers/time_protocol.c ****   UART_msg.ptr_RINGbuff = &RING_buffer;
 229              		.loc 1 28 3 is_stmt 1 view .LVU60
 230 0008 FFF7FEFF 		bl	returnPtrUARTbuf
 231              	.LVL22:
 232 000c 0146     		mov	r1, r0
 233 000e 0F4D     		ldr	r5, .L17+4
 234 0010 3222     		movs	r2, #50
 235 0012 2846     		mov	r0, r5
 236 0014 FFF7FEFF 		bl	RING_Init
 237              	.LVL23:
  29:IO_drivers/time_protocol.c ****   ptr_PDTmsg[0]=  '$';
 238              		.loc 1 29 3 view .LVU61
  29:IO_drivers/time_protocol.c ****   ptr_PDTmsg[0]=  '$';
 239              		.loc 1 29 25 is_stmt 0 view .LVU62
 240 0018 E561     		str	r5, [r4, #28]
  30:IO_drivers/time_protocol.c ****   ptr_PDTmsg[1]=  'P';
 241              		.loc 1 30 3 is_stmt 1 view .LVU63
  30:IO_drivers/time_protocol.c ****   ptr_PDTmsg[1]=  'P';
 242              		.loc 1 30 13 is_stmt 0 view .LVU64
 243 001a 0D4B     		ldr	r3, .L17+8
ARM GAS  /tmp/ccRvBgNS.s 			page 9


 244 001c 1A68     		ldr	r2, [r3]
  30:IO_drivers/time_protocol.c ****   ptr_PDTmsg[1]=  'P';
 245              		.loc 1 30 16 view .LVU65
 246 001e 2421     		movs	r1, #36
 247 0020 1170     		strb	r1, [r2]
  31:IO_drivers/time_protocol.c ****   ptr_PDTmsg[2]=  'D';
 248              		.loc 1 31 3 is_stmt 1 view .LVU66
  31:IO_drivers/time_protocol.c ****   ptr_PDTmsg[2]=  'D';
 249              		.loc 1 31 13 is_stmt 0 view .LVU67
 250 0022 1A68     		ldr	r2, [r3]
  31:IO_drivers/time_protocol.c ****   ptr_PDTmsg[2]=  'D';
 251              		.loc 1 31 16 view .LVU68
 252 0024 5021     		movs	r1, #80
 253 0026 5170     		strb	r1, [r2, #1]
  32:IO_drivers/time_protocol.c ****   ptr_PDTmsg[3]=  'T';
 254              		.loc 1 32 3 is_stmt 1 view .LVU69
  32:IO_drivers/time_protocol.c ****   ptr_PDTmsg[3]=  'T';
 255              		.loc 1 32 13 is_stmt 0 view .LVU70
 256 0028 1A68     		ldr	r2, [r3]
  32:IO_drivers/time_protocol.c ****   ptr_PDTmsg[3]=  'T';
 257              		.loc 1 32 16 view .LVU71
 258 002a 4421     		movs	r1, #68
 259 002c 9170     		strb	r1, [r2, #2]
  33:IO_drivers/time_protocol.c ****   ptr_PDTmsg[4]=  ',';
 260              		.loc 1 33 3 is_stmt 1 view .LVU72
  33:IO_drivers/time_protocol.c ****   ptr_PDTmsg[4]=  ',';
 261              		.loc 1 33 13 is_stmt 0 view .LVU73
 262 002e 1A68     		ldr	r2, [r3]
  33:IO_drivers/time_protocol.c ****   ptr_PDTmsg[4]=  ',';
 263              		.loc 1 33 16 view .LVU74
 264 0030 5421     		movs	r1, #84
 265 0032 D170     		strb	r1, [r2, #3]
  34:IO_drivers/time_protocol.c ****   ptr_PDTmsg[5]=  '1';
 266              		.loc 1 34 3 is_stmt 1 view .LVU75
  34:IO_drivers/time_protocol.c ****   ptr_PDTmsg[5]=  '1';
 267              		.loc 1 34 13 is_stmt 0 view .LVU76
 268 0034 1B68     		ldr	r3, [r3]
  34:IO_drivers/time_protocol.c ****   ptr_PDTmsg[5]=  '1';
 269              		.loc 1 34 16 view .LVU77
 270 0036 2C22     		movs	r2, #44
 271 0038 1A71     		strb	r2, [r3, #4]
  35:IO_drivers/time_protocol.c ****   ptr_PDTmsg[6]=  ',';
 272              		.loc 1 35 3 is_stmt 1 view .LVU78
  35:IO_drivers/time_protocol.c ****   ptr_PDTmsg[6]=  ',';
 273              		.loc 1 35 16 is_stmt 0 view .LVU79
 274 003a 3121     		movs	r1, #49
 275 003c 5971     		strb	r1, [r3, #5]
  36:IO_drivers/time_protocol.c ****   ptr_PDTmsg[15]= '*';
 276              		.loc 1 36 3 is_stmt 1 view .LVU80
  36:IO_drivers/time_protocol.c ****   ptr_PDTmsg[15]= '*';
 277              		.loc 1 36 16 is_stmt 0 view .LVU81
 278 003e 9A71     		strb	r2, [r3, #6]
  37:IO_drivers/time_protocol.c **** }
 279              		.loc 1 37 3 is_stmt 1 view .LVU82
  37:IO_drivers/time_protocol.c **** }
 280              		.loc 1 37 17 is_stmt 0 view .LVU83
 281 0040 2A22     		movs	r2, #42
ARM GAS  /tmp/ccRvBgNS.s 			page 10


 282 0042 DA73     		strb	r2, [r3, #15]
  38:IO_drivers/time_protocol.c **** 
 283              		.loc 1 38 1 view .LVU84
 284 0044 38BD     		pop	{r3, r4, r5, pc}
 285              	.L18:
 286 0046 00BF     		.align	2
 287              	.L17:
 288 0048 00000000 		.word	.LANCHOR1
 289 004c 00000000 		.word	.LANCHOR0
 290 0050 00000000 		.word	.LANCHOR2
 291              		.cfi_endproc
 292              	.LFE818:
 294              		.section	.text.check_ring_buffer,"ax",%progbits
 295              		.align	1
 296              		.global	check_ring_buffer
 297              		.syntax unified
 298              		.thumb
 299              		.thumb_func
 301              	check_ring_buffer:
 302              	.LFB819:
  42:IO_drivers/time_protocol.c ****     uint8_t buffer_status =  NO_MSG;
 303              		.loc 1 42 1 is_stmt 1 view -0
 304              		.cfi_startproc
 305              		@ args = 0, pretend = 0, frame = 0
 306              		@ frame_needed = 0, uses_anonymous_args = 0
 307 0000 10B5     		push	{r4, lr}
 308              	.LCFI3:
 309              		.cfi_def_cfa_offset 8
 310              		.cfi_offset 4, -8
 311              		.cfi_offset 14, -4
  43:IO_drivers/time_protocol.c ****     uint8_t CRC8 = 0; //–ø–µ—Ä–µ–º–µ–Ω–Ω–∞—è –¥–ª—è —Ö—Ä–∞–Ω–µ–Ω–∏—è CRC
 312              		.loc 1 43 5 view .LVU86
 313              	.LVL24:
  44:IO_drivers/time_protocol.c ****     static uint8_t count  = 0; //—Å—á—ë—Ç—á–∏–∫ –ø—Ä–∏–Ω—è—Ç—ã—Ö –±–∞–π—Ç–æ–≤ —Ç–µ–ª–∞ —Å–æ–æ–±—â–µ
 314              		.loc 1 44 5 view .LVU87
  45:IO_drivers/time_protocol.c ****     static uint8_t divider = 0x10; //–¥–µ–ª–∏—Ç–µ–ª—å –¥–ª—è –ø–µ—Ä–µ–≤–æ–¥–∞ –≤ 16—á–Ω—ã–π —Ñ–æ—Ä–
 315              		.loc 1 45 5 view .LVU88
  46:IO_drivers/time_protocol.c ****     uint8_t byte; //–ø–æ–ª—É—á–µ–Ω–Ω—ã–π –∏–∑ –∫–æ–ª—å—Ü–µ–≤–æ–≥–æ –±—É—Ñ—Ñ–µ—Ä–∞ –±–∞–π—Ç
 316              		.loc 1 46 5 view .LVU89
  47:IO_drivers/time_protocol.c **** 
 317              		.loc 1 47 5 view .LVU90
  49:IO_drivers/time_protocol.c ****     {
 318              		.loc 1 49 5 view .LVU91
  49:IO_drivers/time_protocol.c ****     {
 319              		.loc 1 49 9 is_stmt 0 view .LVU92
 320 0002 714B     		ldr	r3, .L57
 321 0004 D869     		ldr	r0, [r3, #28]
 322 0006 FFF7FEFF 		bl	RING_GetCount
 323              	.LVL25:
  49:IO_drivers/time_protocol.c ****     {
 324              		.loc 1 49 8 view .LVU93
 325 000a 08B9     		cbnz	r0, .L47
  43:IO_drivers/time_protocol.c ****     uint8_t CRC8 = 0; //–ø–µ—Ä–µ–º–µ–Ω–Ω–∞—è –¥–ª—è —Ö—Ä–∞–Ω–µ–Ω–∏—è CRC
 326              		.loc 1 43 13 view .LVU94
 327 000c 0020     		movs	r0, #0
 328              	.LVL26:
 329              	.L20:
ARM GAS  /tmp/ccRvBgNS.s 			page 11


 149:IO_drivers/time_protocol.c **** }
 330              		.loc 1 149 5 is_stmt 1 view .LVU95
 150:IO_drivers/time_protocol.c **** 
 331              		.loc 1 150 1 is_stmt 0 view .LVU96
 332 000e 10BD     		pop	{r4, pc}
 333              	.LVL27:
 334              	.L47:
  51:IO_drivers/time_protocol.c ****       switch (UART_msg.machine_state) //–ø—Ä–æ–≤–µ—Ä–∫–∞ —Å—Ç–∞–¥–∏–∏ –ø–æ–ª—É—á–µ–Ω–∏—è —Å–æ–æ–±—â
 335              		.loc 1 51 7 is_stmt 1 view .LVU97
  51:IO_drivers/time_protocol.c ****       switch (UART_msg.machine_state) //–ø—Ä–æ–≤–µ—Ä–∫–∞ —Å—Ç–∞–¥–∏–∏ –ø–æ–ª—É—á–µ–Ω–∏—è —Å–æ–æ–±—â
 336              		.loc 1 51 14 is_stmt 0 view .LVU98
 337 0010 6D4C     		ldr	r4, .L57
 338 0012 E069     		ldr	r0, [r4, #28]
 339 0014 FFF7FEFF 		bl	RING_Pop
 340              	.LVL28:
  52:IO_drivers/time_protocol.c **** 		  { 
 341              		.loc 1 52 7 is_stmt 1 view .LVU99
  52:IO_drivers/time_protocol.c **** 		  { 
 342              		.loc 1 52 23 is_stmt 0 view .LVU100
 343 0018 2378     		ldrb	r3, [r4]	@ zero_extendqisi2
  52:IO_drivers/time_protocol.c **** 		  { 
 344              		.loc 1 52 7 view .LVU101
 345 001a 013B     		subs	r3, r3, #1
 346 001c 082B     		cmp	r3, #8
 347 001e 00F2D180 		bhi	.L43
 348 0022 DFE803F0 		tbb	[pc, r3]
 349              	.L22:
 350 0026 05       		.byte	(.L30-.L22)/2
 351 0027 11       		.byte	(.L29-.L22)/2
 352 0028 20       		.byte	(.L28-.L22)/2
 353 0029 2F       		.byte	(.L27-.L22)/2
 354 002a 3E       		.byte	(.L26-.L22)/2
 355 002b 4D       		.byte	(.L25-.L22)/2
 356 002c 5C       		.byte	(.L24-.L22)/2
 357 002d 6B       		.byte	(.L23-.L22)/2
 358 002e 8B       		.byte	(.L21-.L22)/2
 359 002f 00       		.p2align 1
 360              	.L30:
  55:IO_drivers/time_protocol.c **** 					{ UART_msg.machine_state = __SYNC_WORD1;  }
 361              		.loc 1 55 11 is_stmt 1 view .LVU102
  55:IO_drivers/time_protocol.c **** 					{ UART_msg.machine_state = __SYNC_WORD1;  }
 362              		.loc 1 55 34 is_stmt 0 view .LVU103
 363 0030 664B     		ldr	r3, .L57+4
 364 0032 1B68     		ldr	r3, [r3]
 365 0034 1B78     		ldrb	r3, [r3]	@ zero_extendqisi2
  55:IO_drivers/time_protocol.c **** 					{ UART_msg.machine_state = __SYNC_WORD1;  }
 366              		.loc 1 55 14 view .LVU104
 367 0036 8342     		cmp	r3, r0
 368 0038 01D0     		beq	.L48
  43:IO_drivers/time_protocol.c ****     uint8_t CRC8 = 0; //–ø–µ—Ä–µ–º–µ–Ω–Ω–∞—è –¥–ª—è —Ö—Ä–∞–Ω–µ–Ω–∏—è CRC
 369              		.loc 1 43 13 view .LVU105
 370 003a 0020     		movs	r0, #0
 371              	.LVL29:
  43:IO_drivers/time_protocol.c ****     uint8_t CRC8 = 0; //–ø–µ—Ä–µ–º–µ–Ω–Ω–∞—è –¥–ª—è —Ö—Ä–∞–Ω–µ–Ω–∏—è CRC
 372              		.loc 1 43 13 view .LVU106
 373 003c E7E7     		b	.L20
 374              	.LVL30:
ARM GAS  /tmp/ccRvBgNS.s 			page 12


 375              	.L48:
  56:IO_drivers/time_protocol.c **** 				break;
 376              		.loc 1 56 8 is_stmt 1 view .LVU107
  56:IO_drivers/time_protocol.c **** 				break;
 377              		.loc 1 56 31 is_stmt 0 view .LVU108
 378 003e 624B     		ldr	r3, .L57
 379 0040 0222     		movs	r2, #2
 380 0042 1A70     		strb	r2, [r3]
  43:IO_drivers/time_protocol.c ****     uint8_t CRC8 = 0; //–ø–µ—Ä–µ–º–µ–Ω–Ω–∞—è –¥–ª—è —Ö—Ä–∞–Ω–µ–Ω–∏—è CRC
 381              		.loc 1 43 13 view .LVU109
 382 0044 0020     		movs	r0, #0
 383              	.LVL31:
  43:IO_drivers/time_protocol.c ****     uint8_t CRC8 = 0; //–ø–µ—Ä–µ–º–µ–Ω–Ω–∞—è –¥–ª—è —Ö—Ä–∞–Ω–µ–Ω–∏—è CRC
 384              		.loc 1 43 13 view .LVU110
 385 0046 E2E7     		b	.L20
 386              	.LVL32:
 387              	.L29:
  60:IO_drivers/time_protocol.c **** 					{ UART_msg.machine_state = __SYNC_WORD2;  }
 388              		.loc 1 60 11 is_stmt 1 view .LVU111
  60:IO_drivers/time_protocol.c **** 					{ UART_msg.machine_state = __SYNC_WORD2;  }
 389              		.loc 1 60 34 is_stmt 0 view .LVU112
 390 0048 604B     		ldr	r3, .L57+4
 391 004a 1B68     		ldr	r3, [r3]
 392 004c 5B78     		ldrb	r3, [r3, #1]	@ zero_extendqisi2
  60:IO_drivers/time_protocol.c **** 					{ UART_msg.machine_state = __SYNC_WORD2;  }
 393              		.loc 1 60 14 view .LVU113
 394 004e 8342     		cmp	r3, r0
 395 0050 04D0     		beq	.L49
  63:IO_drivers/time_protocol.c **** 				break;
 396              		.loc 1 63 13 is_stmt 1 view .LVU114
  63:IO_drivers/time_protocol.c **** 				break;
 397              		.loc 1 63 36 is_stmt 0 view .LVU115
 398 0052 5D4B     		ldr	r3, .L57
 399 0054 0122     		movs	r2, #1
 400 0056 1A70     		strb	r2, [r3]
  43:IO_drivers/time_protocol.c ****     uint8_t CRC8 = 0; //–ø–µ—Ä–µ–º–µ–Ω–Ω–∞—è –¥–ª—è —Ö—Ä–∞–Ω–µ–Ω–∏—è CRC
 401              		.loc 1 43 13 view .LVU116
 402 0058 0020     		movs	r0, #0
 403              	.LVL33:
  43:IO_drivers/time_protocol.c ****     uint8_t CRC8 = 0; //–ø–µ—Ä–µ–º–µ–Ω–Ω–∞—è –¥–ª—è —Ö—Ä–∞–Ω–µ–Ω–∏—è CRC
 404              		.loc 1 43 13 view .LVU117
 405 005a D8E7     		b	.L20
 406              	.LVL34:
 407              	.L49:
  61:IO_drivers/time_protocol.c ****           else
 408              		.loc 1 61 8 is_stmt 1 view .LVU118
  61:IO_drivers/time_protocol.c ****           else
 409              		.loc 1 61 31 is_stmt 0 view .LVU119
 410 005c 5A4B     		ldr	r3, .L57
 411 005e 0322     		movs	r2, #3
 412 0060 1A70     		strb	r2, [r3]
  43:IO_drivers/time_protocol.c ****     uint8_t CRC8 = 0; //–ø–µ—Ä–µ–º–µ–Ω–Ω–∞—è –¥–ª—è —Ö—Ä–∞–Ω–µ–Ω–∏—è CRC
 413              		.loc 1 43 13 view .LVU120
 414 0062 0020     		movs	r0, #0
 415              	.LVL35:
  43:IO_drivers/time_protocol.c ****     uint8_t CRC8 = 0; //–ø–µ—Ä–µ–º–µ–Ω–Ω–∞—è –¥–ª—è —Ö—Ä–∞–Ω–µ–Ω–∏—è CRC
 416              		.loc 1 43 13 view .LVU121
ARM GAS  /tmp/ccRvBgNS.s 			page 13


 417 0064 D3E7     		b	.L20
 418              	.LVL36:
 419              	.L28:
  67:IO_drivers/time_protocol.c **** 					{ UART_msg.machine_state = __SYNC_WORD3;  }
 420              		.loc 1 67 11 is_stmt 1 view .LVU122
  67:IO_drivers/time_protocol.c **** 					{ UART_msg.machine_state = __SYNC_WORD3;  }
 421              		.loc 1 67 34 is_stmt 0 view .LVU123
 422 0066 594B     		ldr	r3, .L57+4
 423 0068 1B68     		ldr	r3, [r3]
 424 006a 9B78     		ldrb	r3, [r3, #2]	@ zero_extendqisi2
  67:IO_drivers/time_protocol.c **** 					{ UART_msg.machine_state = __SYNC_WORD3;  }
 425              		.loc 1 67 14 view .LVU124
 426 006c 8342     		cmp	r3, r0
 427 006e 04D0     		beq	.L50
  70:IO_drivers/time_protocol.c **** 				break;
 428              		.loc 1 70 13 is_stmt 1 view .LVU125
  70:IO_drivers/time_protocol.c **** 				break;
 429              		.loc 1 70 36 is_stmt 0 view .LVU126
 430 0070 554B     		ldr	r3, .L57
 431 0072 0122     		movs	r2, #1
 432 0074 1A70     		strb	r2, [r3]
  43:IO_drivers/time_protocol.c ****     uint8_t CRC8 = 0; //–ø–µ—Ä–µ–º–µ–Ω–Ω–∞—è –¥–ª—è —Ö—Ä–∞–Ω–µ–Ω–∏—è CRC
 433              		.loc 1 43 13 view .LVU127
 434 0076 0020     		movs	r0, #0
 435              	.LVL37:
  43:IO_drivers/time_protocol.c ****     uint8_t CRC8 = 0; //–ø–µ—Ä–µ–º–µ–Ω–Ω–∞—è –¥–ª—è —Ö—Ä–∞–Ω–µ–Ω–∏—è CRC
 436              		.loc 1 43 13 view .LVU128
 437 0078 C9E7     		b	.L20
 438              	.LVL38:
 439              	.L50:
  68:IO_drivers/time_protocol.c ****           else
 440              		.loc 1 68 8 is_stmt 1 view .LVU129
  68:IO_drivers/time_protocol.c ****           else
 441              		.loc 1 68 31 is_stmt 0 view .LVU130
 442 007a 534B     		ldr	r3, .L57
 443 007c 0422     		movs	r2, #4
 444 007e 1A70     		strb	r2, [r3]
  43:IO_drivers/time_protocol.c ****     uint8_t CRC8 = 0; //–ø–µ—Ä–µ–º–µ–Ω–Ω–∞—è –¥–ª—è —Ö—Ä–∞–Ω–µ–Ω–∏—è CRC
 445              		.loc 1 43 13 view .LVU131
 446 0080 0020     		movs	r0, #0
 447              	.LVL39:
  43:IO_drivers/time_protocol.c ****     uint8_t CRC8 = 0; //–ø–µ—Ä–µ–º–µ–Ω–Ω–∞—è –¥–ª—è —Ö—Ä–∞–Ω–µ–Ω–∏—è CRC
 448              		.loc 1 43 13 view .LVU132
 449 0082 C4E7     		b	.L20
 450              	.LVL40:
 451              	.L27:
  74:IO_drivers/time_protocol.c **** 					{ UART_msg.machine_state = __SYNC_COMMA1;  }
 452              		.loc 1 74 11 is_stmt 1 view .LVU133
  74:IO_drivers/time_protocol.c **** 					{ UART_msg.machine_state = __SYNC_COMMA1;  }
 453              		.loc 1 74 34 is_stmt 0 view .LVU134
 454 0084 514B     		ldr	r3, .L57+4
 455 0086 1B68     		ldr	r3, [r3]
 456 0088 DB78     		ldrb	r3, [r3, #3]	@ zero_extendqisi2
  74:IO_drivers/time_protocol.c **** 					{ UART_msg.machine_state = __SYNC_COMMA1;  }
 457              		.loc 1 74 14 view .LVU135
 458 008a 8342     		cmp	r3, r0
 459 008c 04D0     		beq	.L51
ARM GAS  /tmp/ccRvBgNS.s 			page 14


  77:IO_drivers/time_protocol.c **** 				break;
 460              		.loc 1 77 13 is_stmt 1 view .LVU136
  77:IO_drivers/time_protocol.c **** 				break;
 461              		.loc 1 77 36 is_stmt 0 view .LVU137
 462 008e 4E4B     		ldr	r3, .L57
 463 0090 0122     		movs	r2, #1
 464 0092 1A70     		strb	r2, [r3]
  43:IO_drivers/time_protocol.c ****     uint8_t CRC8 = 0; //–ø–µ—Ä–µ–º–µ–Ω–Ω–∞—è –¥–ª—è —Ö—Ä–∞–Ω–µ–Ω–∏—è CRC
 465              		.loc 1 43 13 view .LVU138
 466 0094 0020     		movs	r0, #0
 467              	.LVL41:
  43:IO_drivers/time_protocol.c ****     uint8_t CRC8 = 0; //–ø–µ—Ä–µ–º–µ–Ω–Ω–∞—è –¥–ª—è —Ö—Ä–∞–Ω–µ–Ω–∏—è CRC
 468              		.loc 1 43 13 view .LVU139
 469 0096 BAE7     		b	.L20
 470              	.LVL42:
 471              	.L51:
  75:IO_drivers/time_protocol.c ****           else
 472              		.loc 1 75 8 is_stmt 1 view .LVU140
  75:IO_drivers/time_protocol.c ****           else
 473              		.loc 1 75 31 is_stmt 0 view .LVU141
 474 0098 4B4B     		ldr	r3, .L57
 475 009a 0522     		movs	r2, #5
 476 009c 1A70     		strb	r2, [r3]
  43:IO_drivers/time_protocol.c ****     uint8_t CRC8 = 0; //–ø–µ—Ä–µ–º–µ–Ω–Ω–∞—è –¥–ª—è —Ö—Ä–∞–Ω–µ–Ω–∏—è CRC
 477              		.loc 1 43 13 view .LVU142
 478 009e 0020     		movs	r0, #0
 479              	.LVL43:
  43:IO_drivers/time_protocol.c ****     uint8_t CRC8 = 0; //–ø–µ—Ä–µ–º–µ–Ω–Ω–∞—è –¥–ª—è —Ö—Ä–∞–Ω–µ–Ω–∏—è CRC
 480              		.loc 1 43 13 view .LVU143
 481 00a0 B5E7     		b	.L20
 482              	.LVL44:
 483              	.L26:
  81:IO_drivers/time_protocol.c **** 					{ UART_msg.machine_state = __ID_MSG;  }
 484              		.loc 1 81 11 is_stmt 1 view .LVU144
  81:IO_drivers/time_protocol.c **** 					{ UART_msg.machine_state = __ID_MSG;  }
 485              		.loc 1 81 34 is_stmt 0 view .LVU145
 486 00a2 4A4B     		ldr	r3, .L57+4
 487 00a4 1B68     		ldr	r3, [r3]
 488 00a6 1B79     		ldrb	r3, [r3, #4]	@ zero_extendqisi2
  81:IO_drivers/time_protocol.c **** 					{ UART_msg.machine_state = __ID_MSG;  }
 489              		.loc 1 81 14 view .LVU146
 490 00a8 8342     		cmp	r3, r0
 491 00aa 04D0     		beq	.L52
  84:IO_drivers/time_protocol.c **** 				break;
 492              		.loc 1 84 13 is_stmt 1 view .LVU147
  84:IO_drivers/time_protocol.c **** 				break;
 493              		.loc 1 84 36 is_stmt 0 view .LVU148
 494 00ac 464B     		ldr	r3, .L57
 495 00ae 0122     		movs	r2, #1
 496 00b0 1A70     		strb	r2, [r3]
  43:IO_drivers/time_protocol.c ****     uint8_t CRC8 = 0; //–ø–µ—Ä–µ–º–µ–Ω–Ω–∞—è –¥–ª—è —Ö—Ä–∞–Ω–µ–Ω–∏—è CRC
 497              		.loc 1 43 13 view .LVU149
 498 00b2 0020     		movs	r0, #0
 499              	.LVL45:
  43:IO_drivers/time_protocol.c ****     uint8_t CRC8 = 0; //–ø–µ—Ä–µ–º–µ–Ω–Ω–∞—è –¥–ª—è —Ö—Ä–∞–Ω–µ–Ω–∏—è CRC
 500              		.loc 1 43 13 view .LVU150
 501 00b4 ABE7     		b	.L20
ARM GAS  /tmp/ccRvBgNS.s 			page 15


 502              	.LVL46:
 503              	.L52:
  82:IO_drivers/time_protocol.c ****           else
 504              		.loc 1 82 8 is_stmt 1 view .LVU151
  82:IO_drivers/time_protocol.c ****           else
 505              		.loc 1 82 31 is_stmt 0 view .LVU152
 506 00b6 444B     		ldr	r3, .L57
 507 00b8 0622     		movs	r2, #6
 508 00ba 1A70     		strb	r2, [r3]
  43:IO_drivers/time_protocol.c ****     uint8_t CRC8 = 0; //–ø–µ—Ä–µ–º–µ–Ω–Ω–∞—è –¥–ª—è —Ö—Ä–∞–Ω–µ–Ω–∏—è CRC
 509              		.loc 1 43 13 view .LVU153
 510 00bc 0020     		movs	r0, #0
 511              	.LVL47:
  43:IO_drivers/time_protocol.c ****     uint8_t CRC8 = 0; //–ø–µ—Ä–µ–º–µ–Ω–Ω–∞—è –¥–ª—è —Ö—Ä–∞–Ω–µ–Ω–∏—è CRC
 512              		.loc 1 43 13 view .LVU154
 513 00be A6E7     		b	.L20
 514              	.LVL48:
 515              	.L25:
  88:IO_drivers/time_protocol.c **** 					{ UART_msg.machine_state = __SYNC_COMMA2;  }
 516              		.loc 1 88 11 is_stmt 1 view .LVU155
  88:IO_drivers/time_protocol.c **** 					{ UART_msg.machine_state = __SYNC_COMMA2;  }
 517              		.loc 1 88 34 is_stmt 0 view .LVU156
 518 00c0 424B     		ldr	r3, .L57+4
 519 00c2 1B68     		ldr	r3, [r3]
 520 00c4 5B79     		ldrb	r3, [r3, #5]	@ zero_extendqisi2
  88:IO_drivers/time_protocol.c **** 					{ UART_msg.machine_state = __SYNC_COMMA2;  }
 521              		.loc 1 88 14 view .LVU157
 522 00c6 8342     		cmp	r3, r0
 523 00c8 04D0     		beq	.L53
  91:IO_drivers/time_protocol.c **** 				break;
 524              		.loc 1 91 13 is_stmt 1 view .LVU158
  91:IO_drivers/time_protocol.c **** 				break;
 525              		.loc 1 91 36 is_stmt 0 view .LVU159
 526 00ca 3F4B     		ldr	r3, .L57
 527 00cc 0122     		movs	r2, #1
 528 00ce 1A70     		strb	r2, [r3]
  43:IO_drivers/time_protocol.c ****     uint8_t CRC8 = 0; //–ø–µ—Ä–µ–º–µ–Ω–Ω–∞—è –¥–ª—è —Ö—Ä–∞–Ω–µ–Ω–∏—è CRC
 529              		.loc 1 43 13 view .LVU160
 530 00d0 0020     		movs	r0, #0
 531              	.LVL49:
  43:IO_drivers/time_protocol.c ****     uint8_t CRC8 = 0; //–ø–µ—Ä–µ–º–µ–Ω–Ω–∞—è –¥–ª—è —Ö—Ä–∞–Ω–µ–Ω–∏—è CRC
 532              		.loc 1 43 13 view .LVU161
 533 00d2 9CE7     		b	.L20
 534              	.LVL50:
 535              	.L53:
  89:IO_drivers/time_protocol.c ****           else
 536              		.loc 1 89 8 is_stmt 1 view .LVU162
  89:IO_drivers/time_protocol.c ****           else
 537              		.loc 1 89 31 is_stmt 0 view .LVU163
 538 00d4 3C4B     		ldr	r3, .L57
 539 00d6 0722     		movs	r2, #7
 540 00d8 1A70     		strb	r2, [r3]
  43:IO_drivers/time_protocol.c ****     uint8_t CRC8 = 0; //–ø–µ—Ä–µ–º–µ–Ω–Ω–∞—è –¥–ª—è —Ö—Ä–∞–Ω–µ–Ω–∏—è CRC
 541              		.loc 1 43 13 view .LVU164
 542 00da 0020     		movs	r0, #0
 543              	.LVL51:
  43:IO_drivers/time_protocol.c ****     uint8_t CRC8 = 0; //–ø–µ—Ä–µ–º–µ–Ω–Ω–∞—è –¥–ª—è —Ö—Ä–∞–Ω–µ–Ω–∏—è CRC
ARM GAS  /tmp/ccRvBgNS.s 			page 16


 544              		.loc 1 43 13 view .LVU165
 545 00dc 97E7     		b	.L20
 546              	.LVL52:
 547              	.L24:
  95:IO_drivers/time_protocol.c **** 					{ UART_msg.machine_state = __USEFUL_PART_MSG;  }
 548              		.loc 1 95 11 is_stmt 1 view .LVU166
  95:IO_drivers/time_protocol.c **** 					{ UART_msg.machine_state = __USEFUL_PART_MSG;  }
 549              		.loc 1 95 34 is_stmt 0 view .LVU167
 550 00de 3B4B     		ldr	r3, .L57+4
 551 00e0 1B68     		ldr	r3, [r3]
 552 00e2 9B79     		ldrb	r3, [r3, #6]	@ zero_extendqisi2
  95:IO_drivers/time_protocol.c **** 					{ UART_msg.machine_state = __USEFUL_PART_MSG;  }
 553              		.loc 1 95 14 view .LVU168
 554 00e4 8342     		cmp	r3, r0
 555 00e6 04D0     		beq	.L54
  98:IO_drivers/time_protocol.c **** 				break;
 556              		.loc 1 98 13 is_stmt 1 view .LVU169
  98:IO_drivers/time_protocol.c **** 				break;
 557              		.loc 1 98 36 is_stmt 0 view .LVU170
 558 00e8 374B     		ldr	r3, .L57
 559 00ea 0122     		movs	r2, #1
 560 00ec 1A70     		strb	r2, [r3]
  43:IO_drivers/time_protocol.c ****     uint8_t CRC8 = 0; //–ø–µ—Ä–µ–º–µ–Ω–Ω–∞—è –¥–ª—è —Ö—Ä–∞–Ω–µ–Ω–∏—è CRC
 561              		.loc 1 43 13 view .LVU171
 562 00ee 0020     		movs	r0, #0
 563              	.LVL53:
  43:IO_drivers/time_protocol.c ****     uint8_t CRC8 = 0; //–ø–µ—Ä–µ–º–µ–Ω–Ω–∞—è –¥–ª—è —Ö—Ä–∞–Ω–µ–Ω–∏—è CRC
 564              		.loc 1 43 13 view .LVU172
 565 00f0 8DE7     		b	.L20
 566              	.LVL54:
 567              	.L54:
  96:IO_drivers/time_protocol.c ****           else
 568              		.loc 1 96 8 is_stmt 1 view .LVU173
  96:IO_drivers/time_protocol.c ****           else
 569              		.loc 1 96 31 is_stmt 0 view .LVU174
 570 00f2 354B     		ldr	r3, .L57
 571 00f4 0822     		movs	r2, #8
 572 00f6 1A70     		strb	r2, [r3]
  43:IO_drivers/time_protocol.c ****     uint8_t CRC8 = 0; //–ø–µ—Ä–µ–º–µ–Ω–Ω–∞—è –¥–ª—è —Ö—Ä–∞–Ω–µ–Ω–∏—è CRC
 573              		.loc 1 43 13 view .LVU175
 574 00f8 0020     		movs	r0, #0
 575              	.LVL55:
  43:IO_drivers/time_protocol.c ****     uint8_t CRC8 = 0; //–ø–µ—Ä–µ–º–µ–Ω–Ω–∞—è –¥–ª—è —Ö—Ä–∞–Ω–µ–Ω–∏—è CRC
 576              		.loc 1 43 13 view .LVU176
 577 00fa 88E7     		b	.L20
 578              	.LVL56:
 579              	.L23:
 102:IO_drivers/time_protocol.c **** 				  {
 580              		.loc 1 102 11 is_stmt 1 view .LVU177
 102:IO_drivers/time_protocol.c **** 				  {
 581              		.loc 1 102 22 is_stmt 0 view .LVU178
 582 00fc 344B     		ldr	r3, .L57+8
 583 00fe 1B78     		ldrb	r3, [r3]	@ zero_extendqisi2
 102:IO_drivers/time_protocol.c **** 				  {
 584              		.loc 1 102 14 view .LVU179
 585 0100 072B     		cmp	r3, #7
 586 0102 08D8     		bhi	.L37
ARM GAS  /tmp/ccRvBgNS.s 			page 17


 104:IO_drivers/time_protocol.c **** 					  count++;
 587              		.loc 1 104 8 is_stmt 1 view .LVU180
 104:IO_drivers/time_protocol.c **** 					  count++;
 588              		.loc 1 104 18 is_stmt 0 view .LVU181
 589 0104 DA1D     		adds	r2, r3, #7
 590 0106 3149     		ldr	r1, .L57+4
 591 0108 0968     		ldr	r1, [r1]
 104:IO_drivers/time_protocol.c **** 					  count++;
 592              		.loc 1 104 28 view .LVU182
 593 010a 8854     		strb	r0, [r1, r2]
 105:IO_drivers/time_protocol.c **** 				  } 
 594              		.loc 1 105 8 is_stmt 1 view .LVU183
 105:IO_drivers/time_protocol.c **** 				  } 
 595              		.loc 1 105 13 is_stmt 0 view .LVU184
 596 010c 0133     		adds	r3, r3, #1
 597 010e 304A     		ldr	r2, .L57+8
 598 0110 1370     		strb	r3, [r2]
  43:IO_drivers/time_protocol.c ****     uint8_t CRC8 = 0; //–ø–µ—Ä–µ–º–µ–Ω–Ω–∞—è –¥–ª—è —Ö—Ä–∞–Ω–µ–Ω–∏—è CRC
 599              		.loc 1 43 13 view .LVU185
 600 0112 0020     		movs	r0, #0
 601              	.LVL57:
  43:IO_drivers/time_protocol.c ****     uint8_t CRC8 = 0; //–ø–µ—Ä–µ–º–µ–Ω–Ω–∞—è –¥–ª—è —Ö—Ä–∞–Ω–µ–Ω–∏—è CRC
 602              		.loc 1 43 13 view .LVU186
 603 0114 7BE7     		b	.L20
 604              	.LVL58:
 605              	.L37:
 109:IO_drivers/time_protocol.c **** 
 606              		.loc 1 109 8 is_stmt 1 view .LVU187
 109:IO_drivers/time_protocol.c **** 
 607              		.loc 1 109 14 is_stmt 0 view .LVU188
 608 0116 2E4B     		ldr	r3, .L57+8
 609 0118 0022     		movs	r2, #0
 610 011a 1A70     		strb	r2, [r3]
 111:IO_drivers/time_protocol.c **** 					  { 
 611              		.loc 1 111 13 is_stmt 1 view .LVU189
 111:IO_drivers/time_protocol.c **** 					  { 
 612              		.loc 1 111 37 is_stmt 0 view .LVU190
 613 011c 2B4B     		ldr	r3, .L57+4
 614 011e 1B68     		ldr	r3, [r3]
 615 0120 DB7B     		ldrb	r3, [r3, #15]	@ zero_extendqisi2
 111:IO_drivers/time_protocol.c **** 					  { 
 616              		.loc 1 111 16 view .LVU191
 617 0122 8342     		cmp	r3, r0
 618 0124 01D0     		beq	.L55
  43:IO_drivers/time_protocol.c ****     uint8_t CRC8 = 0; //–ø–µ—Ä–µ–º–µ–Ω–Ω–∞—è –¥–ª—è —Ö—Ä–∞–Ω–µ–Ω–∏—è CRC
 619              		.loc 1 43 13 view .LVU192
 620 0126 0020     		movs	r0, #0
 621              	.LVL59:
  43:IO_drivers/time_protocol.c ****     uint8_t CRC8 = 0; //–ø–µ—Ä–µ–º–µ–Ω–Ω–∞—è –¥–ª—è —Ö—Ä–∞–Ω–µ–Ω–∏—è CRC
 622              		.loc 1 43 13 view .LVU193
 623 0128 71E7     		b	.L20
 624              	.LVL60:
 625              	.L55:
 113:IO_drivers/time_protocol.c ****               UART_msg.msg_CRC = 0;
 626              		.loc 1 113 15 is_stmt 1 view .LVU194
 113:IO_drivers/time_protocol.c ****               UART_msg.msg_CRC = 0;
 627              		.loc 1 113 38 is_stmt 0 view .LVU195
ARM GAS  /tmp/ccRvBgNS.s 			page 18


 628 012a 274B     		ldr	r3, .L57
 629 012c 0922     		movs	r2, #9
 630 012e 1A70     		strb	r2, [r3]
 114:IO_drivers/time_protocol.c ****               divider = 0x10;
 631              		.loc 1 114 15 is_stmt 1 view .LVU196
 114:IO_drivers/time_protocol.c ****               divider = 0x10;
 632              		.loc 1 114 32 is_stmt 0 view .LVU197
 633 0130 0020     		movs	r0, #0
 634              	.LVL61:
 114:IO_drivers/time_protocol.c ****               divider = 0x10;
 635              		.loc 1 114 32 view .LVU198
 636 0132 1875     		strb	r0, [r3, #20]
 115:IO_drivers/time_protocol.c ****             } 	
 637              		.loc 1 115 15 is_stmt 1 view .LVU199
 115:IO_drivers/time_protocol.c ****             } 	
 638              		.loc 1 115 23 is_stmt 0 view .LVU200
 639 0134 274B     		ldr	r3, .L57+12
 640 0136 1022     		movs	r2, #16
 641 0138 1A70     		strb	r2, [r3]
 642 013a 68E7     		b	.L20
 643              	.LVL62:
 644              	.L21:
 121:IO_drivers/time_protocol.c ****           {
 645              		.loc 1 121 11 is_stmt 1 view .LVU201
 121:IO_drivers/time_protocol.c ****           {
 646              		.loc 1 121 21 is_stmt 0 view .LVU202
 647 013c 244B     		ldr	r3, .L57+8
 648 013e 1B78     		ldrb	r3, [r3]	@ zero_extendqisi2
 121:IO_drivers/time_protocol.c ****           {
 649              		.loc 1 121 14 view .LVU203
 650 0140 012B     		cmp	r3, #1
 651 0142 29D8     		bhi	.L38
 123:IO_drivers/time_protocol.c ****             if ((byte >= '0') && (byte <= '9')) //–ø—Ä–æ–≤–µ—Ä–∫–∞ –¥–∏–∞–ø–∞–∑–æ–Ω–∞ –ø—Ä–∏–Ω—è—Ç–
 652              		.loc 1 123 13 is_stmt 1 view .LVU204
 123:IO_drivers/time_protocol.c ****             if ((byte >= '0') && (byte <= '9')) //–ø—Ä–æ–≤–µ—Ä–∫–∞ –¥–∏–∞–ø–∞–∑–æ–Ω–∞ –ø—Ä–∏–Ω—è—Ç–
 653              		.loc 1 123 27 is_stmt 0 view .LVU205
 654 0144 03F11002 		add	r2, r3, #16
 123:IO_drivers/time_protocol.c ****             if ((byte >= '0') && (byte <= '9')) //–ø—Ä–æ–≤–µ—Ä–∫–∞ –¥–∏–∞–ø–∞–∑–æ–Ω–∞ –ø—Ä–∏–Ω—è—Ç–
 655              		.loc 1 123 23 view .LVU206
 656 0148 2049     		ldr	r1, .L57+4
 657 014a 0968     		ldr	r1, [r1]
 123:IO_drivers/time_protocol.c ****             if ((byte >= '0') && (byte <= '9')) //–ø—Ä–æ–≤–µ—Ä–∫–∞ –¥–∏–∞–ø–∞–∑–æ–Ω–∞ –ø—Ä–∏–Ω—è—Ç–
 658              		.loc 1 123 36 view .LVU207
 659 014c 8854     		strb	r0, [r1, r2]
 124:IO_drivers/time_protocol.c ****             { UART_msg.msg_CRC |= (byte-0x30)*divider; }
 660              		.loc 1 124 13 is_stmt 1 view .LVU208
 124:IO_drivers/time_protocol.c ****             { UART_msg.msg_CRC |= (byte-0x30)*divider; }
 661              		.loc 1 124 31 is_stmt 0 view .LVU209
 662 014e A0F13002 		sub	r2, r0, #48
 663 0152 D2B2     		uxtb	r2, r2
 124:IO_drivers/time_protocol.c ****             { UART_msg.msg_CRC |= (byte-0x30)*divider; }
 664              		.loc 1 124 16 view .LVU210
 665 0154 092A     		cmp	r2, #9
 666 0156 10D8     		bhi	.L39
 125:IO_drivers/time_protocol.c ****             else
 667              		.loc 1 125 15 is_stmt 1 view .LVU211
 125:IO_drivers/time_protocol.c ****             else
ARM GAS  /tmp/ccRvBgNS.s 			page 19


 668              		.loc 1 125 32 is_stmt 0 view .LVU212
 669 0158 1B49     		ldr	r1, .L57
 670 015a 1E48     		ldr	r0, .L57+12
 671              	.LVL63:
 125:IO_drivers/time_protocol.c ****             else
 672              		.loc 1 125 32 view .LVU213
 673 015c 0078     		ldrb	r0, [r0]	@ zero_extendqisi2
 674 015e 00FB02F2 		mul	r2, r0, r2
 675 0162 087D     		ldrb	r0, [r1, #20]	@ zero_extendqisi2
 676 0164 0243     		orrs	r2, r2, r0
 677 0166 0A75     		strb	r2, [r1, #20]
 678              	.L40:
 131:IO_drivers/time_protocol.c ****             divider = (divider >> 4); //–¥–µ–ª–µ–Ω–∏–µ –Ω–∞ 0x10
 679              		.loc 1 131 13 is_stmt 1 view .LVU214
 131:IO_drivers/time_protocol.c ****             divider = (divider >> 4); //–¥–µ–ª–µ–Ω–∏–µ –Ω–∞ 0x10
 680              		.loc 1 131 18 is_stmt 0 view .LVU215
 681 0168 0133     		adds	r3, r3, #1
 682 016a 194A     		ldr	r2, .L57+8
 683 016c 1370     		strb	r3, [r2]
 132:IO_drivers/time_protocol.c ****           }
 684              		.loc 1 132 13 is_stmt 1 view .LVU216
 132:IO_drivers/time_protocol.c ****           }
 685              		.loc 1 132 21 is_stmt 0 view .LVU217
 686 016e 194A     		ldr	r2, .L57+12
 687 0170 1378     		ldrb	r3, [r2]	@ zero_extendqisi2
 688 0172 1B09     		lsrs	r3, r3, #4
 689 0174 1370     		strb	r3, [r2]
  43:IO_drivers/time_protocol.c ****     uint8_t CRC8 = 0; //–ø–µ—Ä–µ–º–µ–Ω–Ω–∞—è –¥–ª—è —Ö—Ä–∞–Ω–µ–Ω–∏—è CRC
 690              		.loc 1 43 13 view .LVU218
 691 0176 0020     		movs	r0, #0
 692 0178 49E7     		b	.L20
 693              	.LVL64:
 694              	.L39:
 128:IO_drivers/time_protocol.c ****               { UART_msg.msg_CRC |= (byte-0x37)*divider; }
 695              		.loc 1 128 15 is_stmt 1 view .LVU219
 128:IO_drivers/time_protocol.c ****               { UART_msg.msg_CRC |= (byte-0x37)*divider; }
 696              		.loc 1 128 33 is_stmt 0 view .LVU220
 697 017a A0F14102 		sub	r2, r0, #65
 698 017e D2B2     		uxtb	r2, r2
 128:IO_drivers/time_protocol.c ****               { UART_msg.msg_CRC |= (byte-0x37)*divider; }
 699              		.loc 1 128 18 view .LVU221
 700 0180 052A     		cmp	r2, #5
 701 0182 F1D8     		bhi	.L40
 129:IO_drivers/time_protocol.c ****             }
 702              		.loc 1 129 17 is_stmt 1 view .LVU222
 129:IO_drivers/time_protocol.c ****             }
 703              		.loc 1 129 34 is_stmt 0 view .LVU223
 704 0184 1049     		ldr	r1, .L57
 705 0186 3738     		subs	r0, r0, #55
 706              	.LVL65:
 129:IO_drivers/time_protocol.c ****             }
 707              		.loc 1 129 34 view .LVU224
 708 0188 124A     		ldr	r2, .L57+12
 709 018a 1278     		ldrb	r2, [r2]	@ zero_extendqisi2
 710 018c 02FB00F0 		mul	r0, r2, r0
 711 0190 0A7D     		ldrb	r2, [r1, #20]	@ zero_extendqisi2
 712 0192 0243     		orrs	r2, r2, r0
ARM GAS  /tmp/ccRvBgNS.s 			page 20


 713 0194 0A75     		strb	r2, [r1, #20]
 714 0196 E7E7     		b	.L40
 715              	.LVL66:
 716              	.L38:
 136:IO_drivers/time_protocol.c ****             {
 717              		.loc 1 136 13 is_stmt 1 view .LVU225
 136:IO_drivers/time_protocol.c ****             {
 718              		.loc 1 136 25 is_stmt 0 view .LVU226
 719 0198 0C4B     		ldr	r3, .L57+4
 720 019a 1C68     		ldr	r4, [r3]
 721 019c 601C     		adds	r0, r4, #1
 722              	.LVL67:
 136:IO_drivers/time_protocol.c ****             {
 723              		.loc 1 136 25 view .LVU227
 724 019e FFF7FEFF 		bl	calc_CRC8
 725              	.LVL68:
 136:IO_drivers/time_protocol.c ****             {
 726              		.loc 1 136 65 view .LVU228
 727 01a2 094B     		ldr	r3, .L57
 728 01a4 1B7D     		ldrb	r3, [r3, #20]	@ zero_extendqisi2
 136:IO_drivers/time_protocol.c ****             {
 729              		.loc 1 136 16 view .LVU229
 730 01a6 8342     		cmp	r3, r0
 731 01a8 06D0     		beq	.L56
 732              	.LVL69:
 733              	.L41:
 140:IO_drivers/time_protocol.c ****             UART_msg.machine_state = __START_BYTE;
 734              		.loc 1 140 13 is_stmt 1 view .LVU230
 140:IO_drivers/time_protocol.c ****             UART_msg.machine_state = __START_BYTE;
 735              		.loc 1 140 19 is_stmt 0 view .LVU231
 736 01aa 094B     		ldr	r3, .L57+8
 737 01ac 0022     		movs	r2, #0
 738 01ae 1A70     		strb	r2, [r3]
 141:IO_drivers/time_protocol.c ****             buffer_status =  GET_MSG;
 739              		.loc 1 141 13 is_stmt 1 view .LVU232
 141:IO_drivers/time_protocol.c ****             buffer_status =  GET_MSG;
 740              		.loc 1 141 36 is_stmt 0 view .LVU233
 741 01b0 0120     		movs	r0, #1
 742 01b2 054B     		ldr	r3, .L57
 743 01b4 1870     		strb	r0, [r3]
 142:IO_drivers/time_protocol.c ****           }
 744              		.loc 1 142 13 is_stmt 1 view .LVU234
 745              	.LVL70:
 142:IO_drivers/time_protocol.c ****           }
 746              		.loc 1 142 13 is_stmt 0 view .LVU235
 747 01b6 2AE7     		b	.L20
 748              	.LVL71:
 749              	.L56:
 138:IO_drivers/time_protocol.c ****             }
 750              		.loc 1 138 15 is_stmt 1 view .LVU236
 138:IO_drivers/time_protocol.c ****             }
 751              		.loc 1 138 40 is_stmt 0 view .LVU237
 752 01b8 E01D     		adds	r0, r4, #7
 753              	.LVL72:
 138:IO_drivers/time_protocol.c ****             }
 754              		.loc 1 138 40 view .LVU238
 755 01ba FFF7FEFF 		bl	calcUNIXtime_from_PDTmsg
ARM GAS  /tmp/ccRvBgNS.s 			page 21


 756              	.LVL73:
 138:IO_drivers/time_protocol.c ****             }
 757              		.loc 1 138 37 view .LVU239
 758 01be 024B     		ldr	r3, .L57
 759 01c0 9861     		str	r0, [r3, #24]
 760 01c2 F2E7     		b	.L41
 761              	.LVL74:
 762              	.L43:
  52:IO_drivers/time_protocol.c **** 		  { 
 763              		.loc 1 52 7 view .LVU240
 764 01c4 0020     		movs	r0, #0
 765              	.LVL75:
  52:IO_drivers/time_protocol.c **** 		  { 
 766              		.loc 1 52 7 view .LVU241
 767 01c6 22E7     		b	.L20
 768              	.L58:
 769              		.align	2
 770              	.L57:
 771 01c8 00000000 		.word	.LANCHOR1
 772 01cc 00000000 		.word	.LANCHOR2
 773 01d0 00000000 		.word	.LANCHOR3
 774 01d4 00000000 		.word	.LANCHOR4
 775              		.cfi_endproc
 776              	.LFE819:
 778              		.section	.text.return_UNIXtimeNTP,"ax",%progbits
 779              		.align	1
 780              		.global	return_UNIXtimeNTP
 781              		.syntax unified
 782              		.thumb
 783              		.thumb_func
 785              	return_UNIXtimeNTP:
 786              	.LFB822:
 186:IO_drivers/time_protocol.c **** 
 187:IO_drivers/time_protocol.c **** //--------------------------–≤–æ–∑–≤—Ä–∞—â–∞–µ—Ç –≤—Ä–µ–º—è —Ñ–æ—Ä–º–∞—Ç–∞ UNIX –æ—Ç ntp —Å–µ—Ä–≤–µ
 188:IO_drivers/time_protocol.c **** uint32_t return_UNIXtimeNTP (void)
 189:IO_drivers/time_protocol.c **** {
 787              		.loc 1 189 1 is_stmt 1 view -0
 788              		.cfi_startproc
 789              		@ args = 0, pretend = 0, frame = 0
 790              		@ frame_needed = 0, uses_anonymous_args = 0
 791              		@ link register save eliminated.
 190:IO_drivers/time_protocol.c ****   return UART_msg.ntp_UNIXtime;
 792              		.loc 1 190 3 view .LVU243
 191:IO_drivers/time_protocol.c **** }
 793              		.loc 1 191 1 is_stmt 0 view .LVU244
 794 0000 014B     		ldr	r3, .L60
 795 0002 9869     		ldr	r0, [r3, #24]
 796 0004 7047     		bx	lr
 797              	.L61:
 798 0006 00BF     		.align	2
 799              	.L60:
 800 0008 00000000 		.word	.LANCHOR1
 801              		.cfi_endproc
 802              	.LFE822:
 804              		.global	RING_buffer
 805              		.global	TimeUART
 806              		.global	ptr_PDTmsg
ARM GAS  /tmp/ccRvBgNS.s 			page 22


 807              		.global	UART_msg
 808              		.section	.bss.RING_buffer,"aw",%nobits
 809              		.align	2
 810              		.set	.LANCHOR0,. + 0
 813              	RING_buffer:
 814 0000 00000000 		.space	12
 814      00000000 
 814      00000000 
 815              		.section	.bss.TimeUART,"aw",%nobits
 816              		.align	2
 819              	TimeUART:
 820 0000 00000000 		.space	4
 821              		.section	.bss.UART_msg,"aw",%nobits
 822              		.align	2
 823              		.set	.LANCHOR1,. + 0
 826              	UART_msg:
 827 0000 00000000 		.space	32
 827      00000000 
 827      00000000 
 827      00000000 
 827      00000000 
 828              		.section	.bss.count.1,"aw",%nobits
 829              		.set	.LANCHOR3,. + 0
 832              	count.1:
 833 0000 00       		.space	1
 834              		.section	.data.divider.0,"aw"
 835              		.set	.LANCHOR4,. + 0
 838              	divider.0:
 839 0000 10       		.byte	16
 840              		.section	.data.ptr_PDTmsg,"aw"
 841              		.align	2
 842              		.set	.LANCHOR2,. + 0
 845              	ptr_PDTmsg:
 846 0000 02000000 		.word	UART_msg+2
 847              		.text
 848              	.Letext0:
 849              		.file 2 "/home/arashamf/soft/ARM_toolchains/gcc-arm-none-eabi-10.3-2021.10/arm-none-eabi/include/m
 850              		.file 3 "/home/arashamf/soft/ARM_toolchains/gcc-arm-none-eabi-10.3-2021.10/arm-none-eabi/include/s
 851              		.file 4 "Drivers/STM32L1xx_HAL_Driver/Inc/stm32l1xx_ll_dma.h"
 852              		.file 5 "Drivers/STM32L1xx_HAL_Driver/Inc/stm32l1xx_ll_tim.h"
 853              		.file 6 "IO_drivers/ring_buffer.h"
 854              		.file 7 "Core/Inc/typedef.h"
 855              		.file 8 "Core/Inc/usart.h"
ARM GAS  /tmp/ccRvBgNS.s 			page 23

